; Listing generated by Microsoft (R) Optimizing Compiler Version 18.00.40629.0 

	TITLE	H:\Source\HG\Client\Code_Core\jsoncpp-src-0.5.0\src\lib_json\json_reader.cpp
	.686P
	.XMM
	include listing.inc
	.model	flat

INCLUDELIB MSVCRT

PUBLIC	?is_signed@?$numeric_limits@_K@std@@2_NB	; std::numeric_limits<unsigned __int64>::is_signed
PUBLIC	?digits@?$numeric_limits@_K@std@@2HB		; std::numeric_limits<unsigned __int64>::digits
PUBLIC	?digits10@?$numeric_limits@_K@std@@2HB		; std::numeric_limits<unsigned __int64>::digits10
PUBLIC	?digits@?$numeric_limits@M@std@@2HB		; std::numeric_limits<float>::digits
PUBLIC	?digits10@?$numeric_limits@M@std@@2HB		; std::numeric_limits<float>::digits10
PUBLIC	?max_digits10@?$numeric_limits@M@std@@2HB	; std::numeric_limits<float>::max_digits10
PUBLIC	?max_exponent@?$numeric_limits@M@std@@2HB	; std::numeric_limits<float>::max_exponent
PUBLIC	?max_exponent10@?$numeric_limits@M@std@@2HB	; std::numeric_limits<float>::max_exponent10
PUBLIC	?min_exponent@?$numeric_limits@M@std@@2HB	; std::numeric_limits<float>::min_exponent
PUBLIC	?min_exponent10@?$numeric_limits@M@std@@2HB	; std::numeric_limits<float>::min_exponent10
PUBLIC	?digits@?$numeric_limits@N@std@@2HB		; std::numeric_limits<double>::digits
PUBLIC	?digits10@?$numeric_limits@N@std@@2HB		; std::numeric_limits<double>::digits10
PUBLIC	?max_digits10@?$numeric_limits@N@std@@2HB	; std::numeric_limits<double>::max_digits10
PUBLIC	?max_exponent@?$numeric_limits@N@std@@2HB	; std::numeric_limits<double>::max_exponent
PUBLIC	?max_exponent10@?$numeric_limits@N@std@@2HB	; std::numeric_limits<double>::max_exponent10
PUBLIC	?min_exponent@?$numeric_limits@N@std@@2HB	; std::numeric_limits<double>::min_exponent
PUBLIC	?min_exponent10@?$numeric_limits@N@std@@2HB	; std::numeric_limits<double>::min_exponent10
PUBLIC	?digits@?$numeric_limits@O@std@@2HB		; std::numeric_limits<long double>::digits
PUBLIC	?digits10@?$numeric_limits@O@std@@2HB		; std::numeric_limits<long double>::digits10
PUBLIC	?max_digits10@?$numeric_limits@O@std@@2HB	; std::numeric_limits<long double>::max_digits10
PUBLIC	?max_exponent@?$numeric_limits@O@std@@2HB	; std::numeric_limits<long double>::max_exponent
PUBLIC	?max_exponent10@?$numeric_limits@O@std@@2HB	; std::numeric_limits<long double>::max_exponent10
PUBLIC	?min_exponent@?$numeric_limits@O@std@@2HB	; std::numeric_limits<long double>::min_exponent
PUBLIC	?min_exponent10@?$numeric_limits@O@std@@2HB	; std::numeric_limits<long double>::min_exponent10
PUBLIC	?has_denorm@_Num_base@std@@2W4float_denorm_style@2@B ; std::_Num_base::has_denorm
PUBLIC	?has_denorm_loss@_Num_base@std@@2_NB		; std::_Num_base::has_denorm_loss
PUBLIC	?has_infinity@_Num_base@std@@2_NB		; std::_Num_base::has_infinity
PUBLIC	?has_quiet_NaN@_Num_base@std@@2_NB		; std::_Num_base::has_quiet_NaN
PUBLIC	?has_signaling_NaN@_Num_base@std@@2_NB		; std::_Num_base::has_signaling_NaN
PUBLIC	?is_bounded@_Num_base@std@@2_NB			; std::_Num_base::is_bounded
PUBLIC	?is_exact@_Num_base@std@@2_NB			; std::_Num_base::is_exact
PUBLIC	?is_iec559@_Num_base@std@@2_NB			; std::_Num_base::is_iec559
PUBLIC	?is_integer@_Num_base@std@@2_NB			; std::_Num_base::is_integer
PUBLIC	?is_modulo@_Num_base@std@@2_NB			; std::_Num_base::is_modulo
PUBLIC	?is_signed@_Num_base@std@@2_NB			; std::_Num_base::is_signed
PUBLIC	?is_specialized@_Num_base@std@@2_NB		; std::_Num_base::is_specialized
PUBLIC	?tinyness_before@_Num_base@std@@2_NB		; std::_Num_base::tinyness_before
PUBLIC	?traps@_Num_base@std@@2_NB			; std::_Num_base::traps
PUBLIC	?round_style@_Num_base@std@@2W4float_round_style@2@B ; std::_Num_base::round_style
PUBLIC	?digits@_Num_base@std@@2HB			; std::_Num_base::digits
PUBLIC	?digits10@_Num_base@std@@2HB			; std::_Num_base::digits10
PUBLIC	?max_digits10@_Num_base@std@@2HB		; std::_Num_base::max_digits10
PUBLIC	?max_exponent@_Num_base@std@@2HB		; std::_Num_base::max_exponent
PUBLIC	?max_exponent10@_Num_base@std@@2HB		; std::_Num_base::max_exponent10
PUBLIC	?min_exponent@_Num_base@std@@2HB		; std::_Num_base::min_exponent
PUBLIC	?min_exponent10@_Num_base@std@@2HB		; std::_Num_base::min_exponent10
PUBLIC	?radix@_Num_base@std@@2HB			; std::_Num_base::radix
PUBLIC	?is_bounded@_Num_int_base@std@@2_NB		; std::_Num_int_base::is_bounded
PUBLIC	?is_exact@_Num_int_base@std@@2_NB		; std::_Num_int_base::is_exact
PUBLIC	?is_integer@_Num_int_base@std@@2_NB		; std::_Num_int_base::is_integer
PUBLIC	?is_modulo@_Num_int_base@std@@2_NB		; std::_Num_int_base::is_modulo
PUBLIC	?is_specialized@_Num_int_base@std@@2_NB		; std::_Num_int_base::is_specialized
PUBLIC	?radix@_Num_int_base@std@@2HB			; std::_Num_int_base::radix
PUBLIC	?has_denorm@_Num_float_base@std@@2W4float_denorm_style@2@B ; std::_Num_float_base::has_denorm
PUBLIC	?has_denorm_loss@_Num_float_base@std@@2_NB	; std::_Num_float_base::has_denorm_loss
PUBLIC	?has_infinity@_Num_float_base@std@@2_NB		; std::_Num_float_base::has_infinity
PUBLIC	?has_quiet_NaN@_Num_float_base@std@@2_NB	; std::_Num_float_base::has_quiet_NaN
PUBLIC	?has_signaling_NaN@_Num_float_base@std@@2_NB	; std::_Num_float_base::has_signaling_NaN
PUBLIC	?is_bounded@_Num_float_base@std@@2_NB		; std::_Num_float_base::is_bounded
PUBLIC	?is_exact@_Num_float_base@std@@2_NB		; std::_Num_float_base::is_exact
PUBLIC	?is_iec559@_Num_float_base@std@@2_NB		; std::_Num_float_base::is_iec559
PUBLIC	?is_integer@_Num_float_base@std@@2_NB		; std::_Num_float_base::is_integer
PUBLIC	?is_modulo@_Num_float_base@std@@2_NB		; std::_Num_float_base::is_modulo
PUBLIC	?is_signed@_Num_float_base@std@@2_NB		; std::_Num_float_base::is_signed
PUBLIC	?is_specialized@_Num_float_base@std@@2_NB	; std::_Num_float_base::is_specialized
PUBLIC	?tinyness_before@_Num_float_base@std@@2_NB	; std::_Num_float_base::tinyness_before
PUBLIC	?traps@_Num_float_base@std@@2_NB		; std::_Num_float_base::traps
PUBLIC	?round_style@_Num_float_base@std@@2W4float_round_style@2@B ; std::_Num_float_base::round_style
PUBLIC	?radix@_Num_float_base@std@@2HB			; std::_Num_float_base::radix
PUBLIC	?is_signed@?$numeric_limits@D@std@@2_NB		; std::numeric_limits<char>::is_signed
PUBLIC	?digits@?$numeric_limits@D@std@@2HB		; std::numeric_limits<char>::digits
PUBLIC	?digits10@?$numeric_limits@D@std@@2HB		; std::numeric_limits<char>::digits10
PUBLIC	?is_signed@?$numeric_limits@_W@std@@2_NB	; std::numeric_limits<wchar_t>::is_signed
PUBLIC	?digits@?$numeric_limits@_W@std@@2HB		; std::numeric_limits<wchar_t>::digits
PUBLIC	?digits10@?$numeric_limits@_W@std@@2HB		; std::numeric_limits<wchar_t>::digits10
PUBLIC	?is_modulo@?$numeric_limits@_N@std@@2_NB	; std::numeric_limits<bool>::is_modulo
PUBLIC	?is_signed@?$numeric_limits@_N@std@@2_NB	; std::numeric_limits<bool>::is_signed
PUBLIC	?digits@?$numeric_limits@_N@std@@2HB		; std::numeric_limits<bool>::digits
PUBLIC	?digits10@?$numeric_limits@_N@std@@2HB		; std::numeric_limits<bool>::digits10
PUBLIC	?is_signed@?$numeric_limits@C@std@@2_NB		; std::numeric_limits<signed char>::is_signed
PUBLIC	?digits@?$numeric_limits@C@std@@2HB		; std::numeric_limits<signed char>::digits
PUBLIC	?digits10@?$numeric_limits@C@std@@2HB		; std::numeric_limits<signed char>::digits10
PUBLIC	?is_signed@?$numeric_limits@E@std@@2_NB		; std::numeric_limits<unsigned char>::is_signed
PUBLIC	?digits@?$numeric_limits@E@std@@2HB		; std::numeric_limits<unsigned char>::digits
PUBLIC	?digits10@?$numeric_limits@E@std@@2HB		; std::numeric_limits<unsigned char>::digits10
PUBLIC	?is_signed@?$numeric_limits@F@std@@2_NB		; std::numeric_limits<short>::is_signed
PUBLIC	?digits@?$numeric_limits@F@std@@2HB		; std::numeric_limits<short>::digits
PUBLIC	?digits10@?$numeric_limits@F@std@@2HB		; std::numeric_limits<short>::digits10
PUBLIC	?is_signed@?$numeric_limits@G@std@@2_NB		; std::numeric_limits<unsigned short>::is_signed
PUBLIC	?digits@?$numeric_limits@G@std@@2HB		; std::numeric_limits<unsigned short>::digits
PUBLIC	?digits10@?$numeric_limits@G@std@@2HB		; std::numeric_limits<unsigned short>::digits10
PUBLIC	?is_signed@?$numeric_limits@H@std@@2_NB		; std::numeric_limits<int>::is_signed
PUBLIC	?digits@?$numeric_limits@H@std@@2HB		; std::numeric_limits<int>::digits
PUBLIC	?digits10@?$numeric_limits@H@std@@2HB		; std::numeric_limits<int>::digits10
PUBLIC	?is_signed@?$numeric_limits@I@std@@2_NB		; std::numeric_limits<unsigned int>::is_signed
PUBLIC	?digits@?$numeric_limits@I@std@@2HB		; std::numeric_limits<unsigned int>::digits
PUBLIC	?digits10@?$numeric_limits@I@std@@2HB		; std::numeric_limits<unsigned int>::digits10
PUBLIC	?is_signed@?$numeric_limits@J@std@@2_NB		; std::numeric_limits<long>::is_signed
PUBLIC	?digits@?$numeric_limits@J@std@@2HB		; std::numeric_limits<long>::digits
PUBLIC	?digits10@?$numeric_limits@J@std@@2HB		; std::numeric_limits<long>::digits10
PUBLIC	?is_signed@?$numeric_limits@K@std@@2_NB		; std::numeric_limits<unsigned long>::is_signed
PUBLIC	?digits@?$numeric_limits@K@std@@2HB		; std::numeric_limits<unsigned long>::digits
PUBLIC	?digits10@?$numeric_limits@K@std@@2HB		; std::numeric_limits<unsigned long>::digits10
PUBLIC	?is_signed@?$numeric_limits@_J@std@@2_NB	; std::numeric_limits<__int64>::is_signed
PUBLIC	?digits@?$numeric_limits@_J@std@@2HB		; std::numeric_limits<__int64>::digits
PUBLIC	?digits10@?$numeric_limits@_J@std@@2HB		; std::numeric_limits<__int64>::digits10
;	COMDAT ?digits10@?$numeric_limits@_J@std@@2HB
CONST	SEGMENT
?digits10@?$numeric_limits@_J@std@@2HB DD 012H		; std::numeric_limits<__int64>::digits10
CONST	ENDS
;	COMDAT ?digits@?$numeric_limits@_J@std@@2HB
CONST	SEGMENT
?digits@?$numeric_limits@_J@std@@2HB DD 03fH		; std::numeric_limits<__int64>::digits
CONST	ENDS
;	COMDAT ?is_signed@?$numeric_limits@_J@std@@2_NB
CONST	SEGMENT
?is_signed@?$numeric_limits@_J@std@@2_NB DB 01H		; std::numeric_limits<__int64>::is_signed
CONST	ENDS
;	COMDAT ?digits10@?$numeric_limits@K@std@@2HB
CONST	SEGMENT
?digits10@?$numeric_limits@K@std@@2HB DD 09H		; std::numeric_limits<unsigned long>::digits10
CONST	ENDS
;	COMDAT ?digits@?$numeric_limits@K@std@@2HB
CONST	SEGMENT
?digits@?$numeric_limits@K@std@@2HB DD 020H		; std::numeric_limits<unsigned long>::digits
CONST	ENDS
;	COMDAT ?is_signed@?$numeric_limits@K@std@@2_NB
CONST	SEGMENT
?is_signed@?$numeric_limits@K@std@@2_NB DB 00H		; std::numeric_limits<unsigned long>::is_signed
CONST	ENDS
;	COMDAT ?digits10@?$numeric_limits@J@std@@2HB
CONST	SEGMENT
?digits10@?$numeric_limits@J@std@@2HB DD 09H		; std::numeric_limits<long>::digits10
CONST	ENDS
;	COMDAT ?digits@?$numeric_limits@J@std@@2HB
CONST	SEGMENT
?digits@?$numeric_limits@J@std@@2HB DD 01fH		; std::numeric_limits<long>::digits
CONST	ENDS
;	COMDAT ?is_signed@?$numeric_limits@J@std@@2_NB
CONST	SEGMENT
?is_signed@?$numeric_limits@J@std@@2_NB DB 01H		; std::numeric_limits<long>::is_signed
CONST	ENDS
;	COMDAT ?digits10@?$numeric_limits@I@std@@2HB
CONST	SEGMENT
?digits10@?$numeric_limits@I@std@@2HB DD 09H		; std::numeric_limits<unsigned int>::digits10
CONST	ENDS
;	COMDAT ?digits@?$numeric_limits@I@std@@2HB
CONST	SEGMENT
?digits@?$numeric_limits@I@std@@2HB DD 020H		; std::numeric_limits<unsigned int>::digits
CONST	ENDS
;	COMDAT ?is_signed@?$numeric_limits@I@std@@2_NB
CONST	SEGMENT
?is_signed@?$numeric_limits@I@std@@2_NB DB 00H		; std::numeric_limits<unsigned int>::is_signed
CONST	ENDS
;	COMDAT ?digits10@?$numeric_limits@H@std@@2HB
CONST	SEGMENT
?digits10@?$numeric_limits@H@std@@2HB DD 09H		; std::numeric_limits<int>::digits10
CONST	ENDS
;	COMDAT ?digits@?$numeric_limits@H@std@@2HB
CONST	SEGMENT
?digits@?$numeric_limits@H@std@@2HB DD 01fH		; std::numeric_limits<int>::digits
CONST	ENDS
;	COMDAT ?is_signed@?$numeric_limits@H@std@@2_NB
CONST	SEGMENT
?is_signed@?$numeric_limits@H@std@@2_NB DB 01H		; std::numeric_limits<int>::is_signed
CONST	ENDS
;	COMDAT ?digits10@?$numeric_limits@G@std@@2HB
CONST	SEGMENT
?digits10@?$numeric_limits@G@std@@2HB DD 04H		; std::numeric_limits<unsigned short>::digits10
CONST	ENDS
;	COMDAT ?digits@?$numeric_limits@G@std@@2HB
CONST	SEGMENT
?digits@?$numeric_limits@G@std@@2HB DD 010H		; std::numeric_limits<unsigned short>::digits
CONST	ENDS
;	COMDAT ?is_signed@?$numeric_limits@G@std@@2_NB
CONST	SEGMENT
?is_signed@?$numeric_limits@G@std@@2_NB DB 00H		; std::numeric_limits<unsigned short>::is_signed
CONST	ENDS
;	COMDAT ?digits10@?$numeric_limits@F@std@@2HB
CONST	SEGMENT
?digits10@?$numeric_limits@F@std@@2HB DD 04H		; std::numeric_limits<short>::digits10
CONST	ENDS
;	COMDAT ?digits@?$numeric_limits@F@std@@2HB
CONST	SEGMENT
?digits@?$numeric_limits@F@std@@2HB DD 0fH		; std::numeric_limits<short>::digits
CONST	ENDS
;	COMDAT ?is_signed@?$numeric_limits@F@std@@2_NB
CONST	SEGMENT
?is_signed@?$numeric_limits@F@std@@2_NB DB 01H		; std::numeric_limits<short>::is_signed
CONST	ENDS
;	COMDAT ?digits10@?$numeric_limits@E@std@@2HB
CONST	SEGMENT
?digits10@?$numeric_limits@E@std@@2HB DD 02H		; std::numeric_limits<unsigned char>::digits10
CONST	ENDS
;	COMDAT ?digits@?$numeric_limits@E@std@@2HB
CONST	SEGMENT
?digits@?$numeric_limits@E@std@@2HB DD 08H		; std::numeric_limits<unsigned char>::digits
CONST	ENDS
;	COMDAT ?is_signed@?$numeric_limits@E@std@@2_NB
CONST	SEGMENT
?is_signed@?$numeric_limits@E@std@@2_NB DB 00H		; std::numeric_limits<unsigned char>::is_signed
CONST	ENDS
;	COMDAT ?digits10@?$numeric_limits@C@std@@2HB
CONST	SEGMENT
?digits10@?$numeric_limits@C@std@@2HB DD 02H		; std::numeric_limits<signed char>::digits10
CONST	ENDS
;	COMDAT ?digits@?$numeric_limits@C@std@@2HB
CONST	SEGMENT
?digits@?$numeric_limits@C@std@@2HB DD 07H		; std::numeric_limits<signed char>::digits
CONST	ENDS
;	COMDAT ?is_signed@?$numeric_limits@C@std@@2_NB
CONST	SEGMENT
?is_signed@?$numeric_limits@C@std@@2_NB DB 01H		; std::numeric_limits<signed char>::is_signed
CONST	ENDS
;	COMDAT ?digits10@?$numeric_limits@_N@std@@2HB
CONST	SEGMENT
?digits10@?$numeric_limits@_N@std@@2HB DD 00H		; std::numeric_limits<bool>::digits10
CONST	ENDS
;	COMDAT ?digits@?$numeric_limits@_N@std@@2HB
CONST	SEGMENT
?digits@?$numeric_limits@_N@std@@2HB DD 01H		; std::numeric_limits<bool>::digits
CONST	ENDS
;	COMDAT ?is_signed@?$numeric_limits@_N@std@@2_NB
CONST	SEGMENT
?is_signed@?$numeric_limits@_N@std@@2_NB DB 00H		; std::numeric_limits<bool>::is_signed
CONST	ENDS
;	COMDAT ?is_modulo@?$numeric_limits@_N@std@@2_NB
CONST	SEGMENT
?is_modulo@?$numeric_limits@_N@std@@2_NB DB 00H		; std::numeric_limits<bool>::is_modulo
CONST	ENDS
;	COMDAT ?digits10@?$numeric_limits@_W@std@@2HB
CONST	SEGMENT
?digits10@?$numeric_limits@_W@std@@2HB DD 04H		; std::numeric_limits<wchar_t>::digits10
CONST	ENDS
;	COMDAT ?digits@?$numeric_limits@_W@std@@2HB
CONST	SEGMENT
?digits@?$numeric_limits@_W@std@@2HB DD 010H		; std::numeric_limits<wchar_t>::digits
CONST	ENDS
;	COMDAT ?is_signed@?$numeric_limits@_W@std@@2_NB
CONST	SEGMENT
?is_signed@?$numeric_limits@_W@std@@2_NB DB 00H		; std::numeric_limits<wchar_t>::is_signed
CONST	ENDS
;	COMDAT ?digits10@?$numeric_limits@D@std@@2HB
CONST	SEGMENT
?digits10@?$numeric_limits@D@std@@2HB DD 02H		; std::numeric_limits<char>::digits10
CONST	ENDS
;	COMDAT ?digits@?$numeric_limits@D@std@@2HB
CONST	SEGMENT
?digits@?$numeric_limits@D@std@@2HB DD 07H		; std::numeric_limits<char>::digits
CONST	ENDS
;	COMDAT ?is_signed@?$numeric_limits@D@std@@2_NB
CONST	SEGMENT
?is_signed@?$numeric_limits@D@std@@2_NB DB 01H		; std::numeric_limits<char>::is_signed
CONST	ENDS
;	COMDAT ?radix@_Num_float_base@std@@2HB
CONST	SEGMENT
?radix@_Num_float_base@std@@2HB DD 02H			; std::_Num_float_base::radix
CONST	ENDS
;	COMDAT ?round_style@_Num_float_base@std@@2W4float_round_style@2@B
CONST	SEGMENT
?round_style@_Num_float_base@std@@2W4float_round_style@2@B DD 01H ; std::_Num_float_base::round_style
CONST	ENDS
;	COMDAT ?traps@_Num_float_base@std@@2_NB
CONST	SEGMENT
?traps@_Num_float_base@std@@2_NB DB 00H			; std::_Num_float_base::traps
CONST	ENDS
;	COMDAT ?tinyness_before@_Num_float_base@std@@2_NB
CONST	SEGMENT
?tinyness_before@_Num_float_base@std@@2_NB DB 01H	; std::_Num_float_base::tinyness_before
CONST	ENDS
;	COMDAT ?is_specialized@_Num_float_base@std@@2_NB
CONST	SEGMENT
?is_specialized@_Num_float_base@std@@2_NB DB 01H	; std::_Num_float_base::is_specialized
CONST	ENDS
;	COMDAT ?is_signed@_Num_float_base@std@@2_NB
CONST	SEGMENT
?is_signed@_Num_float_base@std@@2_NB DB 01H		; std::_Num_float_base::is_signed
CONST	ENDS
;	COMDAT ?is_modulo@_Num_float_base@std@@2_NB
CONST	SEGMENT
?is_modulo@_Num_float_base@std@@2_NB DB 00H		; std::_Num_float_base::is_modulo
CONST	ENDS
;	COMDAT ?is_integer@_Num_float_base@std@@2_NB
CONST	SEGMENT
?is_integer@_Num_float_base@std@@2_NB DB 00H		; std::_Num_float_base::is_integer
CONST	ENDS
;	COMDAT ?is_iec559@_Num_float_base@std@@2_NB
CONST	SEGMENT
?is_iec559@_Num_float_base@std@@2_NB DB 01H		; std::_Num_float_base::is_iec559
CONST	ENDS
;	COMDAT ?is_exact@_Num_float_base@std@@2_NB
CONST	SEGMENT
?is_exact@_Num_float_base@std@@2_NB DB 00H		; std::_Num_float_base::is_exact
CONST	ENDS
;	COMDAT ?is_bounded@_Num_float_base@std@@2_NB
CONST	SEGMENT
?is_bounded@_Num_float_base@std@@2_NB DB 01H		; std::_Num_float_base::is_bounded
CONST	ENDS
;	COMDAT ?has_signaling_NaN@_Num_float_base@std@@2_NB
CONST	SEGMENT
?has_signaling_NaN@_Num_float_base@std@@2_NB DB 01H	; std::_Num_float_base::has_signaling_NaN
CONST	ENDS
;	COMDAT ?has_quiet_NaN@_Num_float_base@std@@2_NB
CONST	SEGMENT
?has_quiet_NaN@_Num_float_base@std@@2_NB DB 01H		; std::_Num_float_base::has_quiet_NaN
CONST	ENDS
;	COMDAT ?has_infinity@_Num_float_base@std@@2_NB
CONST	SEGMENT
?has_infinity@_Num_float_base@std@@2_NB DB 01H		; std::_Num_float_base::has_infinity
CONST	ENDS
;	COMDAT ?has_denorm_loss@_Num_float_base@std@@2_NB
CONST	SEGMENT
?has_denorm_loss@_Num_float_base@std@@2_NB DB 01H	; std::_Num_float_base::has_denorm_loss
CONST	ENDS
;	COMDAT ?has_denorm@_Num_float_base@std@@2W4float_denorm_style@2@B
CONST	SEGMENT
?has_denorm@_Num_float_base@std@@2W4float_denorm_style@2@B DD 01H ; std::_Num_float_base::has_denorm
CONST	ENDS
;	COMDAT ?radix@_Num_int_base@std@@2HB
CONST	SEGMENT
?radix@_Num_int_base@std@@2HB DD 02H			; std::_Num_int_base::radix
CONST	ENDS
;	COMDAT ?is_specialized@_Num_int_base@std@@2_NB
CONST	SEGMENT
?is_specialized@_Num_int_base@std@@2_NB DB 01H		; std::_Num_int_base::is_specialized
CONST	ENDS
;	COMDAT ?is_modulo@_Num_int_base@std@@2_NB
CONST	SEGMENT
?is_modulo@_Num_int_base@std@@2_NB DB 01H		; std::_Num_int_base::is_modulo
CONST	ENDS
;	COMDAT ?is_integer@_Num_int_base@std@@2_NB
CONST	SEGMENT
?is_integer@_Num_int_base@std@@2_NB DB 01H		; std::_Num_int_base::is_integer
CONST	ENDS
;	COMDAT ?is_exact@_Num_int_base@std@@2_NB
CONST	SEGMENT
?is_exact@_Num_int_base@std@@2_NB DB 01H		; std::_Num_int_base::is_exact
CONST	ENDS
;	COMDAT ?is_bounded@_Num_int_base@std@@2_NB
CONST	SEGMENT
?is_bounded@_Num_int_base@std@@2_NB DB 01H		; std::_Num_int_base::is_bounded
CONST	ENDS
;	COMDAT ?radix@_Num_base@std@@2HB
CONST	SEGMENT
?radix@_Num_base@std@@2HB DD 00H			; std::_Num_base::radix
CONST	ENDS
;	COMDAT ?min_exponent10@_Num_base@std@@2HB
CONST	SEGMENT
?min_exponent10@_Num_base@std@@2HB DD 00H		; std::_Num_base::min_exponent10
CONST	ENDS
;	COMDAT ?min_exponent@_Num_base@std@@2HB
CONST	SEGMENT
?min_exponent@_Num_base@std@@2HB DD 00H			; std::_Num_base::min_exponent
CONST	ENDS
;	COMDAT ?max_exponent10@_Num_base@std@@2HB
CONST	SEGMENT
?max_exponent10@_Num_base@std@@2HB DD 00H		; std::_Num_base::max_exponent10
CONST	ENDS
;	COMDAT ?max_exponent@_Num_base@std@@2HB
CONST	SEGMENT
?max_exponent@_Num_base@std@@2HB DD 00H			; std::_Num_base::max_exponent
CONST	ENDS
;	COMDAT ?max_digits10@_Num_base@std@@2HB
CONST	SEGMENT
?max_digits10@_Num_base@std@@2HB DD 00H			; std::_Num_base::max_digits10
CONST	ENDS
;	COMDAT ?digits10@_Num_base@std@@2HB
CONST	SEGMENT
?digits10@_Num_base@std@@2HB DD 00H			; std::_Num_base::digits10
CONST	ENDS
;	COMDAT ?digits@_Num_base@std@@2HB
CONST	SEGMENT
?digits@_Num_base@std@@2HB DD 00H			; std::_Num_base::digits
CONST	ENDS
;	COMDAT ?round_style@_Num_base@std@@2W4float_round_style@2@B
CONST	SEGMENT
?round_style@_Num_base@std@@2W4float_round_style@2@B DD 00H ; std::_Num_base::round_style
CONST	ENDS
;	COMDAT ?traps@_Num_base@std@@2_NB
CONST	SEGMENT
?traps@_Num_base@std@@2_NB DB 00H			; std::_Num_base::traps
CONST	ENDS
;	COMDAT ?tinyness_before@_Num_base@std@@2_NB
CONST	SEGMENT
?tinyness_before@_Num_base@std@@2_NB DB 00H		; std::_Num_base::tinyness_before
CONST	ENDS
;	COMDAT ?is_specialized@_Num_base@std@@2_NB
CONST	SEGMENT
?is_specialized@_Num_base@std@@2_NB DB 00H		; std::_Num_base::is_specialized
CONST	ENDS
;	COMDAT ?is_signed@_Num_base@std@@2_NB
CONST	SEGMENT
?is_signed@_Num_base@std@@2_NB DB 00H			; std::_Num_base::is_signed
CONST	ENDS
;	COMDAT ?is_modulo@_Num_base@std@@2_NB
CONST	SEGMENT
?is_modulo@_Num_base@std@@2_NB DB 00H			; std::_Num_base::is_modulo
CONST	ENDS
;	COMDAT ?is_integer@_Num_base@std@@2_NB
CONST	SEGMENT
?is_integer@_Num_base@std@@2_NB DB 00H			; std::_Num_base::is_integer
CONST	ENDS
;	COMDAT ?is_iec559@_Num_base@std@@2_NB
CONST	SEGMENT
?is_iec559@_Num_base@std@@2_NB DB 00H			; std::_Num_base::is_iec559
CONST	ENDS
;	COMDAT ?is_exact@_Num_base@std@@2_NB
CONST	SEGMENT
?is_exact@_Num_base@std@@2_NB DB 00H			; std::_Num_base::is_exact
CONST	ENDS
;	COMDAT ?is_bounded@_Num_base@std@@2_NB
CONST	SEGMENT
?is_bounded@_Num_base@std@@2_NB DB 00H			; std::_Num_base::is_bounded
CONST	ENDS
;	COMDAT ?has_signaling_NaN@_Num_base@std@@2_NB
CONST	SEGMENT
?has_signaling_NaN@_Num_base@std@@2_NB DB 00H		; std::_Num_base::has_signaling_NaN
CONST	ENDS
;	COMDAT ?has_quiet_NaN@_Num_base@std@@2_NB
CONST	SEGMENT
?has_quiet_NaN@_Num_base@std@@2_NB DB 00H		; std::_Num_base::has_quiet_NaN
CONST	ENDS
;	COMDAT ?has_infinity@_Num_base@std@@2_NB
CONST	SEGMENT
?has_infinity@_Num_base@std@@2_NB DB 00H		; std::_Num_base::has_infinity
CONST	ENDS
;	COMDAT ?has_denorm_loss@_Num_base@std@@2_NB
CONST	SEGMENT
?has_denorm_loss@_Num_base@std@@2_NB DB 00H		; std::_Num_base::has_denorm_loss
CONST	ENDS
;	COMDAT ?has_denorm@_Num_base@std@@2W4float_denorm_style@2@B
CONST	SEGMENT
?has_denorm@_Num_base@std@@2W4float_denorm_style@2@B DD 00H ; std::_Num_base::has_denorm
CONST	ENDS
;	COMDAT ?min_exponent10@?$numeric_limits@O@std@@2HB
CONST	SEGMENT
?min_exponent10@?$numeric_limits@O@std@@2HB DD 0fffffecdH ; std::numeric_limits<long double>::min_exponent10
CONST	ENDS
;	COMDAT ?min_exponent@?$numeric_limits@O@std@@2HB
CONST	SEGMENT
?min_exponent@?$numeric_limits@O@std@@2HB DD 0fffffc03H	; std::numeric_limits<long double>::min_exponent
CONST	ENDS
;	COMDAT ?max_exponent10@?$numeric_limits@O@std@@2HB
CONST	SEGMENT
?max_exponent10@?$numeric_limits@O@std@@2HB DD 0134H	; std::numeric_limits<long double>::max_exponent10
CONST	ENDS
;	COMDAT ?max_exponent@?$numeric_limits@O@std@@2HB
CONST	SEGMENT
?max_exponent@?$numeric_limits@O@std@@2HB DD 0400H	; std::numeric_limits<long double>::max_exponent
CONST	ENDS
;	COMDAT ?max_digits10@?$numeric_limits@O@std@@2HB
CONST	SEGMENT
?max_digits10@?$numeric_limits@O@std@@2HB DD 011H	; std::numeric_limits<long double>::max_digits10
CONST	ENDS
;	COMDAT ?digits10@?$numeric_limits@O@std@@2HB
CONST	SEGMENT
?digits10@?$numeric_limits@O@std@@2HB DD 0fH		; std::numeric_limits<long double>::digits10
CONST	ENDS
;	COMDAT ?digits@?$numeric_limits@O@std@@2HB
CONST	SEGMENT
?digits@?$numeric_limits@O@std@@2HB DD 035H		; std::numeric_limits<long double>::digits
CONST	ENDS
;	COMDAT ?min_exponent10@?$numeric_limits@N@std@@2HB
CONST	SEGMENT
?min_exponent10@?$numeric_limits@N@std@@2HB DD 0fffffecdH ; std::numeric_limits<double>::min_exponent10
CONST	ENDS
;	COMDAT ?min_exponent@?$numeric_limits@N@std@@2HB
CONST	SEGMENT
?min_exponent@?$numeric_limits@N@std@@2HB DD 0fffffc03H	; std::numeric_limits<double>::min_exponent
CONST	ENDS
;	COMDAT ?max_exponent10@?$numeric_limits@N@std@@2HB
CONST	SEGMENT
?max_exponent10@?$numeric_limits@N@std@@2HB DD 0134H	; std::numeric_limits<double>::max_exponent10
CONST	ENDS
;	COMDAT ?max_exponent@?$numeric_limits@N@std@@2HB
CONST	SEGMENT
?max_exponent@?$numeric_limits@N@std@@2HB DD 0400H	; std::numeric_limits<double>::max_exponent
CONST	ENDS
;	COMDAT ?max_digits10@?$numeric_limits@N@std@@2HB
CONST	SEGMENT
?max_digits10@?$numeric_limits@N@std@@2HB DD 011H	; std::numeric_limits<double>::max_digits10
CONST	ENDS
;	COMDAT ?digits10@?$numeric_limits@N@std@@2HB
CONST	SEGMENT
?digits10@?$numeric_limits@N@std@@2HB DD 0fH		; std::numeric_limits<double>::digits10
CONST	ENDS
;	COMDAT ?digits@?$numeric_limits@N@std@@2HB
CONST	SEGMENT
?digits@?$numeric_limits@N@std@@2HB DD 035H		; std::numeric_limits<double>::digits
CONST	ENDS
;	COMDAT ?min_exponent10@?$numeric_limits@M@std@@2HB
CONST	SEGMENT
?min_exponent10@?$numeric_limits@M@std@@2HB DD 0ffffffdbH ; std::numeric_limits<float>::min_exponent10
CONST	ENDS
;	COMDAT ?min_exponent@?$numeric_limits@M@std@@2HB
CONST	SEGMENT
?min_exponent@?$numeric_limits@M@std@@2HB DD 0ffffff83H	; std::numeric_limits<float>::min_exponent
CONST	ENDS
;	COMDAT ?max_exponent10@?$numeric_limits@M@std@@2HB
CONST	SEGMENT
?max_exponent10@?$numeric_limits@M@std@@2HB DD 026H	; std::numeric_limits<float>::max_exponent10
CONST	ENDS
;	COMDAT ?max_exponent@?$numeric_limits@M@std@@2HB
CONST	SEGMENT
?max_exponent@?$numeric_limits@M@std@@2HB DD 080H	; std::numeric_limits<float>::max_exponent
CONST	ENDS
;	COMDAT ?max_digits10@?$numeric_limits@M@std@@2HB
CONST	SEGMENT
?max_digits10@?$numeric_limits@M@std@@2HB DD 09H	; std::numeric_limits<float>::max_digits10
CONST	ENDS
;	COMDAT ?digits10@?$numeric_limits@M@std@@2HB
CONST	SEGMENT
?digits10@?$numeric_limits@M@std@@2HB DD 06H		; std::numeric_limits<float>::digits10
CONST	ENDS
;	COMDAT ?digits@?$numeric_limits@M@std@@2HB
CONST	SEGMENT
?digits@?$numeric_limits@M@std@@2HB DD 018H		; std::numeric_limits<float>::digits
CONST	ENDS
;	COMDAT ?digits10@?$numeric_limits@_K@std@@2HB
CONST	SEGMENT
?digits10@?$numeric_limits@_K@std@@2HB DD 013H		; std::numeric_limits<unsigned __int64>::digits10
CONST	ENDS
;	COMDAT ?digits@?$numeric_limits@_K@std@@2HB
CONST	SEGMENT
?digits@?$numeric_limits@_K@std@@2HB DD 040H		; std::numeric_limits<unsigned __int64>::digits
CONST	ENDS
;	COMDAT ?is_signed@?$numeric_limits@_K@std@@2_NB
CONST	SEGMENT
?is_signed@?$numeric_limits@_K@std@@2_NB DB 00H		; std::numeric_limits<unsigned __int64>::is_signed
CONST	ENDS
PUBLIC	?all@Features@Json@@SA?AV12@XZ			; Json::Features::all
PUBLIC	?strictMode@Features@Json@@SA?AV12@XZ		; Json::Features::strictMode
PUBLIC	??0Features@Json@@QAE@XZ			; Json::Features::Features
PUBLIC	_hypot
PUBLIC	??2@YAPAXIPAX@Z					; operator new
PUBLIC	??3@YAXPAX0@Z					; operator delete
PUBLIC	?length@?$char_traits@D@std@@SAIPBD@Z		; std::char_traits<char>::length
PUBLIC	?copy@?$char_traits@D@std@@SAPADPADPBDI@Z	; std::char_traits<char>::copy
PUBLIC	?move@?$char_traits@D@std@@SAPADPADPBDI@Z	; std::char_traits<char>::move
PUBLIC	?assign@?$char_traits@D@std@@SAPADPADID@Z	; std::char_traits<char>::assign
PUBLIC	?assign@?$char_traits@D@std@@SAXAADABD@Z	; std::char_traits<char>::assign
PUBLIC	?to_char_type@?$char_traits@D@std@@SADABH@Z	; std::char_traits<char>::to_char_type
PUBLIC	?to_int_type@?$char_traits@D@std@@SAHABD@Z	; std::char_traits<char>::to_int_type
PUBLIC	?eq_int_type@?$char_traits@D@std@@SA_NABH0@Z	; std::char_traits<char>::eq_int_type
PUBLIC	?eof@?$char_traits@D@std@@SAHXZ			; std::char_traits<char>::eof
PUBLIC	??0_Container_proxy@std@@QAE@XZ			; std::_Container_proxy::_Container_proxy
PUBLIC	??0_Iterator_base12@std@@QAE@XZ			; std::_Iterator_base12::_Iterator_base12
PUBLIC	??0_Iterator_base12@std@@QAE@ABU01@@Z		; std::_Iterator_base12::_Iterator_base12
PUBLIC	??4_Iterator_base12@std@@QAEAAU01@ABU01@@Z	; std::_Iterator_base12::operator=
PUBLIC	??1_Iterator_base12@std@@QAE@XZ			; std::_Iterator_base12::~_Iterator_base12
PUBLIC	?_Adopt@_Iterator_base12@std@@QAEXPBU_Container_base12@2@@Z ; std::_Iterator_base12::_Adopt
PUBLIC	?_Getcont@_Iterator_base12@std@@QBEPBU_Container_base12@2@XZ ; std::_Iterator_base12::_Getcont
PUBLIC	?select_on_container_copy_construction@?$allocator@D@std@@QBE?AV12@XZ ; std::allocator<char>::select_on_container_copy_construction
PUBLIC	??0?$allocator@D@std@@QAE@XZ			; std::allocator<char>::allocator<char>
PUBLIC	??0?$allocator@D@std@@QAE@ABV01@@Z		; std::allocator<char>::allocator<char>
PUBLIC	?deallocate@?$allocator@D@std@@QAEXPADI@Z	; std::allocator<char>::deallocate
PUBLIC	?allocate@?$allocator@D@std@@QAEPADI@Z		; std::allocator<char>::allocate
PUBLIC	?max_size@?$allocator@D@std@@QBEIXZ		; std::allocator<char>::max_size
PUBLIC	?max_size@?$allocator_traits@V?$allocator@D@std@@@std@@SAIABV?$allocator@D@2@@Z ; std::allocator_traits<std::allocator<char> >::max_size
PUBLIC	?select_on_container_copy_construction@?$allocator_traits@V?$allocator@D@std@@@std@@SA?AV?$allocator@D@2@ABV32@@Z ; std::allocator_traits<std::allocator<char> >::select_on_container_copy_construction
PUBLIC	?select_on_container_copy_construction@?$_Wrap_alloc@V?$allocator@D@std@@@std@@QBE?AU12@XZ ; std::_Wrap_alloc<std::allocator<char> >::select_on_container_copy_construction
PUBLIC	??0?$_Wrap_alloc@V?$allocator@D@std@@@std@@QAE@XZ ; std::_Wrap_alloc<std::allocator<char> >::_Wrap_alloc<std::allocator<char> >
PUBLIC	??0?$_Wrap_alloc@V?$allocator@D@std@@@std@@QAE@ABV?$allocator@D@1@@Z ; std::_Wrap_alloc<std::allocator<char> >::_Wrap_alloc<std::allocator<char> >
PUBLIC	?allocate@?$_Wrap_alloc@V?$allocator@D@std@@@std@@QAEPADI@Z ; std::_Wrap_alloc<std::allocator<char> >::allocate
PUBLIC	?deallocate@?$_Wrap_alloc@V?$allocator@D@std@@@std@@QAEXPADI@Z ; std::_Wrap_alloc<std::allocator<char> >::deallocate
PUBLIC	?max_size@?$_Wrap_alloc@V?$allocator@D@std@@@std@@QBEIXZ ; std::_Wrap_alloc<std::allocator<char> >::max_size
PUBLIC	??0?$_String_val@U?$_Simple_types@D@std@@@std@@QAE@XZ ; std::_String_val<std::_Simple_types<char> >::_String_val<std::_Simple_types<char> >
PUBLIC	?_Myptr@?$_String_val@U?$_Simple_types@D@std@@@std@@QAEPADXZ ; std::_String_val<std::_Simple_types<char> >::_Myptr
PUBLIC	?_Myptr@?$_String_val@U?$_Simple_types@D@std@@@std@@QBEPBDXZ ; std::_String_val<std::_Simple_types<char> >::_Myptr
PUBLIC	??0?$_String_alloc@$0A@U?$_String_base_types@DV?$allocator@D@std@@@std@@@std@@QAE@ABV?$allocator@D@1@@Z ; std::_String_alloc<0,std::_String_base_types<char,std::allocator<char> > >::_String_alloc<0,std::_String_base_types<char,std::allocator<char> > >
PUBLIC	?_Change_alloc@?$_String_alloc@$0A@U?$_String_base_types@DV?$allocator@D@std@@@std@@@std@@QAEXABU?$_Wrap_alloc@V?$allocator@D@std@@@2@@Z ; std::_String_alloc<0,std::_String_base_types<char,std::allocator<char> > >::_Change_alloc
PUBLIC	?_Getal@?$_String_alloc@$0A@U?$_String_base_types@DV?$allocator@D@std@@@std@@@std@@QBE?AU?$_Wrap_alloc@V?$allocator@D@std@@@2@XZ ; std::_String_alloc<0,std::_String_base_types<char,std::allocator<char> > >::_Getal
PUBLIC	??0?$basic_string@DU?$char_traits@D@std@@V?$allocator@D@2@@std@@QAE@ABV01@@Z ; std::basic_string<char,std::char_traits<char>,std::allocator<char> >::basic_string<char,std::char_traits<char>,std::allocator<char> >
PUBLIC	??0?$basic_string@DU?$char_traits@D@std@@V?$allocator@D@2@@std@@QAE@XZ ; std::basic_string<char,std::char_traits<char>,std::allocator<char> >::basic_string<char,std::char_traits<char>,std::allocator<char> >
PUBLIC	??0?$basic_string@DU?$char_traits@D@std@@V?$allocator@D@2@@std@@QAE@PBD@Z ; std::basic_string<char,std::char_traits<char>,std::allocator<char> >::basic_string<char,std::char_traits<char>,std::allocator<char> >
PUBLIC	??0?$basic_string@DU?$char_traits@D@std@@V?$allocator@D@2@@std@@QAE@PBD0@Z ; std::basic_string<char,std::char_traits<char>,std::allocator<char> >::basic_string<char,std::char_traits<char>,std::allocator<char> >
PUBLIC	??0?$basic_string@DU?$char_traits@D@std@@V?$allocator@D@2@@std@@QAE@$$QAV01@@Z ; std::basic_string<char,std::char_traits<char>,std::allocator<char> >::basic_string<char,std::char_traits<char>,std::allocator<char> >
PUBLIC	?_Assign_rv@?$basic_string@DU?$char_traits@D@std@@V?$allocator@D@2@@std@@QAEX$$QAV12@@Z ; std::basic_string<char,std::char_traits<char>,std::allocator<char> >::_Assign_rv
PUBLIC	??1?$basic_string@DU?$char_traits@D@std@@V?$allocator@D@2@@std@@QAE@XZ ; std::basic_string<char,std::char_traits<char>,std::allocator<char> >::~basic_string<char,std::char_traits<char>,std::allocator<char> >
PUBLIC	??4?$basic_string@DU?$char_traits@D@std@@V?$allocator@D@2@@std@@QAEAAV01@ABV01@@Z ; std::basic_string<char,std::char_traits<char>,std::allocator<char> >::operator=
PUBLIC	??4?$basic_string@DU?$char_traits@D@std@@V?$allocator@D@2@@std@@QAEAAV01@PBD@Z ; std::basic_string<char,std::char_traits<char>,std::allocator<char> >::operator=
PUBLIC	??Y?$basic_string@DU?$char_traits@D@std@@V?$allocator@D@2@@std@@QAEAAV01@ABV01@@Z ; std::basic_string<char,std::char_traits<char>,std::allocator<char> >::operator+=
PUBLIC	??Y?$basic_string@DU?$char_traits@D@std@@V?$allocator@D@2@@std@@QAEAAV01@PBD@Z ; std::basic_string<char,std::char_traits<char>,std::allocator<char> >::operator+=
PUBLIC	??Y?$basic_string@DU?$char_traits@D@std@@V?$allocator@D@2@@std@@QAEAAV01@D@Z ; std::basic_string<char,std::char_traits<char>,std::allocator<char> >::operator+=
PUBLIC	?append@?$basic_string@DU?$char_traits@D@std@@V?$allocator@D@2@@std@@QAEAAV12@ABV12@@Z ; std::basic_string<char,std::char_traits<char>,std::allocator<char> >::append
PUBLIC	?append@?$basic_string@DU?$char_traits@D@std@@V?$allocator@D@2@@std@@QAEAAV12@ABV12@II@Z ; std::basic_string<char,std::char_traits<char>,std::allocator<char> >::append
PUBLIC	?append@?$basic_string@DU?$char_traits@D@std@@V?$allocator@D@2@@std@@QAEAAV12@PBDI@Z ; std::basic_string<char,std::char_traits<char>,std::allocator<char> >::append
PUBLIC	?append@?$basic_string@DU?$char_traits@D@std@@V?$allocator@D@2@@std@@QAEAAV12@PBD@Z ; std::basic_string<char,std::char_traits<char>,std::allocator<char> >::append
PUBLIC	?append@?$basic_string@DU?$char_traits@D@std@@V?$allocator@D@2@@std@@QAEAAV12@ID@Z ; std::basic_string<char,std::char_traits<char>,std::allocator<char> >::append
PUBLIC	?assign@?$basic_string@DU?$char_traits@D@std@@V?$allocator@D@2@@std@@QAEAAV12@ABV12@@Z ; std::basic_string<char,std::char_traits<char>,std::allocator<char> >::assign
PUBLIC	?assign@?$basic_string@DU?$char_traits@D@std@@V?$allocator@D@2@@std@@QAEAAV12@ABV12@II@Z ; std::basic_string<char,std::char_traits<char>,std::allocator<char> >::assign
PUBLIC	?assign@?$basic_string@DU?$char_traits@D@std@@V?$allocator@D@2@@std@@QAEAAV12@PBDI@Z ; std::basic_string<char,std::char_traits<char>,std::allocator<char> >::assign
PUBLIC	?assign@?$basic_string@DU?$char_traits@D@std@@V?$allocator@D@2@@std@@QAEAAV12@PBD@Z ; std::basic_string<char,std::char_traits<char>,std::allocator<char> >::assign
PUBLIC	?insert@?$basic_string@DU?$char_traits@D@std@@V?$allocator@D@2@@std@@QAEAAV12@IABV12@II@Z ; std::basic_string<char,std::char_traits<char>,std::allocator<char> >::insert
PUBLIC	?insert@?$basic_string@DU?$char_traits@D@std@@V?$allocator@D@2@@std@@QAEAAV12@IPBDI@Z ; std::basic_string<char,std::char_traits<char>,std::allocator<char> >::insert
PUBLIC	?insert@?$basic_string@DU?$char_traits@D@std@@V?$allocator@D@2@@std@@QAEAAV12@IPBD@Z ; std::basic_string<char,std::char_traits<char>,std::allocator<char> >::insert
PUBLIC	?erase@?$basic_string@DU?$char_traits@D@std@@V?$allocator@D@2@@std@@QAEAAV12@I@Z ; std::basic_string<char,std::char_traits<char>,std::allocator<char> >::erase
PUBLIC	?erase@?$basic_string@DU?$char_traits@D@std@@V?$allocator@D@2@@std@@QAEAAV12@II@Z ; std::basic_string<char,std::char_traits<char>,std::allocator<char> >::erase
PUBLIC	??A?$basic_string@DU?$char_traits@D@std@@V?$allocator@D@2@@std@@QAEAADI@Z ; std::basic_string<char,std::char_traits<char>,std::allocator<char> >::operator[]
PUBLIC	?c_str@?$basic_string@DU?$char_traits@D@std@@V?$allocator@D@2@@std@@QBEPBDXZ ; std::basic_string<char,std::char_traits<char>,std::allocator<char> >::c_str
PUBLIC	?length@?$basic_string@DU?$char_traits@D@std@@V?$allocator@D@2@@std@@QBEIXZ ; std::basic_string<char,std::char_traits<char>,std::allocator<char> >::length
PUBLIC	?size@?$basic_string@DU?$char_traits@D@std@@V?$allocator@D@2@@std@@QBEIXZ ; std::basic_string<char,std::char_traits<char>,std::allocator<char> >::size
PUBLIC	?max_size@?$basic_string@DU?$char_traits@D@std@@V?$allocator@D@2@@std@@QBEIXZ ; std::basic_string<char,std::char_traits<char>,std::allocator<char> >::max_size
PUBLIC	?resize@?$basic_string@DU?$char_traits@D@std@@V?$allocator@D@2@@std@@QAEXI@Z ; std::basic_string<char,std::char_traits<char>,std::allocator<char> >::resize
PUBLIC	?resize@?$basic_string@DU?$char_traits@D@std@@V?$allocator@D@2@@std@@QAEXID@Z ; std::basic_string<char,std::char_traits<char>,std::allocator<char> >::resize
PUBLIC	?reserve@?$basic_string@DU?$char_traits@D@std@@V?$allocator@D@2@@std@@QAEXI@Z ; std::basic_string<char,std::char_traits<char>,std::allocator<char> >::reserve
PUBLIC	?empty@?$basic_string@DU?$char_traits@D@std@@V?$allocator@D@2@@std@@QBE_NXZ ; std::basic_string<char,std::char_traits<char>,std::allocator<char> >::empty
PUBLIC	?_Chassign@?$basic_string@DU?$char_traits@D@std@@V?$allocator@D@2@@std@@QAEXIID@Z ; std::basic_string<char,std::char_traits<char>,std::allocator<char> >::_Chassign
PUBLIC	?_Copy@?$basic_string@DU?$char_traits@D@std@@V?$allocator@D@2@@std@@QAEXII@Z ; std::basic_string<char,std::char_traits<char>,std::allocator<char> >::_Copy
PUBLIC	?_Eos@?$basic_string@DU?$char_traits@D@std@@V?$allocator@D@2@@std@@QAEXI@Z ; std::basic_string<char,std::char_traits<char>,std::allocator<char> >::_Eos
PUBLIC	?_Grow@?$basic_string@DU?$char_traits@D@std@@V?$allocator@D@2@@std@@QAE_NI_N@Z ; std::basic_string<char,std::char_traits<char>,std::allocator<char> >::_Grow
PUBLIC	?_Inside@?$basic_string@DU?$char_traits@D@std@@V?$allocator@D@2@@std@@QAE_NPBD@Z ; std::basic_string<char,std::char_traits<char>,std::allocator<char> >::_Inside
PUBLIC	?_Tidy@?$basic_string@DU?$char_traits@D@std@@V?$allocator@D@2@@std@@QAEX_NI@Z ; std::basic_string<char,std::char_traits<char>,std::allocator<char> >::_Tidy
PUBLIC	?_Xlen@?$basic_string@DU?$char_traits@D@std@@V?$allocator@D@2@@std@@QBEXXZ ; std::basic_string<char,std::char_traits<char>,std::allocator<char> >::_Xlen
PUBLIC	?_Xran@?$basic_string@DU?$char_traits@D@std@@V?$allocator@D@2@@std@@QBEXXZ ; std::basic_string<char,std::char_traits<char>,std::allocator<char> >::_Xran
PUBLIC	??0runtime_error@std@@QAE@ABV?$basic_string@DU?$char_traits@D@std@@V?$allocator@D@2@@1@@Z ; std::runtime_error::runtime_error
PUBLIC	??1runtime_error@std@@UAE@XZ			; std::runtime_error::~runtime_error
PUBLIC	??0runtime_error@std@@QAE@ABV01@@Z		; std::runtime_error::runtime_error
PUBLIC	??_Gruntime_error@std@@UAEPAXI@Z		; std::runtime_error::`scalar deleting destructor'
PUBLIC	?generic_category@std@@YAABVerror_category@1@XZ	; std::generic_category
PUBLIC	?system_category@std@@YAABVerror_category@1@XZ	; std::system_category
PUBLIC	??0error_category@std@@QAE@XZ			; std::error_category::error_category
PUBLIC	??1error_category@std@@UAE@XZ			; std::error_category::~error_category
PUBLIC	?default_error_condition@error_category@std@@UBE?AVerror_condition@2@H@Z ; std::error_category::default_error_condition
PUBLIC	?equivalent@error_category@std@@UBE_NHABVerror_condition@2@@Z ; std::error_category::equivalent
PUBLIC	?equivalent@error_category@std@@UBE_NABVerror_code@2@H@Z ; std::error_category::equivalent
PUBLIC	??8error_category@std@@QBE_NABV01@@Z		; std::error_category::operator==
PUBLIC	??_Gerror_category@std@@UAEPAXI@Z		; std::error_category::`scalar deleting destructor'
PUBLIC	?value@error_code@std@@QBEHXZ			; std::error_code::value
PUBLIC	?category@error_code@std@@QBEABVerror_category@2@XZ ; std::error_code::category
PUBLIC	??0error_condition@std@@QAE@HABVerror_category@1@@Z ; std::error_condition::error_condition
PUBLIC	?value@error_condition@std@@QBEHXZ		; std::error_condition::value
PUBLIC	?category@error_condition@std@@QBEABVerror_category@2@XZ ; std::error_condition::category
PUBLIC	??8error_condition@std@@QBE_NABV01@@Z		; std::error_condition::operator==
PUBLIC	??0_Generic_error_category@std@@QAE@XZ		; std::_Generic_error_category::_Generic_error_category
PUBLIC	?name@_Generic_error_category@std@@UBEPBDXZ	; std::_Generic_error_category::name
PUBLIC	?message@_Generic_error_category@std@@UBE?AV?$basic_string@DU?$char_traits@D@std@@V?$allocator@D@2@@2@H@Z ; std::_Generic_error_category::message
PUBLIC	??1_Generic_error_category@std@@UAE@XZ		; std::_Generic_error_category::~_Generic_error_category
PUBLIC	??_G_Generic_error_category@std@@UAEPAXI@Z	; std::_Generic_error_category::`scalar deleting destructor'
PUBLIC	??0_Iostream_error_category@std@@QAE@XZ		; std::_Iostream_error_category::_Iostream_error_category
PUBLIC	?name@_Iostream_error_category@std@@UBEPBDXZ	; std::_Iostream_error_category::name
PUBLIC	?message@_Iostream_error_category@std@@UBE?AV?$basic_string@DU?$char_traits@D@std@@V?$allocator@D@2@@2@H@Z ; std::_Iostream_error_category::message
PUBLIC	??1_Iostream_error_category@std@@UAE@XZ		; std::_Iostream_error_category::~_Iostream_error_category
PUBLIC	??_G_Iostream_error_category@std@@UAEPAXI@Z	; std::_Iostream_error_category::`scalar deleting destructor'
PUBLIC	??0_System_error_category@std@@QAE@XZ		; std::_System_error_category::_System_error_category
PUBLIC	?name@_System_error_category@std@@UBEPBDXZ	; std::_System_error_category::name
PUBLIC	?message@_System_error_category@std@@UBE?AV?$basic_string@DU?$char_traits@D@std@@V?$allocator@D@2@@2@H@Z ; std::_System_error_category::message
PUBLIC	?default_error_condition@_System_error_category@std@@UBE?AVerror_condition@2@H@Z ; std::_System_error_category::default_error_condition
PUBLIC	??1_System_error_category@std@@UAE@XZ		; std::_System_error_category::~_System_error_category
PUBLIC	??_G_System_error_category@std@@UAEPAXI@Z	; std::_System_error_category::`scalar deleting destructor'
PUBLIC	??0_Sentry_base@?$basic_istream@DU?$char_traits@D@std@@@std@@QAE@AAV12@@Z ; std::basic_istream<char,std::char_traits<char> >::_Sentry_base::_Sentry_base
PUBLIC	??1_Sentry_base@?$basic_istream@DU?$char_traits@D@std@@@std@@QAE@XZ ; std::basic_istream<char,std::char_traits<char> >::_Sentry_base::~_Sentry_base
PUBLIC	??0sentry@?$basic_istream@DU?$char_traits@D@std@@@std@@QAE@AAV12@_N@Z ; std::basic_istream<char,std::char_traits<char> >::sentry::sentry
PUBLIC	??Bsentry@?$basic_istream@DU?$char_traits@D@std@@@std@@QBE_NXZ ; std::basic_istream<char,std::char_traits<char> >::sentry::operator bool
PUBLIC	??1sentry@?$basic_istream@DU?$char_traits@D@std@@@std@@QAE@XZ ; std::basic_istream<char,std::char_traits<char> >::sentry::~sentry
PUBLIC	??0_Ignore@std@@QAE@XZ				; std::_Ignore::_Ignore
PUBLIC	??0Reader@Json@@QAE@XZ				; Json::Reader::Reader
PUBLIC	??0Reader@Json@@QAE@ABVFeatures@1@@Z		; Json::Reader::Reader
PUBLIC	?parse@Reader@Json@@QAE_NABV?$basic_string@DU?$char_traits@D@std@@V?$allocator@D@2@@std@@AAVValue@2@_N@Z ; Json::Reader::parse
PUBLIC	?parse@Reader@Json@@QAE_NPBD0AAVValue@2@_N@Z	; Json::Reader::parse
PUBLIC	?parse@Reader@Json@@QAE_NAAV?$basic_istream@DU?$char_traits@D@std@@@std@@AAVValue@2@_N@Z ; Json::Reader::parse
PUBLIC	?getFormatedErrorMessages@Reader@Json@@QBE?AV?$basic_string@DU?$char_traits@D@std@@V?$allocator@D@2@@std@@XZ ; Json::Reader::getFormatedErrorMessages
PUBLIC	??0ErrorInfo@Reader@Json@@QAE@XZ		; Json::Reader::ErrorInfo::ErrorInfo
PUBLIC	??1ErrorInfo@Reader@Json@@QAE@XZ		; Json::Reader::ErrorInfo::~ErrorInfo
PUBLIC	??0ErrorInfo@Reader@Json@@QAE@ABV012@@Z		; Json::Reader::ErrorInfo::ErrorInfo
PUBLIC	??_GErrorInfo@Reader@Json@@QAEPAXI@Z		; Json::Reader::ErrorInfo::`scalar deleting destructor'
PUBLIC	?expectToken@Reader@Json@@AAE_NW4TokenType@12@AAVToken@12@PBD@Z ; Json::Reader::expectToken
PUBLIC	?readToken@Reader@Json@@AAE_NAAVToken@12@@Z	; Json::Reader::readToken
PUBLIC	?skipSpaces@Reader@Json@@AAEXXZ			; Json::Reader::skipSpaces
PUBLIC	?match@Reader@Json@@AAE_NPBDH@Z			; Json::Reader::match
PUBLIC	?readComment@Reader@Json@@AAE_NXZ		; Json::Reader::readComment
PUBLIC	?readCStyleComment@Reader@Json@@AAE_NXZ		; Json::Reader::readCStyleComment
PUBLIC	?readCppStyleComment@Reader@Json@@AAE_NXZ	; Json::Reader::readCppStyleComment
PUBLIC	?readString@Reader@Json@@AAE_NXZ		; Json::Reader::readString
PUBLIC	?readNumber@Reader@Json@@AAEXXZ			; Json::Reader::readNumber
PUBLIC	?readValue@Reader@Json@@AAE_NXZ			; Json::Reader::readValue
PUBLIC	?readObject@Reader@Json@@AAE_NAAVToken@12@@Z	; Json::Reader::readObject
PUBLIC	?readArray@Reader@Json@@AAE_NAAVToken@12@@Z	; Json::Reader::readArray
PUBLIC	?decodeNumber@Reader@Json@@AAE_NAAVToken@12@@Z	; Json::Reader::decodeNumber
PUBLIC	?decodeString@Reader@Json@@AAE_NAAVToken@12@@Z	; Json::Reader::decodeString
PUBLIC	?decodeString@Reader@Json@@AAE_NAAVToken@12@AAV?$basic_string@DU?$char_traits@D@std@@V?$allocator@D@2@@std@@@Z ; Json::Reader::decodeString
PUBLIC	?decodeDouble@Reader@Json@@AAE_NAAVToken@12@@Z	; Json::Reader::decodeDouble
PUBLIC	?decodeUnicodeCodePoint@Reader@Json@@AAE_NAAVToken@12@AAPBDPBDAAI@Z ; Json::Reader::decodeUnicodeCodePoint
PUBLIC	?decodeUnicodeEscapeSequence@Reader@Json@@AAE_NAAVToken@12@AAPBDPBDAAI@Z ; Json::Reader::decodeUnicodeEscapeSequence
PUBLIC	?addError@Reader@Json@@AAE_NABV?$basic_string@DU?$char_traits@D@std@@V?$allocator@D@2@@std@@AAVToken@12@PBD@Z ; Json::Reader::addError
PUBLIC	?recoverFromError@Reader@Json@@AAE_NW4TokenType@12@@Z ; Json::Reader::recoverFromError
PUBLIC	?addErrorAndRecover@Reader@Json@@AAE_NABV?$basic_string@DU?$char_traits@D@std@@V?$allocator@D@2@@std@@AAVToken@12@W4TokenType@12@@Z ; Json::Reader::addErrorAndRecover
PUBLIC	?currentValue@Reader@Json@@AAEAAVValue@2@XZ	; Json::Reader::currentValue
PUBLIC	?getNextChar@Reader@Json@@AAEDXZ		; Json::Reader::getNextChar
PUBLIC	?getLocationLineAndColumn@Reader@Json@@ABEXPBDAAH1@Z ; Json::Reader::getLocationLineAndColumn
PUBLIC	?getLocationLineAndColumn@Reader@Json@@ABE?AV?$basic_string@DU?$char_traits@D@std@@V?$allocator@D@2@@std@@PBD@Z ; Json::Reader::getLocationLineAndColumn
PUBLIC	?addComment@Reader@Json@@AAEXPBD0W4CommentPlacement@2@@Z ; Json::Reader::addComment
PUBLIC	?skipCommentTokens@Reader@Json@@AAEXAAVToken@12@@Z ; Json::Reader::skipCommentTokens
PUBLIC	??0?$allocator@PAVValue@Json@@@std@@QAE@XZ	; std::allocator<Json::Value *>::allocator<Json::Value *>
PUBLIC	?deallocate@?$allocator@PAVValue@Json@@@std@@QAEXPAPAVValue@Json@@I@Z ; std::allocator<Json::Value *>::deallocate
PUBLIC	?allocate@?$allocator@PAVValue@Json@@@std@@QAEPAPAVValue@Json@@I@Z ; std::allocator<Json::Value *>::allocate
PUBLIC	?max_size@?$allocator@PAVValue@Json@@@std@@QBEIXZ ; std::allocator<Json::Value *>::max_size
PUBLIC	?max_size@?$allocator_traits@V?$allocator@PAVValue@Json@@@std@@@std@@SAIABV?$allocator@PAVValue@Json@@@2@@Z ; std::allocator_traits<std::allocator<Json::Value *> >::max_size
PUBLIC	??0?$_Wrap_alloc@V?$allocator@PAVValue@Json@@@std@@@std@@QAE@XZ ; std::_Wrap_alloc<std::allocator<Json::Value *> >::_Wrap_alloc<std::allocator<Json::Value *> >
PUBLIC	?allocate@?$_Wrap_alloc@V?$allocator@PAVValue@Json@@@std@@@std@@QAEPAPAVValue@Json@@I@Z ; std::_Wrap_alloc<std::allocator<Json::Value *> >::allocate
PUBLIC	?deallocate@?$_Wrap_alloc@V?$allocator@PAVValue@Json@@@std@@@std@@QAEXPAPAVValue@Json@@I@Z ; std::_Wrap_alloc<std::allocator<Json::Value *> >::deallocate
PUBLIC	?max_size@?$_Wrap_alloc@V?$allocator@PAVValue@Json@@@std@@@std@@QBEIXZ ; std::_Wrap_alloc<std::allocator<Json::Value *> >::max_size
PUBLIC	?deallocate@?$allocator@PAPAVValue@Json@@@std@@QAEXPAPAPAVValue@Json@@I@Z ; std::allocator<Json::Value * *>::deallocate
PUBLIC	?allocate@?$allocator@PAPAVValue@Json@@@std@@QAEPAPAPAVValue@Json@@I@Z ; std::allocator<Json::Value * *>::allocate
PUBLIC	?allocate@?$_Wrap_alloc@V?$allocator@PAPAVValue@Json@@@std@@@std@@QAEPAPAPAVValue@Json@@I@Z ; std::_Wrap_alloc<std::allocator<Json::Value * *> >::allocate
PUBLIC	?deallocate@?$_Wrap_alloc@V?$allocator@PAPAVValue@Json@@@std@@@std@@QAEXPAPAPAVValue@Json@@I@Z ; std::_Wrap_alloc<std::allocator<Json::Value * *> >::deallocate
PUBLIC	??0?$_Deque_val@U?$_Deque_simple_types@PAVValue@Json@@@std@@@std@@QAE@XZ ; std::_Deque_val<std::_Deque_simple_types<Json::Value *> >::_Deque_val<std::_Deque_simple_types<Json::Value *> >
PUBLIC	?_Getblock@?$_Deque_val@U?$_Deque_simple_types@PAVValue@Json@@@std@@@std@@QBEII@Z ; std::_Deque_val<std::_Deque_simple_types<Json::Value *> >::_Getblock
PUBLIC	??1?$_Deque_val@U?$_Deque_simple_types@PAVValue@Json@@@std@@@std@@QAE@XZ ; std::_Deque_val<std::_Deque_simple_types<Json::Value *> >::~_Deque_val<std::_Deque_simple_types<Json::Value *> >
PUBLIC	??0?$_Deque_alloc@$0A@U?$_Deque_base_types@PAVValue@Json@@V?$allocator@PAVValue@Json@@@std@@@std@@@std@@QAE@ABV?$allocator@PAVValue@Json@@@1@@Z ; std::_Deque_alloc<0,std::_Deque_base_types<Json::Value *,std::allocator<Json::Value *> > >::_Deque_alloc<0,std::_Deque_base_types<Json::Value *,std::allocator<Json::Value *> > >
PUBLIC	??1?$_Deque_alloc@$0A@U?$_Deque_base_types@PAVValue@Json@@V?$allocator@PAVValue@Json@@@std@@@std@@@std@@QAE@XZ ; std::_Deque_alloc<0,std::_Deque_base_types<Json::Value *,std::allocator<Json::Value *> > >::~_Deque_alloc<0,std::_Deque_base_types<Json::Value *,std::allocator<Json::Value *> > >
PUBLIC	?_Alloc_proxy@?$_Deque_alloc@$0A@U?$_Deque_base_types@PAVValue@Json@@V?$allocator@PAVValue@Json@@@std@@@std@@@std@@QAEXXZ ; std::_Deque_alloc<0,std::_Deque_base_types<Json::Value *,std::allocator<Json::Value *> > >::_Alloc_proxy
PUBLIC	?_Free_proxy@?$_Deque_alloc@$0A@U?$_Deque_base_types@PAVValue@Json@@V?$allocator@PAVValue@Json@@@std@@@std@@@std@@QAEXXZ ; std::_Deque_alloc<0,std::_Deque_base_types<Json::Value *,std::allocator<Json::Value *> > >::_Free_proxy
PUBLIC	?_Getal@?$_Deque_alloc@$0A@U?$_Deque_base_types@PAVValue@Json@@V?$allocator@PAVValue@Json@@@std@@@std@@@std@@QBE?AU?$_Wrap_alloc@V?$allocator@PAVValue@Json@@@std@@@2@XZ ; std::_Deque_alloc<0,std::_Deque_base_types<Json::Value *,std::allocator<Json::Value *> > >::_Getal
PUBLIC	??0?$deque@PAVValue@Json@@V?$allocator@PAVValue@Json@@@std@@@std@@QAE@XZ ; std::deque<Json::Value *,std::allocator<Json::Value *> >::deque<Json::Value *,std::allocator<Json::Value *> >
PUBLIC	?push_back@?$deque@PAVValue@Json@@V?$allocator@PAVValue@Json@@@std@@@std@@QAEX$$QAPAVValue@Json@@@Z ; std::deque<Json::Value *,std::allocator<Json::Value *> >::push_back
PUBLIC	??1?$deque@PAVValue@Json@@V?$allocator@PAVValue@Json@@@std@@@std@@QAE@XZ ; std::deque<Json::Value *,std::allocator<Json::Value *> >::~deque<Json::Value *,std::allocator<Json::Value *> >
PUBLIC	?end@?$deque@PAVValue@Json@@V?$allocator@PAVValue@Json@@@std@@@std@@QAE?AV?$_Deque_iterator@V?$_Deque_val@U?$_Deque_simple_types@PAVValue@Json@@@std@@@std@@@2@XZ ; std::deque<Json::Value *,std::allocator<Json::Value *> >::end
PUBLIC	?max_size@?$deque@PAVValue@Json@@V?$allocator@PAVValue@Json@@@std@@@std@@QBEIXZ ; std::deque<Json::Value *,std::allocator<Json::Value *> >::max_size
PUBLIC	?empty@?$deque@PAVValue@Json@@V?$allocator@PAVValue@Json@@@std@@@std@@QBE_NXZ ; std::deque<Json::Value *,std::allocator<Json::Value *> >::empty
PUBLIC	?back@?$deque@PAVValue@Json@@V?$allocator@PAVValue@Json@@@std@@@std@@QAEAAPAVValue@Json@@XZ ; std::deque<Json::Value *,std::allocator<Json::Value *> >::back
PUBLIC	?pop_back@?$deque@PAVValue@Json@@V?$allocator@PAVValue@Json@@@std@@@std@@QAEXXZ ; std::deque<Json::Value *,std::allocator<Json::Value *> >::pop_back
PUBLIC	?_Xlen@?$deque@PAVValue@Json@@V?$allocator@PAVValue@Json@@@std@@@std@@IBEXXZ ; std::deque<Json::Value *,std::allocator<Json::Value *> >::_Xlen
PUBLIC	?_Growmap@?$deque@PAVValue@Json@@V?$allocator@PAVValue@Json@@@std@@@std@@IAEXI@Z ; std::deque<Json::Value *,std::allocator<Json::Value *> >::_Growmap
PUBLIC	?_Tidy@?$deque@PAVValue@Json@@V?$allocator@PAVValue@Json@@@std@@@std@@IAEXXZ ; std::deque<Json::Value *,std::allocator<Json::Value *> >::_Tidy
PUBLIC	??0?$stack@PAVValue@Json@@V?$deque@PAVValue@Json@@V?$allocator@PAVValue@Json@@@std@@@std@@@std@@QAE@XZ ; std::stack<Json::Value *,std::deque<Json::Value *,std::allocator<Json::Value *> > >::stack<Json::Value *,std::deque<Json::Value *,std::allocator<Json::Value *> > >
PUBLIC	?push@?$stack@PAVValue@Json@@V?$deque@PAVValue@Json@@V?$allocator@PAVValue@Json@@@std@@@std@@@std@@QAEX$$QAPAVValue@Json@@@Z ; std::stack<Json::Value *,std::deque<Json::Value *,std::allocator<Json::Value *> > >::push
PUBLIC	?empty@?$stack@PAVValue@Json@@V?$deque@PAVValue@Json@@V?$allocator@PAVValue@Json@@@std@@@std@@@std@@QBE_NXZ ; std::stack<Json::Value *,std::deque<Json::Value *,std::allocator<Json::Value *> > >::empty
PUBLIC	?top@?$stack@PAVValue@Json@@V?$deque@PAVValue@Json@@V?$allocator@PAVValue@Json@@@std@@@std@@@std@@QAEAAPAVValue@Json@@XZ ; std::stack<Json::Value *,std::deque<Json::Value *,std::allocator<Json::Value *> > >::top
PUBLIC	?pop@?$stack@PAVValue@Json@@V?$deque@PAVValue@Json@@V?$allocator@PAVValue@Json@@@std@@@std@@@std@@QAEXXZ ; std::stack<Json::Value *,std::deque<Json::Value *,std::allocator<Json::Value *> > >::pop
PUBLIC	??1?$stack@PAVValue@Json@@V?$deque@PAVValue@Json@@V?$allocator@PAVValue@Json@@@std@@@std@@@std@@QAE@XZ ; std::stack<Json::Value *,std::deque<Json::Value *,std::allocator<Json::Value *> > >::~stack<Json::Value *,std::deque<Json::Value *,std::allocator<Json::Value *> > >
PUBLIC	??0?$allocator@VErrorInfo@Reader@Json@@@std@@QAE@XZ ; std::allocator<Json::Reader::ErrorInfo>::allocator<Json::Reader::ErrorInfo>
PUBLIC	?deallocate@?$allocator@VErrorInfo@Reader@Json@@@std@@QAEXPAVErrorInfo@Reader@Json@@I@Z ; std::allocator<Json::Reader::ErrorInfo>::deallocate
PUBLIC	?allocate@?$allocator@VErrorInfo@Reader@Json@@@std@@QAEPAVErrorInfo@Reader@Json@@I@Z ; std::allocator<Json::Reader::ErrorInfo>::allocate
PUBLIC	?construct@?$allocator@VErrorInfo@Reader@Json@@@std@@QAEXPAVErrorInfo@Reader@Json@@@Z ; std::allocator<Json::Reader::ErrorInfo>::construct
PUBLIC	?construct@?$allocator@VErrorInfo@Reader@Json@@@std@@QAEXPAVErrorInfo@Reader@Json@@ABV345@@Z ; std::allocator<Json::Reader::ErrorInfo>::construct
PUBLIC	?max_size@?$allocator@VErrorInfo@Reader@Json@@@std@@QBEIXZ ; std::allocator<Json::Reader::ErrorInfo>::max_size
PUBLIC	?max_size@?$allocator_traits@V?$allocator@VErrorInfo@Reader@Json@@@std@@@std@@SAIABV?$allocator@VErrorInfo@Reader@Json@@@2@@Z ; std::allocator_traits<std::allocator<Json::Reader::ErrorInfo> >::max_size
PUBLIC	??0?$_Wrap_alloc@V?$allocator@VErrorInfo@Reader@Json@@@std@@@std@@QAE@XZ ; std::_Wrap_alloc<std::allocator<Json::Reader::ErrorInfo> >::_Wrap_alloc<std::allocator<Json::Reader::ErrorInfo> >
PUBLIC	?allocate@?$_Wrap_alloc@V?$allocator@VErrorInfo@Reader@Json@@@std@@@std@@QAEPAVErrorInfo@Reader@Json@@I@Z ; std::_Wrap_alloc<std::allocator<Json::Reader::ErrorInfo> >::allocate
PUBLIC	?deallocate@?$_Wrap_alloc@V?$allocator@VErrorInfo@Reader@Json@@@std@@@std@@QAEXPAVErrorInfo@Reader@Json@@I@Z ; std::_Wrap_alloc<std::allocator<Json::Reader::ErrorInfo> >::deallocate
PUBLIC	?construct@?$_Wrap_alloc@V?$allocator@VErrorInfo@Reader@Json@@@std@@@std@@QAEXPAVErrorInfo@Reader@Json@@@Z ; std::_Wrap_alloc<std::allocator<Json::Reader::ErrorInfo> >::construct
PUBLIC	?max_size@?$_Wrap_alloc@V?$allocator@VErrorInfo@Reader@Json@@@std@@@std@@QBEIXZ ; std::_Wrap_alloc<std::allocator<Json::Reader::ErrorInfo> >::max_size
PUBLIC	?deallocate@?$allocator@PAVErrorInfo@Reader@Json@@@std@@QAEXPAPAVErrorInfo@Reader@Json@@I@Z ; std::allocator<Json::Reader::ErrorInfo *>::deallocate
PUBLIC	?allocate@?$allocator@PAVErrorInfo@Reader@Json@@@std@@QAEPAPAVErrorInfo@Reader@Json@@I@Z ; std::allocator<Json::Reader::ErrorInfo *>::allocate
PUBLIC	?allocate@?$_Wrap_alloc@V?$allocator@PAVErrorInfo@Reader@Json@@@std@@@std@@QAEPAPAVErrorInfo@Reader@Json@@I@Z ; std::_Wrap_alloc<std::allocator<Json::Reader::ErrorInfo *> >::allocate
PUBLIC	?deallocate@?$_Wrap_alloc@V?$allocator@PAVErrorInfo@Reader@Json@@@std@@@std@@QAEXPAPAVErrorInfo@Reader@Json@@I@Z ; std::_Wrap_alloc<std::allocator<Json::Reader::ErrorInfo *> >::deallocate
PUBLIC	??0?$_Deque_val@U?$_Deque_simple_types@VErrorInfo@Reader@Json@@@std@@@std@@QAE@XZ ; std::_Deque_val<std::_Deque_simple_types<Json::Reader::ErrorInfo> >::_Deque_val<std::_Deque_simple_types<Json::Reader::ErrorInfo> >
PUBLIC	?_Getblock@?$_Deque_val@U?$_Deque_simple_types@VErrorInfo@Reader@Json@@@std@@@std@@QBEII@Z ; std::_Deque_val<std::_Deque_simple_types<Json::Reader::ErrorInfo> >::_Getblock
PUBLIC	??1?$_Deque_val@U?$_Deque_simple_types@VErrorInfo@Reader@Json@@@std@@@std@@QAE@XZ ; std::_Deque_val<std::_Deque_simple_types<Json::Reader::ErrorInfo> >::~_Deque_val<std::_Deque_simple_types<Json::Reader::ErrorInfo> >
PUBLIC	??0?$_Deque_alloc@$0A@U?$_Deque_base_types@VErrorInfo@Reader@Json@@V?$allocator@VErrorInfo@Reader@Json@@@std@@@std@@@std@@QAE@ABV?$allocator@VErrorInfo@Reader@Json@@@1@@Z ; std::_Deque_alloc<0,std::_Deque_base_types<Json::Reader::ErrorInfo,std::allocator<Json::Reader::ErrorInfo> > >::_Deque_alloc<0,std::_Deque_base_types<Json::Reader::ErrorInfo,std::allocator<Json::Reader::ErrorInfo> > >
PUBLIC	??1?$_Deque_alloc@$0A@U?$_Deque_base_types@VErrorInfo@Reader@Json@@V?$allocator@VErrorInfo@Reader@Json@@@std@@@std@@@std@@QAE@XZ ; std::_Deque_alloc<0,std::_Deque_base_types<Json::Reader::ErrorInfo,std::allocator<Json::Reader::ErrorInfo> > >::~_Deque_alloc<0,std::_Deque_base_types<Json::Reader::ErrorInfo,std::allocator<Json::Reader::ErrorInfo> > >
PUBLIC	?_Alloc_proxy@?$_Deque_alloc@$0A@U?$_Deque_base_types@VErrorInfo@Reader@Json@@V?$allocator@VErrorInfo@Reader@Json@@@std@@@std@@@std@@QAEXXZ ; std::_Deque_alloc<0,std::_Deque_base_types<Json::Reader::ErrorInfo,std::allocator<Json::Reader::ErrorInfo> > >::_Alloc_proxy
PUBLIC	?_Free_proxy@?$_Deque_alloc@$0A@U?$_Deque_base_types@VErrorInfo@Reader@Json@@V?$allocator@VErrorInfo@Reader@Json@@@std@@@std@@@std@@QAEXXZ ; std::_Deque_alloc<0,std::_Deque_base_types<Json::Reader::ErrorInfo,std::allocator<Json::Reader::ErrorInfo> > >::_Free_proxy
PUBLIC	?_Getal@?$_Deque_alloc@$0A@U?$_Deque_base_types@VErrorInfo@Reader@Json@@V?$allocator@VErrorInfo@Reader@Json@@@std@@@std@@@std@@QBE?AU?$_Wrap_alloc@V?$allocator@VErrorInfo@Reader@Json@@@std@@@2@XZ ; std::_Deque_alloc<0,std::_Deque_base_types<Json::Reader::ErrorInfo,std::allocator<Json::Reader::ErrorInfo> > >::_Getal
PUBLIC	??0?$deque@VErrorInfo@Reader@Json@@V?$allocator@VErrorInfo@Reader@Json@@@std@@@std@@QAE@XZ ; std::deque<Json::Reader::ErrorInfo,std::allocator<Json::Reader::ErrorInfo> >::deque<Json::Reader::ErrorInfo,std::allocator<Json::Reader::ErrorInfo> >
PUBLIC	??1?$deque@VErrorInfo@Reader@Json@@V?$allocator@VErrorInfo@Reader@Json@@@std@@@std@@QAE@XZ ; std::deque<Json::Reader::ErrorInfo,std::allocator<Json::Reader::ErrorInfo> >::~deque<Json::Reader::ErrorInfo,std::allocator<Json::Reader::ErrorInfo> >
PUBLIC	?begin@?$deque@VErrorInfo@Reader@Json@@V?$allocator@VErrorInfo@Reader@Json@@@std@@@std@@QBE?AV?$_Deque_const_iterator@V?$_Deque_val@U?$_Deque_simple_types@VErrorInfo@Reader@Json@@@std@@@std@@@2@XZ ; std::deque<Json::Reader::ErrorInfo,std::allocator<Json::Reader::ErrorInfo> >::begin
PUBLIC	?end@?$deque@VErrorInfo@Reader@Json@@V?$allocator@VErrorInfo@Reader@Json@@@std@@@std@@QBE?AV?$_Deque_const_iterator@V?$_Deque_val@U?$_Deque_simple_types@VErrorInfo@Reader@Json@@@std@@@std@@@2@XZ ; std::deque<Json::Reader::ErrorInfo,std::allocator<Json::Reader::ErrorInfo> >::end
PUBLIC	?resize@?$deque@VErrorInfo@Reader@Json@@V?$allocator@VErrorInfo@Reader@Json@@@std@@@std@@QAEXI@Z ; std::deque<Json::Reader::ErrorInfo,std::allocator<Json::Reader::ErrorInfo> >::resize
PUBLIC	?size@?$deque@VErrorInfo@Reader@Json@@V?$allocator@VErrorInfo@Reader@Json@@@std@@@std@@QBEIXZ ; std::deque<Json::Reader::ErrorInfo,std::allocator<Json::Reader::ErrorInfo> >::size
PUBLIC	?max_size@?$deque@VErrorInfo@Reader@Json@@V?$allocator@VErrorInfo@Reader@Json@@@std@@@std@@QBEIXZ ; std::deque<Json::Reader::ErrorInfo,std::allocator<Json::Reader::ErrorInfo> >::max_size
PUBLIC	?empty@?$deque@VErrorInfo@Reader@Json@@V?$allocator@VErrorInfo@Reader@Json@@@std@@@std@@QBE_NXZ ; std::deque<Json::Reader::ErrorInfo,std::allocator<Json::Reader::ErrorInfo> >::empty
PUBLIC	?push_back@?$deque@VErrorInfo@Reader@Json@@V?$allocator@VErrorInfo@Reader@Json@@@std@@@std@@QAEXABVErrorInfo@Reader@Json@@@Z ; std::deque<Json::Reader::ErrorInfo,std::allocator<Json::Reader::ErrorInfo> >::push_back
PUBLIC	?pop_back@?$deque@VErrorInfo@Reader@Json@@V?$allocator@VErrorInfo@Reader@Json@@@std@@@std@@QAEXXZ ; std::deque<Json::Reader::ErrorInfo,std::allocator<Json::Reader::ErrorInfo> >::pop_back
PUBLIC	?clear@?$deque@VErrorInfo@Reader@Json@@V?$allocator@VErrorInfo@Reader@Json@@@std@@@std@@QAEXXZ ; std::deque<Json::Reader::ErrorInfo,std::allocator<Json::Reader::ErrorInfo> >::clear
PUBLIC	?_Xlen@?$deque@VErrorInfo@Reader@Json@@V?$allocator@VErrorInfo@Reader@Json@@@std@@@std@@IBEXXZ ; std::deque<Json::Reader::ErrorInfo,std::allocator<Json::Reader::ErrorInfo> >::_Xlen
PUBLIC	?_Growmap@?$deque@VErrorInfo@Reader@Json@@V?$allocator@VErrorInfo@Reader@Json@@@std@@@std@@IAEXI@Z ; std::deque<Json::Reader::ErrorInfo,std::allocator<Json::Reader::ErrorInfo> >::_Growmap
PUBLIC	?_Tidy@?$deque@VErrorInfo@Reader@Json@@V?$allocator@VErrorInfo@Reader@Json@@@std@@@std@@IAEXXZ ; std::deque<Json::Reader::ErrorInfo,std::allocator<Json::Reader::ErrorInfo> >::_Tidy
PUBLIC	??1Reader@Json@@QAE@XZ				; Json::Reader::~Reader
PUBLIC	??5Json@@YAAAV?$basic_istream@DU?$char_traits@D@std@@@std@@AAV12@AAVValue@0@@Z ; Json::operator>>
PUBLIC	??$getline@DU?$char_traits@D@std@@V?$allocator@D@2@@std@@YAAAV?$basic_istream@DU?$char_traits@D@std@@@0@AAV10@AAV?$basic_string@DU?$char_traits@D@std@@V?$allocator@D@2@@0@D@Z ; std::getline<char,std::char_traits<char>,std::allocator<char> >
PUBLIC	??$getline@DU?$char_traits@D@std@@V?$allocator@D@2@@std@@YAAAV?$basic_istream@DU?$char_traits@D@std@@@0@$$QAV10@AAV?$basic_string@DU?$char_traits@D@std@@V?$allocator@D@2@@0@D@Z ; std::getline<char,std::char_traits<char>,std::allocator<char> >
PUBLIC	??$?HDU?$char_traits@D@std@@V?$allocator@D@1@@std@@YA?AV?$basic_string@DU?$char_traits@D@std@@V?$allocator@D@2@@0@PBDABV10@@Z ; std::operator+<char,std::char_traits<char>,std::allocator<char> >
PUBLIC	??$?HDU?$char_traits@D@std@@V?$allocator@D@1@@std@@YA?AV?$basic_string@DU?$char_traits@D@std@@V?$allocator@D@2@@0@PBD$$QAV10@@Z ; std::operator+<char,std::char_traits<char>,std::allocator<char> >
PUBLIC	??$?HDU?$char_traits@D@std@@V?$allocator@D@1@@std@@YA?AV?$basic_string@DU?$char_traits@D@std@@V?$allocator@D@2@@0@$$QAV10@PBD@Z ; std::operator+<char,std::char_traits<char>,std::allocator<char> >
PUBLIC	??0?$_Deque_const_iterator@V?$_Deque_val@U?$_Deque_simple_types@VErrorInfo@Reader@Json@@@std@@@std@@@std@@QAE@IPBU_Container_base12@1@@Z ; std::_Deque_const_iterator<std::_Deque_val<std::_Deque_simple_types<Json::Reader::ErrorInfo> > >::_Deque_const_iterator<std::_Deque_val<std::_Deque_simple_types<Json::Reader::ErrorInfo> > >
PUBLIC	??D?$_Deque_const_iterator@V?$_Deque_val@U?$_Deque_simple_types@VErrorInfo@Reader@Json@@@std@@@std@@@std@@QBEABVErrorInfo@Reader@Json@@XZ ; std::_Deque_const_iterator<std::_Deque_val<std::_Deque_simple_types<Json::Reader::ErrorInfo> > >::operator*
PUBLIC	??E?$_Deque_const_iterator@V?$_Deque_val@U?$_Deque_simple_types@VErrorInfo@Reader@Json@@@std@@@std@@@std@@QAEAAV01@XZ ; std::_Deque_const_iterator<std::_Deque_val<std::_Deque_simple_types<Json::Reader::ErrorInfo> > >::operator++
PUBLIC	??8?$_Deque_const_iterator@V?$_Deque_val@U?$_Deque_simple_types@VErrorInfo@Reader@Json@@@std@@@std@@@std@@QBE_NABV01@@Z ; std::_Deque_const_iterator<std::_Deque_val<std::_Deque_simple_types<Json::Reader::ErrorInfo> > >::operator==
PUBLIC	??9?$_Deque_const_iterator@V?$_Deque_val@U?$_Deque_simple_types@VErrorInfo@Reader@Json@@@std@@@std@@@std@@QBE_NABV01@@Z ; std::_Deque_const_iterator<std::_Deque_val<std::_Deque_simple_types<Json::Reader::ErrorInfo> > >::operator!=
PUBLIC	?_Compat@?$_Deque_const_iterator@V?$_Deque_val@U?$_Deque_simple_types@VErrorInfo@Reader@Json@@@std@@@std@@@std@@QBEXABV12@@Z ; std::_Deque_const_iterator<std::_Deque_val<std::_Deque_simple_types<Json::Reader::ErrorInfo> > >::_Compat
PUBLIC	?_Setcont@?$_Deque_const_iterator@V?$_Deque_val@U?$_Deque_simple_types@VErrorInfo@Reader@Json@@@std@@@std@@@std@@QAEXPBV?$_Deque_val@U?$_Deque_simple_types@VErrorInfo@Reader@Json@@@std@@@2@@Z ; std::_Deque_const_iterator<std::_Deque_val<std::_Deque_simple_types<Json::Reader::ErrorInfo> > >::_Setcont
PUBLIC	??1?$_Deque_const_iterator@V?$_Deque_val@U?$_Deque_simple_types@VErrorInfo@Reader@Json@@@std@@@std@@@std@@QAE@XZ ; std::_Deque_const_iterator<std::_Deque_val<std::_Deque_simple_types<Json::Reader::ErrorInfo> > >::~_Deque_const_iterator<std::_Deque_val<std::_Deque_simple_types<Json::Reader::ErrorInfo> > >
PUBLIC	??$forward@V?$basic_string@DU?$char_traits@D@std@@V?$allocator@D@2@@std@@@std@@YA$$QAV?$basic_string@DU?$char_traits@D@std@@V?$allocator@D@2@@0@AAV10@@Z ; std::forward<std::basic_string<char,std::char_traits<char>,std::allocator<char> > >
PUBLIC	??$?9V?$allocator@D@std@@V01@@std@@YA_NABU?$_Wrap_alloc@V?$allocator@D@std@@@0@0@Z ; std::operator!=<std::allocator<char>,std::allocator<char> >
PUBLIC	??$move@AAPAVValue@Json@@@std@@YA$$QAPAVValue@Json@@AAPAV12@@Z ; std::move<Json::Value * &>
PUBLIC	??$emplace_back@$$$V@?$deque@VErrorInfo@Reader@Json@@V?$allocator@VErrorInfo@Reader@Json@@@std@@@std@@QAEXXZ ; std::deque<Json::Reader::ErrorInfo,std::allocator<Json::Reader::ErrorInfo> >::emplace_back<>
PUBLIC	??$construct@VErrorInfo@Reader@Json@@ABV123@@?$_Wrap_alloc@V?$allocator@VErrorInfo@Reader@Json@@@std@@@std@@QAEXPAVErrorInfo@Reader@Json@@ABV234@@Z ; std::_Wrap_alloc<std::allocator<Json::Reader::ErrorInfo> >::construct<Json::Reader::ErrorInfo,Json::Reader::ErrorInfo const &>
PUBLIC	??$construct@PADAAPAD@?$_Wrap_alloc@V?$allocator@D@std@@@std@@QAEXPAPADAAPAD@Z ; std::_Wrap_alloc<std::allocator<char> >::construct<char *,char * &>
PUBLIC	??$destroy@PAD@?$_Wrap_alloc@V?$allocator@D@std@@@std@@QAEXPAPAD@Z ; std::_Wrap_alloc<std::allocator<char> >::destroy<char *>
PUBLIC	??$addressof@D@std@@YAPADAAD@Z			; std::addressof<char>
PUBLIC	??$forward@PAVValue@Json@@@std@@YA$$QAPAVValue@Json@@AAPAV12@@Z ; std::forward<Json::Value *>
PUBLIC	??$construct@PAVValue@Json@@PAV12@@?$_Wrap_alloc@V?$allocator@PAVValue@Json@@@std@@@std@@QAEXPAPAVValue@Json@@$$QAPAV23@@Z ; std::_Wrap_alloc<std::allocator<Json::Value *> >::construct<Json::Value *,Json::Value *>
PUBLIC	??0?$_Deque_const_iterator@V?$_Deque_val@U?$_Deque_simple_types@PAVValue@Json@@@std@@@std@@@std@@QAE@IPBU_Container_base12@1@@Z ; std::_Deque_const_iterator<std::_Deque_val<std::_Deque_simple_types<Json::Value *> > >::_Deque_const_iterator<std::_Deque_val<std::_Deque_simple_types<Json::Value *> > >
PUBLIC	??D?$_Deque_const_iterator@V?$_Deque_val@U?$_Deque_simple_types@PAVValue@Json@@@std@@@std@@@std@@QBEABQAVValue@Json@@XZ ; std::_Deque_const_iterator<std::_Deque_val<std::_Deque_simple_types<Json::Value *> > >::operator*
PUBLIC	?_Setcont@?$_Deque_const_iterator@V?$_Deque_val@U?$_Deque_simple_types@PAVValue@Json@@@std@@@std@@@std@@QAEXPBV?$_Deque_val@U?$_Deque_simple_types@PAVValue@Json@@@std@@@2@@Z ; std::_Deque_const_iterator<std::_Deque_val<std::_Deque_simple_types<Json::Value *> > >::_Setcont
PUBLIC	??1?$_Deque_const_iterator@V?$_Deque_val@U?$_Deque_simple_types@PAVValue@Json@@@std@@@std@@@std@@QAE@XZ ; std::_Deque_const_iterator<std::_Deque_val<std::_Deque_simple_types<Json::Value *> > >::~_Deque_const_iterator<std::_Deque_val<std::_Deque_simple_types<Json::Value *> > >
PUBLIC	??0?$_Deque_const_iterator@V?$_Deque_val@U?$_Deque_simple_types@PAVValue@Json@@@std@@@std@@@std@@QAE@ABV01@@Z ; std::_Deque_const_iterator<std::_Deque_val<std::_Deque_simple_types<Json::Value *> > >::_Deque_const_iterator<std::_Deque_val<std::_Deque_simple_types<Json::Value *> > >
PUBLIC	??0?$_Deque_iterator@V?$_Deque_val@U?$_Deque_simple_types@PAVValue@Json@@@std@@@std@@@std@@QAE@IPBU_Container_base12@1@@Z ; std::_Deque_iterator<std::_Deque_val<std::_Deque_simple_types<Json::Value *> > >::_Deque_iterator<std::_Deque_val<std::_Deque_simple_types<Json::Value *> > >
PUBLIC	??D?$_Deque_iterator@V?$_Deque_val@U?$_Deque_simple_types@PAVValue@Json@@@std@@@std@@@std@@QBEAAPAVValue@Json@@XZ ; std::_Deque_iterator<std::_Deque_val<std::_Deque_simple_types<Json::Value *> > >::operator*
PUBLIC	??Y?$_Deque_iterator@V?$_Deque_val@U?$_Deque_simple_types@PAVValue@Json@@@std@@@std@@@std@@QAEAAV01@H@Z ; std::_Deque_iterator<std::_Deque_val<std::_Deque_simple_types<Json::Value *> > >::operator+=
PUBLIC	??Z?$_Deque_iterator@V?$_Deque_val@U?$_Deque_simple_types@PAVValue@Json@@@std@@@std@@@std@@QAEAAV01@H@Z ; std::_Deque_iterator<std::_Deque_val<std::_Deque_simple_types<Json::Value *> > >::operator-=
PUBLIC	??G?$_Deque_iterator@V?$_Deque_val@U?$_Deque_simple_types@PAVValue@Json@@@std@@@std@@@std@@QBE?AV01@H@Z ; std::_Deque_iterator<std::_Deque_val<std::_Deque_simple_types<Json::Value *> > >::operator-
PUBLIC	??1?$_Deque_iterator@V?$_Deque_val@U?$_Deque_simple_types@PAVValue@Json@@@std@@@std@@@std@@QAE@XZ ; std::_Deque_iterator<std::_Deque_val<std::_Deque_simple_types<Json::Value *> > >::~_Deque_iterator<std::_Deque_val<std::_Deque_simple_types<Json::Value *> > >
PUBLIC	??0?$_Deque_iterator@V?$_Deque_val@U?$_Deque_simple_types@PAVValue@Json@@@std@@@std@@@std@@QAE@ABV01@@Z ; std::_Deque_iterator<std::_Deque_val<std::_Deque_simple_types<Json::Value *> > >::_Deque_iterator<std::_Deque_val<std::_Deque_simple_types<Json::Value *> > >
PUBLIC	??$destroy@PAVValue@Json@@@?$_Wrap_alloc@V?$allocator@PAVValue@Json@@@std@@@std@@QAEXPAPAVValue@Json@@@Z ; std::_Wrap_alloc<std::allocator<Json::Value *> >::destroy<Json::Value *>
PUBLIC	??$?0U?$_Wrap_alloc@V?$allocator@PAVValue@Json@@@std@@@std@@@?$_Wrap_alloc@V?$allocator@PAPAVValue@Json@@@std@@@std@@QAE@ABU?$_Wrap_alloc@V?$allocator@PAVValue@Json@@@std@@@1@@Z ; std::_Wrap_alloc<std::allocator<Json::Value * *> >::_Wrap_alloc<std::allocator<Json::Value * *> ><std::_Wrap_alloc<std::allocator<Json::Value *> > >
PUBLIC	??$?0PAVValue@Json@@@?$allocator@PAPAVValue@Json@@@std@@QAE@ABV?$allocator@PAVValue@Json@@@1@@Z ; std::allocator<Json::Value * *>::allocator<Json::Value * *><Json::Value *>
PUBLIC	??$destroy@PAPAVValue@Json@@@?$_Wrap_alloc@V?$allocator@PAVValue@Json@@@std@@@std@@QAEXPAPAPAVValue@Json@@@Z ; std::_Wrap_alloc<std::allocator<Json::Value *> >::destroy<Json::Value * *>
PUBLIC	??$destroy@VErrorInfo@Reader@Json@@@?$_Wrap_alloc@V?$allocator@VErrorInfo@Reader@Json@@@std@@@std@@QAEXPAVErrorInfo@Reader@Json@@@Z ; std::_Wrap_alloc<std::allocator<Json::Reader::ErrorInfo> >::destroy<Json::Reader::ErrorInfo>
PUBLIC	??$?0U?$_Wrap_alloc@V?$allocator@VErrorInfo@Reader@Json@@@std@@@std@@@?$_Wrap_alloc@V?$allocator@PAVErrorInfo@Reader@Json@@@std@@@std@@QAE@ABU?$_Wrap_alloc@V?$allocator@VErrorInfo@Reader@Json@@@std@@@1@@Z ; std::_Wrap_alloc<std::allocator<Json::Reader::ErrorInfo *> >::_Wrap_alloc<std::allocator<Json::Reader::ErrorInfo *> ><std::_Wrap_alloc<std::allocator<Json::Reader::ErrorInfo> > >
PUBLIC	??$?0VErrorInfo@Reader@Json@@@?$allocator@PAVErrorInfo@Reader@Json@@@std@@QAE@ABV?$allocator@VErrorInfo@Reader@Json@@@1@@Z ; std::allocator<Json::Reader::ErrorInfo *>::allocator<Json::Reader::ErrorInfo *><Json::Reader::ErrorInfo>
PUBLIC	??$_Uninitialized_copy@PAPAVErrorInfo@Reader@Json@@PAPAV123@U?$_Wrap_alloc@V?$allocator@PAVErrorInfo@Reader@Json@@@std@@@std@@@std@@YAPAPAVErrorInfo@Reader@Json@@PAPAV123@00AAU?$_Wrap_alloc@V?$allocator@PAVErrorInfo@Reader@Json@@@std@@@0@@Z ; std::_Uninitialized_copy<Json::Reader::ErrorInfo * *,Json::Reader::ErrorInfo * *,std::_Wrap_alloc<std::allocator<Json::Reader::ErrorInfo *> > >
PUBLIC	??$_Uninitialized_default_fill_n@PAPAVErrorInfo@Reader@Json@@IU?$_Wrap_alloc@V?$allocator@PAVErrorInfo@Reader@Json@@@std@@@std@@@std@@YAXPAPAVErrorInfo@Reader@Json@@IAAU?$_Wrap_alloc@V?$allocator@PAVErrorInfo@Reader@Json@@@std@@@0@@Z ; std::_Uninitialized_default_fill_n<Json::Reader::ErrorInfo * *,unsigned int,std::_Wrap_alloc<std::allocator<Json::Reader::ErrorInfo *> > >
PUBLIC	??$_Destroy_range@U?$_Wrap_alloc@V?$allocator@PAVErrorInfo@Reader@Json@@@std@@@std@@@std@@YAXPAPAVErrorInfo@Reader@Json@@0AAU?$_Wrap_alloc@V?$allocator@PAVErrorInfo@Reader@Json@@@std@@@0@@Z ; std::_Destroy_range<std::_Wrap_alloc<std::allocator<Json::Reader::ErrorInfo *> > >
PUBLIC	??$destroy@PAVErrorInfo@Reader@Json@@@?$_Wrap_alloc@V?$allocator@VErrorInfo@Reader@Json@@@std@@@std@@QAEXPAPAVErrorInfo@Reader@Json@@@Z ; std::_Wrap_alloc<std::allocator<Json::Reader::ErrorInfo> >::destroy<Json::Reader::ErrorInfo *>
PUBLIC	??$_Uninitialized_copy@PAPAPAVValue@Json@@PAPAPAV12@U?$_Wrap_alloc@V?$allocator@PAPAVValue@Json@@@std@@@std@@@std@@YAPAPAPAVValue@Json@@PAPAPAV12@00AAU?$_Wrap_alloc@V?$allocator@PAPAVValue@Json@@@std@@@0@@Z ; std::_Uninitialized_copy<Json::Value * * *,Json::Value * * *,std::_Wrap_alloc<std::allocator<Json::Value * *> > >
PUBLIC	??$_Uninitialized_default_fill_n@PAPAPAVValue@Json@@IU?$_Wrap_alloc@V?$allocator@PAPAVValue@Json@@@std@@@std@@@std@@YAXPAPAPAVValue@Json@@IAAU?$_Wrap_alloc@V?$allocator@PAPAVValue@Json@@@std@@@0@@Z ; std::_Uninitialized_default_fill_n<Json::Value * * *,unsigned int,std::_Wrap_alloc<std::allocator<Json::Value * *> > >
PUBLIC	??$_Destroy_range@U?$_Wrap_alloc@V?$allocator@PAPAVValue@Json@@@std@@@std@@@std@@YAXPAPAPAVValue@Json@@0AAU?$_Wrap_alloc@V?$allocator@PAPAVValue@Json@@@std@@@0@@Z ; std::_Destroy_range<std::_Wrap_alloc<std::allocator<Json::Value * *> > >
PUBLIC	??0?$allocator@U_Container_proxy@std@@@std@@QAE@XZ ; std::allocator<std::_Container_proxy>::allocator<std::_Container_proxy>
PUBLIC	?deallocate@?$allocator@U_Container_proxy@std@@@std@@QAEXPAU_Container_proxy@2@I@Z ; std::allocator<std::_Container_proxy>::deallocate
PUBLIC	?allocate@?$allocator@U_Container_proxy@std@@@std@@QAEPAU_Container_proxy@2@I@Z ; std::allocator<std::_Container_proxy>::allocate
PUBLIC	??0?$_Wrap_alloc@V?$allocator@U_Container_proxy@std@@@std@@@std@@QAE@XZ ; std::_Wrap_alloc<std::allocator<std::_Container_proxy> >::_Wrap_alloc<std::allocator<std::_Container_proxy> >
PUBLIC	?allocate@?$_Wrap_alloc@V?$allocator@U_Container_proxy@std@@@std@@@std@@QAEPAU_Container_proxy@2@I@Z ; std::_Wrap_alloc<std::allocator<std::_Container_proxy> >::allocate
PUBLIC	?deallocate@?$_Wrap_alloc@V?$allocator@U_Container_proxy@std@@@std@@@std@@QAEXPAU_Container_proxy@2@I@Z ; std::_Wrap_alloc<std::allocator<std::_Container_proxy> >::deallocate
PUBLIC	??$destroy@U_Container_proxy@std@@@?$_Wrap_alloc@V?$allocator@U_Container_proxy@std@@@std@@@std@@QAEXPAU_Container_proxy@1@@Z ; std::_Wrap_alloc<std::allocator<std::_Container_proxy> >::destroy<std::_Container_proxy>
PUBLIC	??$_Allocate@VErrorInfo@Reader@Json@@@std@@YAPAVErrorInfo@Reader@Json@@IPAV123@@Z ; std::_Allocate<Json::Reader::ErrorInfo>
PUBLIC	??$construct@U_Container_proxy@std@@U12@@?$_Wrap_alloc@V?$allocator@U_Container_proxy@std@@@std@@@std@@QAEXPAU_Container_proxy@1@$$QAU21@@Z ; std::_Wrap_alloc<std::allocator<std::_Container_proxy> >::construct<std::_Container_proxy,std::_Container_proxy>
PUBLIC	??$_Allocate@PAVValue@Json@@@std@@YAPAPAVValue@Json@@IPAPAV12@@Z ; std::_Allocate<Json::Value *>
PUBLIC	??$_Allocate@PAVErrorInfo@Reader@Json@@@std@@YAPAPAVErrorInfo@Reader@Json@@IPAPAV123@@Z ; std::_Allocate<Json::Reader::ErrorInfo *>
PUBLIC	??$_Allocate@D@std@@YAPADIPAD@Z			; std::_Allocate<char>
PUBLIC	??$_Allocate@PAPAVValue@Json@@@std@@YAPAPAPAVValue@Json@@IPAPAPAV12@@Z ; std::_Allocate<Json::Value * *>
PUBLIC	??$_Allocate@U_Container_proxy@std@@@std@@YAPAU_Container_proxy@0@IPAU10@@Z ; std::_Allocate<std::_Container_proxy>
PUBLIC	??$move@AAV?$basic_istream@DU?$char_traits@D@std@@@std@@@std@@YA$$QAV?$basic_istream@DU?$char_traits@D@std@@@0@AAV10@@Z ; std::move<std::basic_istream<char,std::char_traits<char> > &>
PUBLIC	??$move@AAV?$basic_string@DU?$char_traits@D@std@@V?$allocator@D@2@@std@@@std@@YA$$QAV?$basic_string@DU?$char_traits@D@std@@V?$allocator@D@2@@0@AAV10@@Z ; std::move<std::basic_string<char,std::char_traits<char>,std::allocator<char> > &>
PUBLIC	??$?8V?$allocator@D@std@@V01@@std@@YA_NABU?$_Wrap_alloc@V?$allocator@D@std@@@0@0@Z ; std::operator==<std::allocator<char>,std::allocator<char> >
PUBLIC	??$?8DD@std@@YA_NABV?$allocator@D@0@0@Z		; std::operator==<char,char>
PUBLIC	??$forward@ABVErrorInfo@Reader@Json@@@std@@YAABVErrorInfo@Reader@Json@@ABV123@@Z ; std::forward<Json::Reader::ErrorInfo const &>
PUBLIC	??$construct@VErrorInfo@Reader@Json@@ABV123@@?$allocator_traits@V?$allocator@VErrorInfo@Reader@Json@@@std@@@std@@SAXAAV?$allocator@VErrorInfo@Reader@Json@@@1@PAVErrorInfo@Reader@Json@@ABV345@@Z ; std::allocator_traits<std::allocator<Json::Reader::ErrorInfo> >::construct<Json::Reader::ErrorInfo,Json::Reader::ErrorInfo const &>
PUBLIC	??$forward@AAPAD@std@@YAAAPADAAPAD@Z		; std::forward<char * &>
PUBLIC	??$construct@PADAAPAD@?$allocator_traits@V?$allocator@D@std@@@std@@SAXAAV?$allocator@D@1@PAPADAAPAD@Z ; std::allocator_traits<std::allocator<char> >::construct<char *,char * &>
PUBLIC	??$destroy@PAD@?$allocator_traits@V?$allocator@D@std@@@std@@SAXAAV?$allocator@D@1@PAPAD@Z ; std::allocator_traits<std::allocator<char> >::destroy<char *>
PUBLIC	??$construct@PAVValue@Json@@PAV12@@?$allocator_traits@V?$allocator@PAVValue@Json@@@std@@@std@@SAXAAV?$allocator@PAVValue@Json@@@1@PAPAVValue@Json@@$$QAPAV34@@Z ; std::allocator_traits<std::allocator<Json::Value *> >::construct<Json::Value *,Json::Value *>
PUBLIC	??$destroy@PAVValue@Json@@@?$allocator_traits@V?$allocator@PAVValue@Json@@@std@@@std@@SAXAAV?$allocator@PAVValue@Json@@@1@PAPAVValue@Json@@@Z ; std::allocator_traits<std::allocator<Json::Value *> >::destroy<Json::Value *>
PUBLIC	??$destroy@PAPAVValue@Json@@@?$allocator_traits@V?$allocator@PAVValue@Json@@@std@@@std@@SAXAAV?$allocator@PAVValue@Json@@@1@PAPAPAVValue@Json@@@Z ; std::allocator_traits<std::allocator<Json::Value *> >::destroy<Json::Value * *>
PUBLIC	??$destroy@VErrorInfo@Reader@Json@@@?$allocator_traits@V?$allocator@VErrorInfo@Reader@Json@@@std@@@std@@SAXAAV?$allocator@VErrorInfo@Reader@Json@@@1@PAVErrorInfo@Reader@Json@@@Z ; std::allocator_traits<std::allocator<Json::Reader::ErrorInfo> >::destroy<Json::Reader::ErrorInfo>
PUBLIC	??$_Unchecked@PAPAVErrorInfo@Reader@Json@@@std@@YAPAPAVErrorInfo@Reader@Json@@PAPAV123@@Z ; std::_Unchecked<Json::Reader::ErrorInfo * *>
PUBLIC	??$_Uninit_copy@PAPAVErrorInfo@Reader@Json@@PAPAV123@U?$_Wrap_alloc@V?$allocator@PAVErrorInfo@Reader@Json@@@std@@@std@@@std@@YAPAPAVErrorInfo@Reader@Json@@PAPAV123@00AAU?$_Wrap_alloc@V?$allocator@PAVErrorInfo@Reader@Json@@@std@@@0@@Z ; std::_Uninit_copy<Json::Reader::ErrorInfo * *,Json::Reader::ErrorInfo * *,std::_Wrap_alloc<std::allocator<Json::Reader::ErrorInfo *> > >
PUBLIC	??$_Rechecked@PAPAVErrorInfo@Reader@Json@@PAPAV123@@std@@YAAAPAPAVErrorInfo@Reader@Json@@AAPAPAV123@PAPAV123@@Z ; std::_Rechecked<Json::Reader::ErrorInfo * *,Json::Reader::ErrorInfo * *>
PUBLIC	??$_Val_type@PAPAVErrorInfo@Reader@Json@@@std@@YAPAPAVErrorInfo@Reader@Json@@PAPAV123@@Z ; std::_Val_type<Json::Reader::ErrorInfo * *>
PUBLIC	??$_Ptr_cat@PAVErrorInfo@Reader@Json@@PAV123@@std@@YA?AU_Scalar_ptr_iterator_tag@0@PAPAVErrorInfo@Reader@Json@@0@Z ; std::_Ptr_cat<Json::Reader::ErrorInfo *,Json::Reader::ErrorInfo *>
PUBLIC	??$_Uninit_def_fill_n@PAVErrorInfo@Reader@Json@@IPAV123@@std@@YAXPAPAVErrorInfo@Reader@Json@@IAAU?$_Wrap_alloc@V?$allocator@PAVErrorInfo@Reader@Json@@@std@@@0@0U_Scalar_ptr_iterator_tag@0@@Z ; std::_Uninit_def_fill_n<Json::Reader::ErrorInfo *,unsigned int,Json::Reader::ErrorInfo *>
PUBLIC	??$_Destroy_range@U?$_Wrap_alloc@V?$allocator@PAVErrorInfo@Reader@Json@@@std@@@std@@@std@@YAXPAPAVErrorInfo@Reader@Json@@0AAU?$_Wrap_alloc@V?$allocator@PAVErrorInfo@Reader@Json@@@std@@@0@U_Scalar_ptr_iterator_tag@0@@Z ; std::_Destroy_range<std::_Wrap_alloc<std::allocator<Json::Reader::ErrorInfo *> > >
PUBLIC	??$destroy@PAVErrorInfo@Reader@Json@@@?$allocator_traits@V?$allocator@VErrorInfo@Reader@Json@@@std@@@std@@SAXAAV?$allocator@VErrorInfo@Reader@Json@@@1@PAPAVErrorInfo@Reader@Json@@@Z ; std::allocator_traits<std::allocator<Json::Reader::ErrorInfo> >::destroy<Json::Reader::ErrorInfo *>
PUBLIC	??$_Unchecked@PAPAPAVValue@Json@@@std@@YAPAPAPAVValue@Json@@PAPAPAV12@@Z ; std::_Unchecked<Json::Value * * *>
PUBLIC	??$_Uninit_copy@PAPAPAVValue@Json@@PAPAPAV12@U?$_Wrap_alloc@V?$allocator@PAPAVValue@Json@@@std@@@std@@@std@@YAPAPAPAVValue@Json@@PAPAPAV12@00AAU?$_Wrap_alloc@V?$allocator@PAPAVValue@Json@@@std@@@0@@Z ; std::_Uninit_copy<Json::Value * * *,Json::Value * * *,std::_Wrap_alloc<std::allocator<Json::Value * *> > >
PUBLIC	??$_Rechecked@PAPAPAVValue@Json@@PAPAPAV12@@std@@YAAAPAPAPAVValue@Json@@AAPAPAPAV12@PAPAPAV12@@Z ; std::_Rechecked<Json::Value * * *,Json::Value * * *>
PUBLIC	??$_Val_type@PAPAPAVValue@Json@@@std@@YAPAPAPAVValue@Json@@PAPAPAV12@@Z ; std::_Val_type<Json::Value * * *>
PUBLIC	??$_Ptr_cat@PAPAVValue@Json@@PAPAV12@@std@@YA?AU_Scalar_ptr_iterator_tag@0@PAPAPAVValue@Json@@0@Z ; std::_Ptr_cat<Json::Value * *,Json::Value * *>
PUBLIC	??$_Uninit_def_fill_n@PAPAVValue@Json@@IPAPAV12@@std@@YAXPAPAPAVValue@Json@@IAAU?$_Wrap_alloc@V?$allocator@PAPAVValue@Json@@@std@@@0@0U_Scalar_ptr_iterator_tag@0@@Z ; std::_Uninit_def_fill_n<Json::Value * *,unsigned int,Json::Value * *>
PUBLIC	??$_Destroy_range@U?$_Wrap_alloc@V?$allocator@PAPAVValue@Json@@@std@@@std@@@std@@YAXPAPAPAVValue@Json@@0AAU?$_Wrap_alloc@V?$allocator@PAPAVValue@Json@@@std@@@0@U_Scalar_ptr_iterator_tag@0@@Z ; std::_Destroy_range<std::_Wrap_alloc<std::allocator<Json::Value * *> > >
PUBLIC	??$destroy@U_Container_proxy@std@@@?$allocator_traits@V?$allocator@U_Container_proxy@std@@@std@@@std@@SAXAAV?$allocator@U_Container_proxy@std@@@1@PAU_Container_proxy@1@@Z ; std::allocator_traits<std::allocator<std::_Container_proxy> >::destroy<std::_Container_proxy>
PUBLIC	??$forward@U_Container_proxy@std@@@std@@YA$$QAU_Container_proxy@0@AAU10@@Z ; std::forward<std::_Container_proxy>
PUBLIC	??$construct@U_Container_proxy@std@@U12@@?$allocator_traits@V?$allocator@U_Container_proxy@std@@@std@@@std@@SAXAAV?$allocator@U_Container_proxy@std@@@1@PAU_Container_proxy@1@$$QAU31@@Z ; std::allocator_traits<std::allocator<std::_Container_proxy> >::construct<std::_Container_proxy,std::_Container_proxy>
PUBLIC	??$construct@VErrorInfo@Reader@Json@@$$$V@?$allocator_traits@V?$allocator@VErrorInfo@Reader@Json@@@std@@@std@@SAXAAV?$allocator@VErrorInfo@Reader@Json@@@1@PAVErrorInfo@Reader@Json@@@Z ; std::allocator_traits<std::allocator<Json::Reader::ErrorInfo> >::construct<Json::Reader::ErrorInfo>
PUBLIC	??$construct@PADAAPAD@?$allocator@D@std@@QAEXPAPADAAPAD@Z ; std::allocator<char>::construct<char *,char * &>
PUBLIC	??$destroy@PAD@?$allocator@D@std@@QAEXPAPAD@Z	; std::allocator<char>::destroy<char *>
PUBLIC	??$construct@PAVValue@Json@@PAV12@@?$allocator@PAVValue@Json@@@std@@QAEXPAPAVValue@Json@@$$QAPAV23@@Z ; std::allocator<Json::Value *>::construct<Json::Value *,Json::Value *>
PUBLIC	??$destroy@PAVValue@Json@@@?$allocator@PAVValue@Json@@@std@@QAEXPAPAVValue@Json@@@Z ; std::allocator<Json::Value *>::destroy<Json::Value *>
PUBLIC	??$destroy@PAPAVValue@Json@@@?$allocator@PAVValue@Json@@@std@@QAEXPAPAPAVValue@Json@@@Z ; std::allocator<Json::Value *>::destroy<Json::Value * *>
PUBLIC	??$destroy@VErrorInfo@Reader@Json@@@?$allocator@VErrorInfo@Reader@Json@@@std@@QAEXPAVErrorInfo@Reader@Json@@@Z ; std::allocator<Json::Reader::ErrorInfo>::destroy<Json::Reader::ErrorInfo>
PUBLIC	??$_Uninit_copy@PAVErrorInfo@Reader@Json@@PAV123@@std@@YAPAPAVErrorInfo@Reader@Json@@PAPAV123@00AAU?$_Wrap_alloc@V?$allocator@PAVErrorInfo@Reader@Json@@@std@@@0@U_Scalar_ptr_iterator_tag@0@@Z ; std::_Uninit_copy<Json::Reader::ErrorInfo *,Json::Reader::ErrorInfo *>
PUBLIC	??$_Fill_n@PAPAVErrorInfo@Reader@Json@@IPAV123@@std@@YAPAPAVErrorInfo@Reader@Json@@PAPAV123@IABQAV123@@Z ; std::_Fill_n<Json::Reader::ErrorInfo * *,unsigned int,Json::Reader::ErrorInfo *>
PUBLIC	??$destroy@PAVErrorInfo@Reader@Json@@@?$allocator@VErrorInfo@Reader@Json@@@std@@QAEXPAPAVErrorInfo@Reader@Json@@@Z ; std::allocator<Json::Reader::ErrorInfo>::destroy<Json::Reader::ErrorInfo *>
PUBLIC	??$_Uninit_copy@PAPAVValue@Json@@PAPAV12@@std@@YAPAPAPAVValue@Json@@PAPAPAV12@00AAU?$_Wrap_alloc@V?$allocator@PAPAVValue@Json@@@std@@@0@U_Scalar_ptr_iterator_tag@0@@Z ; std::_Uninit_copy<Json::Value * *,Json::Value * *>
PUBLIC	??$_Fill_n@PAPAPAVValue@Json@@IPAPAV12@@std@@YAPAPAPAVValue@Json@@PAPAPAV12@IABQAPAV12@@Z ; std::_Fill_n<Json::Value * * *,unsigned int,Json::Value * *>
PUBLIC	??$destroy@U_Container_proxy@std@@@?$allocator@U_Container_proxy@std@@@std@@QAEXPAU_Container_proxy@1@@Z ; std::allocator<std::_Container_proxy>::destroy<std::_Container_proxy>
PUBLIC	??$construct@U_Container_proxy@std@@U12@@?$allocator@U_Container_proxy@std@@@std@@QAEXPAU_Container_proxy@1@$$QAU21@@Z ; std::allocator<std::_Container_proxy>::construct<std::_Container_proxy,std::_Container_proxy>
PUBLIC	?npos@?$basic_string@DU?$char_traits@D@std@@V?$allocator@D@2@@std@@2IB ; std::basic_string<char,std::char_traits<char>,std::allocator<char> >::npos
PUBLIC	??_7runtime_error@std@@6B@			; std::runtime_error::`vftable'
PUBLIC	__TI2?AVruntime_error@std@@
PUBLIC	__CTA2?AVruntime_error@std@@
PUBLIC	??_R0?AVruntime_error@std@@@8			; std::runtime_error `RTTI Type Descriptor'
PUBLIC	__CT??_R0?AVruntime_error@std@@@8??0runtime_error@std@@QAE@ABV01@@Z12
PUBLIC	??_R0?AVexception@std@@@8			; std::exception `RTTI Type Descriptor'
PUBLIC	__CT??_R0?AVexception@std@@@8??0exception@std@@QAE@ABV01@@Z12
PUBLIC	??_C@_00CNPNBAHC@?$AA@				; `string'
PUBLIC	??_7error_category@std@@6B@			; std::error_category::`vftable'
PUBLIC	??_7_Generic_error_category@std@@6B@		; std::_Generic_error_category::`vftable'
PUBLIC	??_C@_07DCLBNMLN@generic?$AA@			; `string'
PUBLIC	??_C@_0O@BFJCFAAK@unknown?5error?$AA@		; `string'
PUBLIC	??_7_Iostream_error_category@std@@6B@		; std::_Iostream_error_category::`vftable'
PUBLIC	??_C@_08LLGCOLLL@iostream?$AA@			; `string'
PUBLIC	??_C@_0BG@PADBLCHM@iostream?5stream?5error?$AA@	; `string'
PUBLIC	??_7_System_error_category@std@@6B@		; std::_System_error_category::`vftable'
PUBLIC	??_C@_06FHFOAHML@system?$AA@			; `string'
PUBLIC	?_Generic_object@?$_Error_objects@H@std@@2V_Generic_error_category@2@A ; std::_Error_objects<int>::_Generic_object
PUBLIC	?_Iostream_object@?$_Error_objects@H@std@@2V_Iostream_error_category@2@A ; std::_Error_objects<int>::_Iostream_object
PUBLIC	?_System_object@?$_Error_objects@H@std@@2V_System_error_category@2@A ; std::_Error_objects<int>::_System_object
PUBLIC	?id@?$num_put@DV?$back_insert_iterator@V?$basic_string@DU?$char_traits@D@std@@V?$allocator@D@2@@std@@@std@@@std@@2V0locale@2@A ; std::num_put<char,std::back_insert_iterator<std::basic_string<char,std::char_traits<char>,std::allocator<char> > > >::id
PUBLIC	?id@?$num_put@_WV?$back_insert_iterator@V?$basic_string@_WU?$char_traits@_W@std@@V?$allocator@_W@2@@std@@@std@@@std@@2V0locale@2@A ; std::num_put<wchar_t,std::back_insert_iterator<std::basic_string<wchar_t,std::char_traits<wchar_t>,std::allocator<wchar_t> > > >::id
PUBLIC	??_C@_0EC@HCHNIDLM@A?5valid?5JSON?5document?5must?5be?5ei@ ; `string'
PUBLIC	??_C@_0CP@GDDNKEK@Syntax?5error?3?5value?0?5object?5or?5a@ ; `string'
PUBLIC	??_C@_03FFDNHNKN@rue?$AA@			; `string'
PUBLIC	??_C@_04KCECFHEP@alse?$AA@			; `string'
PUBLIC	??_C@_03KNPGGKC@ull?$AA@			; `string'
PUBLIC	??_C@_01EEMJAFIK@?6?$AA@			; `string'
PUBLIC	??_C@_0CF@GCCDMCPH@Missing?5?8?3?8?5after?5object?5member?5@ ; `string'
PUBLIC	??_C@_0CJ@NGKOAFKA@Missing?5?8?0?8?5or?5?8?$HN?8?5in?5object?5dec@ ; `string'
PUBLIC	??_C@_0CC@JNCGHFHN@Missing?5?8?$HN?8?5or?5object?5member?5nam@ ; `string'
PUBLIC	??_C@_0CI@DPCANLPO@Missing?5?8?0?8?5or?5?8?$FN?8?5in?5array?5decl@ ; `string'
PUBLIC	??_C@_0BD@HHNBFDKF@?8?5is?5not?5a?5number?4?$AA@ ; `string'
PUBLIC	??_C@_01GEODFPGF@?8?$AA@			; `string'
PUBLIC	??_C@_03DLDNIBIK@?$CFlf?$AA@			; `string'
PUBLIC	??_C@_0CA@DPGKPPOE@Empty?5escape?5sequence?5in?5string?$AA@ ; `string'
PUBLIC	??_C@_0BO@NDEEJNNB@Bad?5escape?5sequence?5in?5string?$AA@ ; `string'
PUBLIC	??_C@_0EE@LMPEHADE@additional?5six?5characters?5expect@ ; `string'
PUBLIC	??_C@_0FA@BGMMPLKB@expecting?5another?5?2u?5token?5to?5be@ ; `string'
PUBLIC	??_C@_0DN@BPAHJPFJ@Bad?5unicode?5escape?5sequence?5in?5s@ ; `string'
PUBLIC	??_C@_0ED@FIDDECIG@Bad?5unicode?5escape?5sequence?5in?5s@ ; `string'
PUBLIC	??_C@_0BD@LAMGIMLG@Line?5?$CFd?0?5Column?5?$CFd?$AA@ ; `string'
PUBLIC	??_C@_02KAOAMBHJ@?$CK?5?$AA@			; `string'
PUBLIC	??_C@_02KNHHEEKP@?5?5?$AA@			; `string'
PUBLIC	??_C@_0O@JBAGGIKP@?5for?5detail?4?6?$AA@	; `string'
PUBLIC	??_C@_04JBAOJHKB@See?5?$AA@			; `string'
PUBLIC	??_C@_0BA@JFNIOLAK@string?5too?5long?$AA@	; `string'
PUBLIC	??_C@_0BI@CFPLBAOH@invalid?5string?5position?$AA@ ; `string'
PUBLIC	??_C@_0BC@KBDMBKEH@deque?$DMT?$DO?5too?5long?$AA@ ; `string'
PUBLIC	??_R1A@?0A@EA@exception@std@@8			; std::exception::`RTTI Base Class Descriptor at (0,-1,0,64)'
PUBLIC	??_R3exception@std@@8				; std::exception::`RTTI Class Hierarchy Descriptor'
PUBLIC	??_R2exception@std@@8				; std::exception::`RTTI Base Class Array'
PUBLIC	??_R4runtime_error@std@@6B@			; std::runtime_error::`RTTI Complete Object Locator'
PUBLIC	??_R3runtime_error@std@@8			; std::runtime_error::`RTTI Class Hierarchy Descriptor'
PUBLIC	??_R2runtime_error@std@@8			; std::runtime_error::`RTTI Base Class Array'
PUBLIC	??_R1A@?0A@EA@runtime_error@std@@8		; std::runtime_error::`RTTI Base Class Descriptor at (0,-1,0,64)'
PUBLIC	??_R4error_category@std@@6B@			; std::error_category::`RTTI Complete Object Locator'
PUBLIC	??_R0?AVerror_category@std@@@8			; std::error_category `RTTI Type Descriptor'
PUBLIC	??_R3error_category@std@@8			; std::error_category::`RTTI Class Hierarchy Descriptor'
PUBLIC	??_R2error_category@std@@8			; std::error_category::`RTTI Base Class Array'
PUBLIC	??_R1A@?0A@EA@error_category@std@@8		; std::error_category::`RTTI Base Class Descriptor at (0,-1,0,64)'
PUBLIC	??_R4_Generic_error_category@std@@6B@		; std::_Generic_error_category::`RTTI Complete Object Locator'
PUBLIC	??_R0?AV_Generic_error_category@std@@@8		; std::_Generic_error_category `RTTI Type Descriptor'
PUBLIC	??_R3_Generic_error_category@std@@8		; std::_Generic_error_category::`RTTI Class Hierarchy Descriptor'
PUBLIC	??_R2_Generic_error_category@std@@8		; std::_Generic_error_category::`RTTI Base Class Array'
PUBLIC	??_R1A@?0A@EA@_Generic_error_category@std@@8	; std::_Generic_error_category::`RTTI Base Class Descriptor at (0,-1,0,64)'
PUBLIC	??_R4_Iostream_error_category@std@@6B@		; std::_Iostream_error_category::`RTTI Complete Object Locator'
PUBLIC	??_R0?AV_Iostream_error_category@std@@@8	; std::_Iostream_error_category `RTTI Type Descriptor'
PUBLIC	??_R3_Iostream_error_category@std@@8		; std::_Iostream_error_category::`RTTI Class Hierarchy Descriptor'
PUBLIC	??_R2_Iostream_error_category@std@@8		; std::_Iostream_error_category::`RTTI Base Class Array'
PUBLIC	??_R1A@?0A@EA@_Iostream_error_category@std@@8	; std::_Iostream_error_category::`RTTI Base Class Descriptor at (0,-1,0,64)'
PUBLIC	??_R4_System_error_category@std@@6B@		; std::_System_error_category::`RTTI Complete Object Locator'
PUBLIC	??_R0?AV_System_error_category@std@@@8		; std::_System_error_category `RTTI Type Descriptor'
PUBLIC	??_R3_System_error_category@std@@8		; std::_System_error_category::`RTTI Class Hierarchy Descriptor'
PUBLIC	??_R2_System_error_category@std@@8		; std::_System_error_category::`RTTI Base Class Array'
PUBLIC	??_R1A@?0A@EA@_System_error_category@std@@8	; std::_System_error_category::`RTTI Base Class Descriptor at (0,-1,0,64)'
PUBLIC	__real@0000000000000000
EXTRN	__purecall:PROC
EXTRN	??2@YAPAXI@Z:PROC				; operator new
EXTRN	??3@YAXPAX@Z:PROC				; operator delete
EXTRN	_atexit:PROC
EXTRN	___report_rangecheckfailure:PROC
EXTRN	__imp___hypot:PROC
EXTRN	__imp__sscanf:PROC
EXTRN	__imp__sprintf:PROC
EXTRN	__imp__memmove:PROC
EXTRN	__imp_??0exception@std@@QAE@ABQBD@Z:PROC
EXTRN	__imp_??0exception@std@@QAE@ABV01@@Z:PROC
EXTRN	__imp_??1exception@std@@UAE@XZ:PROC
EXTRN	__imp_??0_Container_base12@std@@QAE@XZ:PROC
EXTRN	__imp_??1_Container_base12@std@@QAE@XZ:PROC
EXTRN	__imp_?_Orphan_all@_Container_base12@std@@QAEXXZ:PROC
EXTRN	__imp_?_Xbad_alloc@std@@YAXXZ:PROC
EXTRN	__imp_?_Xlength_error@std@@YAXPBD@Z:PROC
EXTRN	__imp_?_Xout_of_range@std@@YAXPBD@Z:PROC
EXTRN	??_Eruntime_error@std@@UAEPAXI@Z:PROC		; std::runtime_error::`vector deleting destructor'
EXTRN	__imp_??0id@locale@std@@QAE@I@Z:PROC
EXTRN	??_Eerror_category@std@@UAEPAXI@Z:PROC		; std::error_category::`vector deleting destructor'
EXTRN	__imp_?_Syserror_map@std@@YAPBDH@Z:PROC
EXTRN	__imp_?_Winerror_map@std@@YAPBDH@Z:PROC
EXTRN	??_E_Generic_error_category@std@@UAEPAXI@Z:PROC	; std::_Generic_error_category::`vector deleting destructor'
EXTRN	??_E_Iostream_error_category@std@@UAEPAXI@Z:PROC ; std::_Iostream_error_category::`vector deleting destructor'
EXTRN	??_E_System_error_category@std@@UAEPAXI@Z:PROC	; std::_System_error_category::`vector deleting destructor'
EXTRN	__imp_?sbumpc@?$basic_streambuf@DU?$char_traits@D@std@@@std@@QAEHXZ:PROC
EXTRN	__imp_?sgetc@?$basic_streambuf@DU?$char_traits@D@std@@@std@@QAEHXZ:PROC
EXTRN	__imp_?snextc@?$basic_streambuf@DU?$char_traits@D@std@@@std@@QAEHXZ:PROC
EXTRN	__imp_?setstate@?$basic_ios@DU?$char_traits@D@std@@@std@@QAEXH_N@Z:PROC
EXTRN	__imp_?rdbuf@?$basic_ios@DU?$char_traits@D@std@@@std@@QBEPAV?$basic_streambuf@DU?$char_traits@D@std@@@2@XZ:PROC
EXTRN	__imp_?_Ipfx@?$basic_istream@DU?$char_traits@D@std@@@std@@QAE_N_N@Z:PROC
EXTRN	??0Value@Json@@QAE@W4ValueType@1@@Z:PROC	; Json::Value::Value
EXTRN	??0Value@Json@@QAE@H@Z:PROC			; Json::Value::Value
EXTRN	??0Value@Json@@QAE@I@Z:PROC			; Json::Value::Value
EXTRN	??0Value@Json@@QAE@N@Z:PROC			; Json::Value::Value
EXTRN	??0Value@Json@@QAE@ABV?$basic_string@DU?$char_traits@D@std@@V?$allocator@D@2@@std@@@Z:PROC ; Json::Value::Value
EXTRN	??0Value@Json@@QAE@_N@Z:PROC			; Json::Value::Value
EXTRN	??1Value@Json@@QAE@XZ:PROC			; Json::Value::~Value
EXTRN	??4Value@Json@@QAEAAV01@ABV01@@Z:PROC		; Json::Value::operator=
EXTRN	?isArray@Value@Json@@QBE_NXZ:PROC		; Json::Value::isArray
EXTRN	?isObject@Value@Json@@QBE_NXZ:PROC		; Json::Value::isObject
EXTRN	??AValue@Json@@QAEAAV01@I@Z:PROC		; Json::Value::operator[]
EXTRN	??AValue@Json@@QAEAAV01@ABV?$basic_string@DU?$char_traits@D@std@@V?$allocator@D@2@@std@@@Z:PROC ; Json::Value::operator[]
EXTRN	?setComment@Value@Json@@QAEXABV?$basic_string@DU?$char_traits@D@std@@V?$allocator@D@2@@std@@W4CommentPlacement@2@@Z:PROC ; Json::Value::setComment
EXTRN	??0exception@std@@QAE@ABV01@@Z:PROC		; std::exception::exception
EXTRN	?what@exception@std@@UBEPBDXZ:PROC		; std::exception::what
EXTRN	@__security_check_cookie@4:PROC
EXTRN	__CxxThrowException@8:PROC
EXTRN	___CxxFrameHandler3:PROC
EXTRN	_memcpy:PROC
EXTRN	_memset:PROC
EXTRN	??_7type_info@@6B@:QWORD			; type_info::`vftable'
EXTRN	?minInt@Value@Json@@2HB:DWORD			; Json::Value::minInt
EXTRN	?maxInt@Value@Json@@2HB:DWORD			; Json::Value::maxInt
EXTRN	?maxUInt@Value@Json@@2IB:DWORD			; Json::Value::maxUInt
EXTRN	___security_cookie:DWORD
EXTRN	__fltused:DWORD
_BSS	SEGMENT
_piecewise_construct DB 01H DUP (?)
_allocator_arg DB 01H DUP (?)
_BSS	ENDS
;	COMDAT ?_Generic_object@?$_Error_objects@H@std@@2V_Generic_error_category@2@A
_BSS	SEGMENT
?_Generic_object@?$_Error_objects@H@std@@2V_Generic_error_category@2@A DD 01H DUP (?) ; std::_Error_objects<int>::_Generic_object
_BSS	ENDS
;	COMDAT ?_Iostream_object@?$_Error_objects@H@std@@2V_Iostream_error_category@2@A
_BSS	SEGMENT
?_Iostream_object@?$_Error_objects@H@std@@2V_Iostream_error_category@2@A DD 01H DUP (?) ; std::_Error_objects<int>::_Iostream_object
_BSS	ENDS
;	COMDAT ?_System_object@?$_Error_objects@H@std@@2V_System_error_category@2@A
_BSS	SEGMENT
?_System_object@?$_Error_objects@H@std@@2V_System_error_category@2@A DD 01H DUP (?) ; std::_Error_objects<int>::_System_object
_BSS	ENDS
;	COMDAT ?id@?$num_put@DV?$back_insert_iterator@V?$basic_string@DU?$char_traits@D@std@@V?$allocator@D@2@@std@@@std@@@std@@2V0locale@2@A
_BSS	SEGMENT
?id@?$num_put@DV?$back_insert_iterator@V?$basic_string@DU?$char_traits@D@std@@V?$allocator@D@2@@std@@@std@@@std@@2V0locale@2@A DD 01H DUP (?) ; std::num_put<char,std::back_insert_iterator<std::basic_string<char,std::char_traits<char>,std::allocator<char> > > >::id
_BSS	ENDS
;	COMDAT ?id@?$num_put@_WV?$back_insert_iterator@V?$basic_string@_WU?$char_traits@_W@std@@V?$allocator@_W@2@@std@@@std@@@std@@2V0locale@2@A
_BSS	SEGMENT
?id@?$num_put@_WV?$back_insert_iterator@V?$basic_string@_WU?$char_traits@_W@std@@V?$allocator@_W@2@@std@@@std@@@std@@2V0locale@2@A DD 01H DUP (?) ; std::num_put<wchar_t,std::back_insert_iterator<std::basic_string<wchar_t,std::char_traits<wchar_t>,std::allocator<wchar_t> > > >::id
_BSS	ENDS
_BSS	SEGMENT
_ignore	DB	01H DUP (?)
__Tuple_alloc DB 01H DUP (?)
_BSS	ENDS
CRT$XCU	SEGMENT
_piecewise_construct$initializer$ DD FLAT:??__Epiecewise_construct@std@@YAXXZ
CRT$XCU	ENDS
;	COMDAT __real@0000000000000000
CONST	SEGMENT
__real@0000000000000000 DQ 00000000000000000r	; 0
CONST	ENDS
;	COMDAT ??_R1A@?0A@EA@_System_error_category@std@@8
rdata$r	SEGMENT
??_R1A@?0A@EA@_System_error_category@std@@8 DD FLAT:??_R0?AV_System_error_category@std@@@8 ; std::_System_error_category::`RTTI Base Class Descriptor at (0,-1,0,64)'
	DD	02H
	DD	00H
	DD	0ffffffffH
	DD	00H
	DD	040H
	DD	FLAT:??_R3_System_error_category@std@@8
rdata$r	ENDS
;	COMDAT ??_R2_System_error_category@std@@8
rdata$r	SEGMENT
??_R2_System_error_category@std@@8 DD FLAT:??_R1A@?0A@EA@_System_error_category@std@@8 ; std::_System_error_category::`RTTI Base Class Array'
	DD	FLAT:??_R1A@?0A@EA@_Generic_error_category@std@@8
	DD	FLAT:??_R1A@?0A@EA@error_category@std@@8
rdata$r	ENDS
;	COMDAT ??_R3_System_error_category@std@@8
rdata$r	SEGMENT
??_R3_System_error_category@std@@8 DD 00H		; std::_System_error_category::`RTTI Class Hierarchy Descriptor'
	DD	00H
	DD	03H
	DD	FLAT:??_R2_System_error_category@std@@8
rdata$r	ENDS
;	COMDAT ??_R0?AV_System_error_category@std@@@8
data$r	SEGMENT
??_R0?AV_System_error_category@std@@@8 DD FLAT:??_7type_info@@6B@ ; std::_System_error_category `RTTI Type Descriptor'
	DD	00H
	DB	'.?AV_System_error_category@std@@', 00H
data$r	ENDS
;	COMDAT ??_R4_System_error_category@std@@6B@
rdata$r	SEGMENT
??_R4_System_error_category@std@@6B@ DD 00H		; std::_System_error_category::`RTTI Complete Object Locator'
	DD	00H
	DD	00H
	DD	FLAT:??_R0?AV_System_error_category@std@@@8
	DD	FLAT:??_R3_System_error_category@std@@8
rdata$r	ENDS
;	COMDAT ??_R1A@?0A@EA@_Iostream_error_category@std@@8
rdata$r	SEGMENT
??_R1A@?0A@EA@_Iostream_error_category@std@@8 DD FLAT:??_R0?AV_Iostream_error_category@std@@@8 ; std::_Iostream_error_category::`RTTI Base Class Descriptor at (0,-1,0,64)'
	DD	02H
	DD	00H
	DD	0ffffffffH
	DD	00H
	DD	040H
	DD	FLAT:??_R3_Iostream_error_category@std@@8
rdata$r	ENDS
;	COMDAT ??_R2_Iostream_error_category@std@@8
rdata$r	SEGMENT
??_R2_Iostream_error_category@std@@8 DD FLAT:??_R1A@?0A@EA@_Iostream_error_category@std@@8 ; std::_Iostream_error_category::`RTTI Base Class Array'
	DD	FLAT:??_R1A@?0A@EA@_Generic_error_category@std@@8
	DD	FLAT:??_R1A@?0A@EA@error_category@std@@8
rdata$r	ENDS
;	COMDAT ??_R3_Iostream_error_category@std@@8
rdata$r	SEGMENT
??_R3_Iostream_error_category@std@@8 DD 00H		; std::_Iostream_error_category::`RTTI Class Hierarchy Descriptor'
	DD	00H
	DD	03H
	DD	FLAT:??_R2_Iostream_error_category@std@@8
rdata$r	ENDS
;	COMDAT ??_R0?AV_Iostream_error_category@std@@@8
data$r	SEGMENT
??_R0?AV_Iostream_error_category@std@@@8 DD FLAT:??_7type_info@@6B@ ; std::_Iostream_error_category `RTTI Type Descriptor'
	DD	00H
	DB	'.?AV_Iostream_error_category@std@@', 00H
data$r	ENDS
;	COMDAT ??_R4_Iostream_error_category@std@@6B@
rdata$r	SEGMENT
??_R4_Iostream_error_category@std@@6B@ DD 00H		; std::_Iostream_error_category::`RTTI Complete Object Locator'
	DD	00H
	DD	00H
	DD	FLAT:??_R0?AV_Iostream_error_category@std@@@8
	DD	FLAT:??_R3_Iostream_error_category@std@@8
rdata$r	ENDS
;	COMDAT ??_R1A@?0A@EA@_Generic_error_category@std@@8
rdata$r	SEGMENT
??_R1A@?0A@EA@_Generic_error_category@std@@8 DD FLAT:??_R0?AV_Generic_error_category@std@@@8 ; std::_Generic_error_category::`RTTI Base Class Descriptor at (0,-1,0,64)'
	DD	01H
	DD	00H
	DD	0ffffffffH
	DD	00H
	DD	040H
	DD	FLAT:??_R3_Generic_error_category@std@@8
rdata$r	ENDS
;	COMDAT ??_R2_Generic_error_category@std@@8
rdata$r	SEGMENT
??_R2_Generic_error_category@std@@8 DD FLAT:??_R1A@?0A@EA@_Generic_error_category@std@@8 ; std::_Generic_error_category::`RTTI Base Class Array'
	DD	FLAT:??_R1A@?0A@EA@error_category@std@@8
rdata$r	ENDS
;	COMDAT ??_R3_Generic_error_category@std@@8
rdata$r	SEGMENT
??_R3_Generic_error_category@std@@8 DD 00H		; std::_Generic_error_category::`RTTI Class Hierarchy Descriptor'
	DD	00H
	DD	02H
	DD	FLAT:??_R2_Generic_error_category@std@@8
rdata$r	ENDS
;	COMDAT ??_R0?AV_Generic_error_category@std@@@8
data$r	SEGMENT
??_R0?AV_Generic_error_category@std@@@8 DD FLAT:??_7type_info@@6B@ ; std::_Generic_error_category `RTTI Type Descriptor'
	DD	00H
	DB	'.?AV_Generic_error_category@std@@', 00H
data$r	ENDS
;	COMDAT ??_R4_Generic_error_category@std@@6B@
rdata$r	SEGMENT
??_R4_Generic_error_category@std@@6B@ DD 00H		; std::_Generic_error_category::`RTTI Complete Object Locator'
	DD	00H
	DD	00H
	DD	FLAT:??_R0?AV_Generic_error_category@std@@@8
	DD	FLAT:??_R3_Generic_error_category@std@@8
rdata$r	ENDS
;	COMDAT ??_R1A@?0A@EA@error_category@std@@8
rdata$r	SEGMENT
??_R1A@?0A@EA@error_category@std@@8 DD FLAT:??_R0?AVerror_category@std@@@8 ; std::error_category::`RTTI Base Class Descriptor at (0,-1,0,64)'
	DD	00H
	DD	00H
	DD	0ffffffffH
	DD	00H
	DD	040H
	DD	FLAT:??_R3error_category@std@@8
rdata$r	ENDS
;	COMDAT ??_R2error_category@std@@8
rdata$r	SEGMENT
??_R2error_category@std@@8 DD FLAT:??_R1A@?0A@EA@error_category@std@@8 ; std::error_category::`RTTI Base Class Array'
rdata$r	ENDS
;	COMDAT ??_R3error_category@std@@8
rdata$r	SEGMENT
??_R3error_category@std@@8 DD 00H			; std::error_category::`RTTI Class Hierarchy Descriptor'
	DD	00H
	DD	01H
	DD	FLAT:??_R2error_category@std@@8
rdata$r	ENDS
;	COMDAT ??_R0?AVerror_category@std@@@8
data$r	SEGMENT
??_R0?AVerror_category@std@@@8 DD FLAT:??_7type_info@@6B@ ; std::error_category `RTTI Type Descriptor'
	DD	00H
	DB	'.?AVerror_category@std@@', 00H
data$r	ENDS
;	COMDAT ??_R4error_category@std@@6B@
rdata$r	SEGMENT
??_R4error_category@std@@6B@ DD 00H			; std::error_category::`RTTI Complete Object Locator'
	DD	00H
	DD	00H
	DD	FLAT:??_R0?AVerror_category@std@@@8
	DD	FLAT:??_R3error_category@std@@8
rdata$r	ENDS
;	COMDAT ??_R1A@?0A@EA@runtime_error@std@@8
rdata$r	SEGMENT
??_R1A@?0A@EA@runtime_error@std@@8 DD FLAT:??_R0?AVruntime_error@std@@@8 ; std::runtime_error::`RTTI Base Class Descriptor at (0,-1,0,64)'
	DD	01H
	DD	00H
	DD	0ffffffffH
	DD	00H
	DD	040H
	DD	FLAT:??_R3runtime_error@std@@8
rdata$r	ENDS
;	COMDAT ??_R2runtime_error@std@@8
rdata$r	SEGMENT
??_R2runtime_error@std@@8 DD FLAT:??_R1A@?0A@EA@runtime_error@std@@8 ; std::runtime_error::`RTTI Base Class Array'
	DD	FLAT:??_R1A@?0A@EA@exception@std@@8
rdata$r	ENDS
;	COMDAT ??_R3runtime_error@std@@8
rdata$r	SEGMENT
??_R3runtime_error@std@@8 DD 00H			; std::runtime_error::`RTTI Class Hierarchy Descriptor'
	DD	00H
	DD	02H
	DD	FLAT:??_R2runtime_error@std@@8
rdata$r	ENDS
;	COMDAT ??_R4runtime_error@std@@6B@
rdata$r	SEGMENT
??_R4runtime_error@std@@6B@ DD 00H			; std::runtime_error::`RTTI Complete Object Locator'
	DD	00H
	DD	00H
	DD	FLAT:??_R0?AVruntime_error@std@@@8
	DD	FLAT:??_R3runtime_error@std@@8
rdata$r	ENDS
;	COMDAT ??_R2exception@std@@8
rdata$r	SEGMENT
??_R2exception@std@@8 DD FLAT:??_R1A@?0A@EA@exception@std@@8 ; std::exception::`RTTI Base Class Array'
rdata$r	ENDS
;	COMDAT ??_R3exception@std@@8
rdata$r	SEGMENT
??_R3exception@std@@8 DD 00H				; std::exception::`RTTI Class Hierarchy Descriptor'
	DD	00H
	DD	01H
	DD	FLAT:??_R2exception@std@@8
rdata$r	ENDS
;	COMDAT ??_R1A@?0A@EA@exception@std@@8
rdata$r	SEGMENT
??_R1A@?0A@EA@exception@std@@8 DD FLAT:??_R0?AVexception@std@@@8 ; std::exception::`RTTI Base Class Descriptor at (0,-1,0,64)'
	DD	00H
	DD	00H
	DD	0ffffffffH
	DD	00H
	DD	040H
	DD	FLAT:??_R3exception@std@@8
rdata$r	ENDS
;	COMDAT ??_C@_0BC@KBDMBKEH@deque?$DMT?$DO?5too?5long?$AA@
CONST	SEGMENT
??_C@_0BC@KBDMBKEH@deque?$DMT?$DO?5too?5long?$AA@ DB 'deque<T> too long', 00H ; `string'
CONST	ENDS
;	COMDAT ??_C@_0BI@CFPLBAOH@invalid?5string?5position?$AA@
CONST	SEGMENT
??_C@_0BI@CFPLBAOH@invalid?5string?5position?$AA@ DB 'invalid string posi'
	DB	'tion', 00H					; `string'
CONST	ENDS
;	COMDAT ??_C@_0BA@JFNIOLAK@string?5too?5long?$AA@
CONST	SEGMENT
??_C@_0BA@JFNIOLAK@string?5too?5long?$AA@ DB 'string too long', 00H ; `string'
CONST	ENDS
;	COMDAT ??_C@_04JBAOJHKB@See?5?$AA@
CONST	SEGMENT
??_C@_04JBAOJHKB@See?5?$AA@ DB 'See ', 00H		; `string'
CONST	ENDS
;	COMDAT ??_C@_0O@JBAGGIKP@?5for?5detail?4?6?$AA@
CONST	SEGMENT
??_C@_0O@JBAGGIKP@?5for?5detail?4?6?$AA@ DB ' for detail.', 0aH, 00H ; `string'
CONST	ENDS
;	COMDAT ??_C@_02KNHHEEKP@?5?5?$AA@
CONST	SEGMENT
??_C@_02KNHHEEKP@?5?5?$AA@ DB '  ', 00H			; `string'
CONST	ENDS
;	COMDAT ??_C@_02KAOAMBHJ@?$CK?5?$AA@
CONST	SEGMENT
??_C@_02KAOAMBHJ@?$CK?5?$AA@ DB '* ', 00H		; `string'
CONST	ENDS
;	COMDAT ??_C@_0BD@LAMGIMLG@Line?5?$CFd?0?5Column?5?$CFd?$AA@
CONST	SEGMENT
??_C@_0BD@LAMGIMLG@Line?5?$CFd?0?5Column?5?$CFd?$AA@ DB 'Line %d, Column '
	DB	'%d', 00H					; `string'
CONST	ENDS
;	COMDAT ??_C@_0ED@FIDDECIG@Bad?5unicode?5escape?5sequence?5in?5s@
CONST	SEGMENT
??_C@_0ED@FIDDECIG@Bad?5unicode?5escape?5sequence?5in?5s@ DB 'Bad unicode'
	DB	' escape sequence in string: hexadecimal digit expected.', 00H ; `string'
CONST	ENDS
;	COMDAT ??_C@_0DN@BPAHJPFJ@Bad?5unicode?5escape?5sequence?5in?5s@
CONST	SEGMENT
??_C@_0DN@BPAHJPFJ@Bad?5unicode?5escape?5sequence?5in?5s@ DB 'Bad unicode'
	DB	' escape sequence in string: four digits expected.', 00H ; `string'
CONST	ENDS
;	COMDAT ??_C@_0FA@BGMMPLKB@expecting?5another?5?2u?5token?5to?5be@
CONST	SEGMENT
??_C@_0FA@BGMMPLKB@expecting?5another?5?2u?5token?5to?5be@ DB 'expecting '
	DB	'another \u token to begin the second half of a unicode surrog'
	DB	'ate pair', 00H				; `string'
CONST	ENDS
;	COMDAT ??_C@_0EE@LMPEHADE@additional?5six?5characters?5expect@
CONST	SEGMENT
??_C@_0EE@LMPEHADE@additional?5six?5characters?5expect@ DB 'additional si'
	DB	'x characters expected to parse unicode surrogate pair.', 00H ; `string'
CONST	ENDS
;	COMDAT ??_C@_0BO@NDEEJNNB@Bad?5escape?5sequence?5in?5string?$AA@
CONST	SEGMENT
??_C@_0BO@NDEEJNNB@Bad?5escape?5sequence?5in?5string?$AA@ DB 'Bad escape '
	DB	'sequence in string', 00H			; `string'
CONST	ENDS
;	COMDAT ??_C@_0CA@DPGKPPOE@Empty?5escape?5sequence?5in?5string?$AA@
CONST	SEGMENT
??_C@_0CA@DPGKPPOE@Empty?5escape?5sequence?5in?5string?$AA@ DB 'Empty esc'
	DB	'ape sequence in string', 00H		; `string'
CONST	ENDS
;	COMDAT ??_C@_03DLDNIBIK@?$CFlf?$AA@
CONST	SEGMENT
??_C@_03DLDNIBIK@?$CFlf?$AA@ DB '%lf', 00H		; `string'
CONST	ENDS
;	COMDAT ??_C@_01GEODFPGF@?8?$AA@
CONST	SEGMENT
??_C@_01GEODFPGF@?8?$AA@ DB '''', 00H			; `string'
CONST	ENDS
;	COMDAT ??_C@_0BD@HHNBFDKF@?8?5is?5not?5a?5number?4?$AA@
CONST	SEGMENT
??_C@_0BD@HHNBFDKF@?8?5is?5not?5a?5number?4?$AA@ DB ''' is not a number.', 00H ; `string'
CONST	ENDS
;	COMDAT ??_C@_0CI@DPCANLPO@Missing?5?8?0?8?5or?5?8?$FN?8?5in?5array?5decl@
CONST	SEGMENT
??_C@_0CI@DPCANLPO@Missing?5?8?0?8?5or?5?8?$FN?8?5in?5array?5decl@ DB 'Mi'
	DB	'ssing '','' or '']'' in array declaration', 00H ; `string'
CONST	ENDS
;	COMDAT ??_C@_0CC@JNCGHFHN@Missing?5?8?$HN?8?5or?5object?5member?5nam@
CONST	SEGMENT
??_C@_0CC@JNCGHFHN@Missing?5?8?$HN?8?5or?5object?5member?5nam@ DB 'Missin'
	DB	'g ''}'' or object member name', 00H		; `string'
CONST	ENDS
;	COMDAT ??_C@_0CJ@NGKOAFKA@Missing?5?8?0?8?5or?5?8?$HN?8?5in?5object?5dec@
CONST	SEGMENT
??_C@_0CJ@NGKOAFKA@Missing?5?8?0?8?5or?5?8?$HN?8?5in?5object?5dec@ DB 'Mi'
	DB	'ssing '','' or ''}'' in object declaration', 00H ; `string'
CONST	ENDS
;	COMDAT ??_C@_0CF@GCCDMCPH@Missing?5?8?3?8?5after?5object?5member?5@
CONST	SEGMENT
??_C@_0CF@GCCDMCPH@Missing?5?8?3?8?5after?5object?5member?5@ DB 'Missing '
	DB	''':'' after object member name', 00H	; `string'
CONST	ENDS
;	COMDAT ??_C@_01EEMJAFIK@?6?$AA@
CONST	SEGMENT
??_C@_01EEMJAFIK@?6?$AA@ DB 0aH, 00H			; `string'
CONST	ENDS
;	COMDAT ??_C@_03KNPGGKC@ull?$AA@
CONST	SEGMENT
??_C@_03KNPGGKC@ull?$AA@ DB 'ull', 00H			; `string'
CONST	ENDS
;	COMDAT ??_C@_04KCECFHEP@alse?$AA@
CONST	SEGMENT
??_C@_04KCECFHEP@alse?$AA@ DB 'alse', 00H		; `string'
CONST	ENDS
;	COMDAT ??_C@_03FFDNHNKN@rue?$AA@
CONST	SEGMENT
??_C@_03FFDNHNKN@rue?$AA@ DB 'rue', 00H			; `string'
CONST	ENDS
;	COMDAT ??_C@_0CP@GDDNKEK@Syntax?5error?3?5value?0?5object?5or?5a@
CONST	SEGMENT
??_C@_0CP@GDDNKEK@Syntax?5error?3?5value?0?5object?5or?5a@ DB 'Syntax err'
	DB	'or: value, object or array expected.', 00H	; `string'
CONST	ENDS
;	COMDAT ??_C@_0EC@HCHNIDLM@A?5valid?5JSON?5document?5must?5be?5ei@
CONST	SEGMENT
??_C@_0EC@HCHNIDLM@A?5valid?5JSON?5document?5must?5be?5ei@ DB 'A valid JS'
	DB	'ON document must be either an array or an object value.', 00H ; `string'
CONST	ENDS
;	COMDAT ??_C@_06FHFOAHML@system?$AA@
CONST	SEGMENT
??_C@_06FHFOAHML@system?$AA@ DB 'system', 00H		; `string'
CONST	ENDS
;	COMDAT ??_7_System_error_category@std@@6B@
CONST	SEGMENT
??_7_System_error_category@std@@6B@ DD FLAT:??_R4_System_error_category@std@@6B@ ; std::_System_error_category::`vftable'
	DD	FLAT:??_E_System_error_category@std@@UAEPAXI@Z
	DD	FLAT:?name@_System_error_category@std@@UBEPBDXZ
	DD	FLAT:?message@_System_error_category@std@@UBE?AV?$basic_string@DU?$char_traits@D@std@@V?$allocator@D@2@@2@H@Z
	DD	FLAT:?default_error_condition@_System_error_category@std@@UBE?AVerror_condition@2@H@Z
	DD	FLAT:?equivalent@error_category@std@@UBE_NABVerror_code@2@H@Z
	DD	FLAT:?equivalent@error_category@std@@UBE_NHABVerror_condition@2@@Z
CONST	ENDS
;	COMDAT ??_C@_0BG@PADBLCHM@iostream?5stream?5error?$AA@
CONST	SEGMENT
??_C@_0BG@PADBLCHM@iostream?5stream?5error?$AA@ DB 'iostream stream error'
	DB	00H						; `string'
CONST	ENDS
;	COMDAT ??_C@_08LLGCOLLL@iostream?$AA@
CONST	SEGMENT
??_C@_08LLGCOLLL@iostream?$AA@ DB 'iostream', 00H	; `string'
CONST	ENDS
;	COMDAT ??_7_Iostream_error_category@std@@6B@
CONST	SEGMENT
??_7_Iostream_error_category@std@@6B@ DD FLAT:??_R4_Iostream_error_category@std@@6B@ ; std::_Iostream_error_category::`vftable'
	DD	FLAT:??_E_Iostream_error_category@std@@UAEPAXI@Z
	DD	FLAT:?name@_Iostream_error_category@std@@UBEPBDXZ
	DD	FLAT:?message@_Iostream_error_category@std@@UBE?AV?$basic_string@DU?$char_traits@D@std@@V?$allocator@D@2@@2@H@Z
	DD	FLAT:?default_error_condition@error_category@std@@UBE?AVerror_condition@2@H@Z
	DD	FLAT:?equivalent@error_category@std@@UBE_NABVerror_code@2@H@Z
	DD	FLAT:?equivalent@error_category@std@@UBE_NHABVerror_condition@2@@Z
CONST	ENDS
;	COMDAT ??_C@_0O@BFJCFAAK@unknown?5error?$AA@
CONST	SEGMENT
??_C@_0O@BFJCFAAK@unknown?5error?$AA@ DB 'unknown error', 00H ; `string'
CONST	ENDS
;	COMDAT ??_C@_07DCLBNMLN@generic?$AA@
CONST	SEGMENT
??_C@_07DCLBNMLN@generic?$AA@ DB 'generic', 00H		; `string'
CONST	ENDS
;	COMDAT ??_7_Generic_error_category@std@@6B@
CONST	SEGMENT
??_7_Generic_error_category@std@@6B@ DD FLAT:??_R4_Generic_error_category@std@@6B@ ; std::_Generic_error_category::`vftable'
	DD	FLAT:??_E_Generic_error_category@std@@UAEPAXI@Z
	DD	FLAT:?name@_Generic_error_category@std@@UBEPBDXZ
	DD	FLAT:?message@_Generic_error_category@std@@UBE?AV?$basic_string@DU?$char_traits@D@std@@V?$allocator@D@2@@2@H@Z
	DD	FLAT:?default_error_condition@error_category@std@@UBE?AVerror_condition@2@H@Z
	DD	FLAT:?equivalent@error_category@std@@UBE_NABVerror_code@2@H@Z
	DD	FLAT:?equivalent@error_category@std@@UBE_NHABVerror_condition@2@@Z
CONST	ENDS
;	COMDAT ??_7error_category@std@@6B@
CONST	SEGMENT
??_7error_category@std@@6B@ DD FLAT:??_R4error_category@std@@6B@ ; std::error_category::`vftable'
	DD	FLAT:??_Eerror_category@std@@UAEPAXI@Z
	DD	FLAT:__purecall
	DD	FLAT:__purecall
	DD	FLAT:?default_error_condition@error_category@std@@UBE?AVerror_condition@2@H@Z
	DD	FLAT:?equivalent@error_category@std@@UBE_NABVerror_code@2@H@Z
	DD	FLAT:?equivalent@error_category@std@@UBE_NHABVerror_condition@2@@Z
CONST	ENDS
;	COMDAT ??_C@_00CNPNBAHC@?$AA@
CONST	SEGMENT
??_C@_00CNPNBAHC@?$AA@ DB 00H				; `string'
CONST	ENDS
;	COMDAT __CT??_R0?AVexception@std@@@8??0exception@std@@QAE@ABV01@@Z12
xdata$x	SEGMENT
__CT??_R0?AVexception@std@@@8??0exception@std@@QAE@ABV01@@Z12 DD 00H
	DD	FLAT:??_R0?AVexception@std@@@8
	DD	00H
	DD	0ffffffffH
	ORG $+4
	DD	0cH
	DD	FLAT:??0exception@std@@QAE@ABV01@@Z
xdata$x	ENDS
;	COMDAT ??_R0?AVexception@std@@@8
data$r	SEGMENT
??_R0?AVexception@std@@@8 DD FLAT:??_7type_info@@6B@	; std::exception `RTTI Type Descriptor'
	DD	00H
	DB	'.?AVexception@std@@', 00H
data$r	ENDS
;	COMDAT __CT??_R0?AVruntime_error@std@@@8??0runtime_error@std@@QAE@ABV01@@Z12
xdata$x	SEGMENT
__CT??_R0?AVruntime_error@std@@@8??0runtime_error@std@@QAE@ABV01@@Z12 DD 00H
	DD	FLAT:??_R0?AVruntime_error@std@@@8
	DD	00H
	DD	0ffffffffH
	ORG $+4
	DD	0cH
	DD	FLAT:??0runtime_error@std@@QAE@ABV01@@Z
xdata$x	ENDS
;	COMDAT ??_R0?AVruntime_error@std@@@8
data$r	SEGMENT
??_R0?AVruntime_error@std@@@8 DD FLAT:??_7type_info@@6B@ ; std::runtime_error `RTTI Type Descriptor'
	DD	00H
	DB	'.?AVruntime_error@std@@', 00H
data$r	ENDS
;	COMDAT __CTA2?AVruntime_error@std@@
xdata$x	SEGMENT
__CTA2?AVruntime_error@std@@ DD 02H
	DD	FLAT:__CT??_R0?AVruntime_error@std@@@8??0runtime_error@std@@QAE@ABV01@@Z12
	DD	FLAT:__CT??_R0?AVexception@std@@@8??0exception@std@@QAE@ABV01@@Z12
xdata$x	ENDS
;	COMDAT __TI2?AVruntime_error@std@@
xdata$x	SEGMENT
__TI2?AVruntime_error@std@@ DD 00H
	DD	FLAT:??1runtime_error@std@@UAE@XZ
	DD	00H
	DD	FLAT:__CTA2?AVruntime_error@std@@
xdata$x	ENDS
;	COMDAT ??_7runtime_error@std@@6B@
CONST	SEGMENT
??_7runtime_error@std@@6B@ DD FLAT:??_R4runtime_error@std@@6B@ ; std::runtime_error::`vftable'
	DD	FLAT:??_Eruntime_error@std@@UAEPAXI@Z
	DD	FLAT:?what@exception@std@@UBEPBDXZ
CONST	ENDS
;	COMDAT ?npos@?$basic_string@DU?$char_traits@D@std@@V?$allocator@D@2@@std@@2IB
CONST	SEGMENT
?npos@?$basic_string@DU?$char_traits@D@std@@V?$allocator@D@2@@std@@2IB DD 0ffffffffH ; std::basic_string<char,std::char_traits<char>,std::allocator<char> >::npos
CONST	ENDS
;	COMDAT xdata$x
xdata$x	SEGMENT
__unwindtable$??$construct@U_Container_proxy@std@@U12@@?$allocator@U_Container_proxy@std@@@std@@QAEXPAU_Container_proxy@1@$$QAU21@@Z DD 0ffffffffH
	DD	FLAT:__unwindfunclet$??$construct@U_Container_proxy@std@@U12@@?$allocator@U_Container_proxy@std@@@std@@QAEXPAU_Container_proxy@1@$$QAU21@@Z$0
__ehfuncinfo$??$construct@U_Container_proxy@std@@U12@@?$allocator@U_Container_proxy@std@@@std@@QAEXPAU_Container_proxy@1@$$QAU21@@Z DD 019930522H
	DD	01H
	DD	FLAT:__unwindtable$??$construct@U_Container_proxy@std@@U12@@?$allocator@U_Container_proxy@std@@@std@@QAEXPAU_Container_proxy@1@$$QAU21@@Z
	DD	2 DUP(00H)
	DD	2 DUP(00H)
	DD	00H
	DD	01H
xdata$x	ENDS
;	COMDAT xdata$x
xdata$x	SEGMENT
__unwindtable$??$construct@PAVValue@Json@@PAV12@@?$allocator@PAVValue@Json@@@std@@QAEXPAPAVValue@Json@@$$QAPAV23@@Z DD 0ffffffffH
	DD	FLAT:__unwindfunclet$??$construct@PAVValue@Json@@PAV12@@?$allocator@PAVValue@Json@@@std@@QAEXPAPAVValue@Json@@$$QAPAV23@@Z$0
__ehfuncinfo$??$construct@PAVValue@Json@@PAV12@@?$allocator@PAVValue@Json@@@std@@QAEXPAPAVValue@Json@@$$QAPAV23@@Z DD 019930522H
	DD	01H
	DD	FLAT:__unwindtable$??$construct@PAVValue@Json@@PAV12@@?$allocator@PAVValue@Json@@@std@@QAEXPAPAVValue@Json@@$$QAPAV23@@Z
	DD	2 DUP(00H)
	DD	2 DUP(00H)
	DD	00H
	DD	01H
xdata$x	ENDS
;	COMDAT xdata$x
xdata$x	SEGMENT
__unwindtable$??$construct@PADAAPAD@?$allocator@D@std@@QAEXPAPADAAPAD@Z DD 0ffffffffH
	DD	FLAT:__unwindfunclet$??$construct@PADAAPAD@?$allocator@D@std@@QAEXPAPADAAPAD@Z$0
__ehfuncinfo$??$construct@PADAAPAD@?$allocator@D@std@@QAEXPAPADAAPAD@Z DD 019930522H
	DD	01H
	DD	FLAT:__unwindtable$??$construct@PADAAPAD@?$allocator@D@std@@QAEXPAPADAAPAD@Z
	DD	2 DUP(00H)
	DD	2 DUP(00H)
	DD	00H
	DD	01H
xdata$x	ENDS
;	COMDAT xdata$x
xdata$x	SEGMENT
__unwindtable$??G?$_Deque_iterator@V?$_Deque_val@U?$_Deque_simple_types@PAVValue@Json@@@std@@@std@@@std@@QBE?AV01@H@Z DD 0ffffffffH
	DD	FLAT:__unwindfunclet$??G?$_Deque_iterator@V?$_Deque_val@U?$_Deque_simple_types@PAVValue@Json@@@std@@@std@@@std@@QBE?AV01@H@Z$0
__ehfuncinfo$??G?$_Deque_iterator@V?$_Deque_val@U?$_Deque_simple_types@PAVValue@Json@@@std@@@std@@@std@@QBE?AV01@H@Z DD 019930522H
	DD	01H
	DD	FLAT:__unwindtable$??G?$_Deque_iterator@V?$_Deque_val@U?$_Deque_simple_types@PAVValue@Json@@@std@@@std@@@std@@QBE?AV01@H@Z
	DD	2 DUP(00H)
	DD	2 DUP(00H)
	DD	00H
	DD	01H
xdata$x	ENDS
;	COMDAT xdata$x
xdata$x	SEGMENT
__unwindtable$??0?$_Deque_const_iterator@V?$_Deque_val@U?$_Deque_simple_types@PAVValue@Json@@@std@@@std@@@std@@QAE@IPBU_Container_base12@1@@Z DD 0ffffffffH
	DD	FLAT:__unwindfunclet$??0?$_Deque_const_iterator@V?$_Deque_val@U?$_Deque_simple_types@PAVValue@Json@@@std@@@std@@@std@@QAE@IPBU_Container_base12@1@@Z$0
__ehfuncinfo$??0?$_Deque_const_iterator@V?$_Deque_val@U?$_Deque_simple_types@PAVValue@Json@@@std@@@std@@@std@@QAE@IPBU_Container_base12@1@@Z DD 019930522H
	DD	01H
	DD	FLAT:__unwindtable$??0?$_Deque_const_iterator@V?$_Deque_val@U?$_Deque_simple_types@PAVValue@Json@@@std@@@std@@@std@@QAE@IPBU_Container_base12@1@@Z
	DD	2 DUP(00H)
	DD	2 DUP(00H)
	DD	00H
	DD	01H
xdata$x	ENDS
;	COMDAT xdata$x
xdata$x	SEGMENT
__unwindtable$??0?$_Deque_const_iterator@V?$_Deque_val@U?$_Deque_simple_types@VErrorInfo@Reader@Json@@@std@@@std@@@std@@QAE@IPBU_Container_base12@1@@Z DD 0ffffffffH
	DD	FLAT:__unwindfunclet$??0?$_Deque_const_iterator@V?$_Deque_val@U?$_Deque_simple_types@VErrorInfo@Reader@Json@@@std@@@std@@@std@@QAE@IPBU_Container_base12@1@@Z$0
__ehfuncinfo$??0?$_Deque_const_iterator@V?$_Deque_val@U?$_Deque_simple_types@VErrorInfo@Reader@Json@@@std@@@std@@@std@@QAE@IPBU_Container_base12@1@@Z DD 019930522H
	DD	01H
	DD	FLAT:__unwindtable$??0?$_Deque_const_iterator@V?$_Deque_val@U?$_Deque_simple_types@VErrorInfo@Reader@Json@@@std@@@std@@@std@@QAE@IPBU_Container_base12@1@@Z
	DD	2 DUP(00H)
	DD	2 DUP(00H)
	DD	00H
	DD	01H
xdata$x	ENDS
;	COMDAT xdata$x
xdata$x	SEGMENT
__unwindtable$??$?HDU?$char_traits@D@std@@V?$allocator@D@1@@std@@YA?AV?$basic_string@DU?$char_traits@D@std@@V?$allocator@D@2@@0@PBDABV10@@Z DD 0ffffffffH
	DD	FLAT:__unwindfunclet$??$?HDU?$char_traits@D@std@@V?$allocator@D@1@@std@@YA?AV?$basic_string@DU?$char_traits@D@std@@V?$allocator@D@2@@0@PBDABV10@@Z$0
__ehfuncinfo$??$?HDU?$char_traits@D@std@@V?$allocator@D@1@@std@@YA?AV?$basic_string@DU?$char_traits@D@std@@V?$allocator@D@2@@0@PBDABV10@@Z DD 019930522H
	DD	01H
	DD	FLAT:__unwindtable$??$?HDU?$char_traits@D@std@@V?$allocator@D@1@@std@@YA?AV?$basic_string@DU?$char_traits@D@std@@V?$allocator@D@2@@0@PBDABV10@@Z
	DD	2 DUP(00H)
	DD	2 DUP(00H)
	DD	00H
	DD	01H
xdata$x	ENDS
;	COMDAT xdata$x
xdata$x	SEGMENT
__catchsym$??$getline@DU?$char_traits@D@std@@V?$allocator@D@2@@std@@YAAAV?$basic_istream@DU?$char_traits@D@std@@@0@$$QAV10@AAV?$basic_string@DU?$char_traits@D@std@@V?$allocator@D@2@@0@D@Z$3 DD 040H
	DD	00H
	DD	00H
	DD	FLAT:__catch$??$getline@DU?$char_traits@D@std@@V?$allocator@D@2@@std@@YAAAV?$basic_istream@DU?$char_traits@D@std@@@0@$$QAV10@AAV?$basic_string@DU?$char_traits@D@std@@V?$allocator@D@2@@0@D@Z$0
__tryblocktable$??$getline@DU?$char_traits@D@std@@V?$allocator@D@2@@std@@YAAAV?$basic_istream@DU?$char_traits@D@std@@@0@$$QAV10@AAV?$basic_string@DU?$char_traits@D@std@@V?$allocator@D@2@@0@D@Z DD 01H
	DD	01H
	DD	02H
	DD	01H
	DD	FLAT:__catchsym$??$getline@DU?$char_traits@D@std@@V?$allocator@D@2@@std@@YAAAV?$basic_istream@DU?$char_traits@D@std@@@0@$$QAV10@AAV?$basic_string@DU?$char_traits@D@std@@V?$allocator@D@2@@0@D@Z$3
__unwindtable$??$getline@DU?$char_traits@D@std@@V?$allocator@D@2@@std@@YAAAV?$basic_istream@DU?$char_traits@D@std@@@0@$$QAV10@AAV?$basic_string@DU?$char_traits@D@std@@V?$allocator@D@2@@0@D@Z DD 0ffffffffH
	DD	FLAT:__unwindfunclet$??$getline@DU?$char_traits@D@std@@V?$allocator@D@2@@std@@YAAAV?$basic_istream@DU?$char_traits@D@std@@@0@$$QAV10@AAV?$basic_string@DU?$char_traits@D@std@@V?$allocator@D@2@@0@D@Z$2
	DD	00H
	DD	00H
	DD	00H
	DD	00H
__ehfuncinfo$??$getline@DU?$char_traits@D@std@@V?$allocator@D@2@@std@@YAAAV?$basic_istream@DU?$char_traits@D@std@@@0@$$QAV10@AAV?$basic_string@DU?$char_traits@D@std@@V?$allocator@D@2@@0@D@Z DD 019930522H
	DD	03H
	DD	FLAT:__unwindtable$??$getline@DU?$char_traits@D@std@@V?$allocator@D@2@@std@@YAAAV?$basic_istream@DU?$char_traits@D@std@@@0@$$QAV10@AAV?$basic_string@DU?$char_traits@D@std@@V?$allocator@D@2@@0@D@Z
	DD	01H
	DD	FLAT:__tryblocktable$??$getline@DU?$char_traits@D@std@@V?$allocator@D@2@@std@@YAAAV?$basic_istream@DU?$char_traits@D@std@@@0@$$QAV10@AAV?$basic_string@DU?$char_traits@D@std@@V?$allocator@D@2@@0@D@Z
	DD	2 DUP(00H)
	DD	00H
	DD	01H
xdata$x	ENDS
;	COMDAT xdata$x
xdata$x	SEGMENT
__unwindtable$?codePointToUTF8@Json@@YA?AV?$basic_string@DU?$char_traits@D@std@@V?$allocator@D@2@@std@@I@Z DD 0ffffffffH
	DD	FLAT:__unwindfunclet$?codePointToUTF8@Json@@YA?AV?$basic_string@DU?$char_traits@D@std@@V?$allocator@D@2@@std@@I@Z$0
__ehfuncinfo$?codePointToUTF8@Json@@YA?AV?$basic_string@DU?$char_traits@D@std@@V?$allocator@D@2@@std@@I@Z DD 019930522H
	DD	01H
	DD	FLAT:__unwindtable$?codePointToUTF8@Json@@YA?AV?$basic_string@DU?$char_traits@D@std@@V?$allocator@D@2@@std@@I@Z
	DD	2 DUP(00H)
	DD	2 DUP(00H)
	DD	00H
	DD	01H
xdata$x	ENDS
;	COMDAT xdata$x
xdata$x	SEGMENT
__unwindtable$??5Json@@YAAAV?$basic_istream@DU?$char_traits@D@std@@@std@@AAV12@AAVValue@0@@Z DD 0ffffffffH
	DD	FLAT:__unwindfunclet$??5Json@@YAAAV?$basic_istream@DU?$char_traits@D@std@@@std@@AAV12@AAVValue@0@@Z$0
	DD	00H
	DD	FLAT:__unwindfunclet$??5Json@@YAAAV?$basic_istream@DU?$char_traits@D@std@@@std@@AAV12@AAVValue@0@@Z$1
__ehfuncinfo$??5Json@@YAAAV?$basic_istream@DU?$char_traits@D@std@@@std@@AAV12@AAVValue@0@@Z DD 019930522H
	DD	02H
	DD	FLAT:__unwindtable$??5Json@@YAAAV?$basic_istream@DU?$char_traits@D@std@@@std@@AAV12@AAVValue@0@@Z
	DD	2 DUP(00H)
	DD	2 DUP(00H)
	DD	00H
	DD	01H
xdata$x	ENDS
;	COMDAT xdata$x
xdata$x	SEGMENT
__unwindtable$??0?$_Deque_alloc@$0A@U?$_Deque_base_types@VErrorInfo@Reader@Json@@V?$allocator@VErrorInfo@Reader@Json@@@std@@@std@@@std@@QAE@ABV?$allocator@VErrorInfo@Reader@Json@@@1@@Z DD 0ffffffffH
	DD	FLAT:__unwindfunclet$??0?$_Deque_alloc@$0A@U?$_Deque_base_types@VErrorInfo@Reader@Json@@V?$allocator@VErrorInfo@Reader@Json@@@std@@@std@@@std@@QAE@ABV?$allocator@VErrorInfo@Reader@Json@@@1@@Z$0
__ehfuncinfo$??0?$_Deque_alloc@$0A@U?$_Deque_base_types@VErrorInfo@Reader@Json@@V?$allocator@VErrorInfo@Reader@Json@@@std@@@std@@@std@@QAE@ABV?$allocator@VErrorInfo@Reader@Json@@@1@@Z DD 019930522H
	DD	01H
	DD	FLAT:__unwindtable$??0?$_Deque_alloc@$0A@U?$_Deque_base_types@VErrorInfo@Reader@Json@@V?$allocator@VErrorInfo@Reader@Json@@@std@@@std@@@std@@QAE@ABV?$allocator@VErrorInfo@Reader@Json@@@1@@Z
	DD	2 DUP(00H)
	DD	2 DUP(00H)
	DD	00H
	DD	01H
xdata$x	ENDS
;	COMDAT xdata$x
xdata$x	SEGMENT
__unwindtable$?construct@?$allocator@VErrorInfo@Reader@Json@@@std@@QAEXPAVErrorInfo@Reader@Json@@ABV345@@Z DD 0ffffffffH
	DD	FLAT:__unwindfunclet$?construct@?$allocator@VErrorInfo@Reader@Json@@@std@@QAEXPAVErrorInfo@Reader@Json@@ABV345@@Z$0
__ehfuncinfo$?construct@?$allocator@VErrorInfo@Reader@Json@@@std@@QAEXPAVErrorInfo@Reader@Json@@ABV345@@Z DD 019930522H
	DD	01H
	DD	FLAT:__unwindtable$?construct@?$allocator@VErrorInfo@Reader@Json@@@std@@QAEXPAVErrorInfo@Reader@Json@@ABV345@@Z
	DD	2 DUP(00H)
	DD	2 DUP(00H)
	DD	00H
	DD	01H
xdata$x	ENDS
;	COMDAT xdata$x
xdata$x	SEGMENT
__unwindtable$?construct@?$allocator@VErrorInfo@Reader@Json@@@std@@QAEXPAVErrorInfo@Reader@Json@@@Z DD 0ffffffffH
	DD	FLAT:__unwindfunclet$?construct@?$allocator@VErrorInfo@Reader@Json@@@std@@QAEXPAVErrorInfo@Reader@Json@@@Z$0
__ehfuncinfo$?construct@?$allocator@VErrorInfo@Reader@Json@@@std@@QAEXPAVErrorInfo@Reader@Json@@@Z DD 019930522H
	DD	01H
	DD	FLAT:__unwindtable$?construct@?$allocator@VErrorInfo@Reader@Json@@@std@@QAEXPAVErrorInfo@Reader@Json@@@Z
	DD	2 DUP(00H)
	DD	2 DUP(00H)
	DD	00H
	DD	01H
xdata$x	ENDS
;	COMDAT xdata$x
xdata$x	SEGMENT
__unwindtable$?back@?$deque@PAVValue@Json@@V?$allocator@PAVValue@Json@@@std@@@std@@QAEAAPAVValue@Json@@XZ DD 0ffffffffH
	DD	FLAT:__unwindfunclet$?back@?$deque@PAVValue@Json@@V?$allocator@PAVValue@Json@@@std@@@std@@QAEAAPAVValue@Json@@XZ$0
	DD	00H
	DD	FLAT:__unwindfunclet$?back@?$deque@PAVValue@Json@@V?$allocator@PAVValue@Json@@@std@@@std@@QAEAAPAVValue@Json@@XZ$1
__ehfuncinfo$?back@?$deque@PAVValue@Json@@V?$allocator@PAVValue@Json@@@std@@@std@@QAEAAPAVValue@Json@@XZ DD 019930522H
	DD	02H
	DD	FLAT:__unwindtable$?back@?$deque@PAVValue@Json@@V?$allocator@PAVValue@Json@@@std@@@std@@QAEAAPAVValue@Json@@XZ
	DD	2 DUP(00H)
	DD	2 DUP(00H)
	DD	00H
	DD	01H
xdata$x	ENDS
;	COMDAT xdata$x
xdata$x	SEGMENT
__unwindtable$??0?$_Deque_alloc@$0A@U?$_Deque_base_types@PAVValue@Json@@V?$allocator@PAVValue@Json@@@std@@@std@@@std@@QAE@ABV?$allocator@PAVValue@Json@@@1@@Z DD 0ffffffffH
	DD	FLAT:__unwindfunclet$??0?$_Deque_alloc@$0A@U?$_Deque_base_types@PAVValue@Json@@V?$allocator@PAVValue@Json@@@std@@@std@@@std@@QAE@ABV?$allocator@PAVValue@Json@@@1@@Z$0
__ehfuncinfo$??0?$_Deque_alloc@$0A@U?$_Deque_base_types@PAVValue@Json@@V?$allocator@PAVValue@Json@@@std@@@std@@@std@@QAE@ABV?$allocator@PAVValue@Json@@@1@@Z DD 019930522H
	DD	01H
	DD	FLAT:__unwindtable$??0?$_Deque_alloc@$0A@U?$_Deque_base_types@PAVValue@Json@@V?$allocator@PAVValue@Json@@@std@@@std@@@std@@QAE@ABV?$allocator@PAVValue@Json@@@1@@Z
	DD	2 DUP(00H)
	DD	2 DUP(00H)
	DD	00H
	DD	01H
xdata$x	ENDS
;	COMDAT xdata$x
xdata$x	SEGMENT
__unwindtable$?addComment@Reader@Json@@AAEXPBD0W4CommentPlacement@2@@Z DD 0ffffffffH
	DD	FLAT:__unwindfunclet$?addComment@Reader@Json@@AAEXPBD0W4CommentPlacement@2@@Z$0
	DD	0ffffffffH
	DD	FLAT:__unwindfunclet$?addComment@Reader@Json@@AAEXPBD0W4CommentPlacement@2@@Z$1
__ehfuncinfo$?addComment@Reader@Json@@AAEXPBD0W4CommentPlacement@2@@Z DD 019930522H
	DD	02H
	DD	FLAT:__unwindtable$?addComment@Reader@Json@@AAEXPBD0W4CommentPlacement@2@@Z
	DD	2 DUP(00H)
	DD	2 DUP(00H)
	DD	00H
	DD	01H
xdata$x	ENDS
;	COMDAT xdata$x
xdata$x	SEGMENT
__unwindtable$?addError@Reader@Json@@AAE_NABV?$basic_string@DU?$char_traits@D@std@@V?$allocator@D@2@@std@@AAVToken@12@PBD@Z DD 0ffffffffH
	DD	FLAT:__unwindfunclet$?addError@Reader@Json@@AAE_NABV?$basic_string@DU?$char_traits@D@std@@V?$allocator@D@2@@std@@AAVToken@12@PBD@Z$0
__ehfuncinfo$?addError@Reader@Json@@AAE_NABV?$basic_string@DU?$char_traits@D@std@@V?$allocator@D@2@@std@@AAVToken@12@PBD@Z DD 019930522H
	DD	01H
	DD	FLAT:__unwindtable$?addError@Reader@Json@@AAE_NABV?$basic_string@DU?$char_traits@D@std@@V?$allocator@D@2@@std@@AAVToken@12@PBD@Z
	DD	2 DUP(00H)
	DD	2 DUP(00H)
	DD	00H
	DD	01H
xdata$x	ENDS
;	COMDAT xdata$x
xdata$x	SEGMENT
__unwindtable$?decodeUnicodeEscapeSequence@Reader@Json@@AAE_NAAVToken@12@AAPBDPBDAAI@Z DD 0ffffffffH
	DD	FLAT:__unwindfunclet$?decodeUnicodeEscapeSequence@Reader@Json@@AAE_NAAVToken@12@AAPBDPBDAAI@Z$0
	DD	0ffffffffH
	DD	FLAT:__unwindfunclet$?decodeUnicodeEscapeSequence@Reader@Json@@AAE_NAAVToken@12@AAPBDPBDAAI@Z$1
__ehfuncinfo$?decodeUnicodeEscapeSequence@Reader@Json@@AAE_NAAVToken@12@AAPBDPBDAAI@Z DD 019930522H
	DD	02H
	DD	FLAT:__unwindtable$?decodeUnicodeEscapeSequence@Reader@Json@@AAE_NAAVToken@12@AAPBDPBDAAI@Z
	DD	2 DUP(00H)
	DD	2 DUP(00H)
	DD	00H
	DD	01H
xdata$x	ENDS
;	COMDAT xdata$x
xdata$x	SEGMENT
__unwindtable$?decodeUnicodeCodePoint@Reader@Json@@AAE_NAAVToken@12@AAPBDPBDAAI@Z DD 0ffffffffH
	DD	FLAT:__unwindfunclet$?decodeUnicodeCodePoint@Reader@Json@@AAE_NAAVToken@12@AAPBDPBDAAI@Z$0
	DD	0ffffffffH
	DD	FLAT:__unwindfunclet$?decodeUnicodeCodePoint@Reader@Json@@AAE_NAAVToken@12@AAPBDPBDAAI@Z$1
__ehfuncinfo$?decodeUnicodeCodePoint@Reader@Json@@AAE_NAAVToken@12@AAPBDPBDAAI@Z DD 019930522H
	DD	02H
	DD	FLAT:__unwindtable$?decodeUnicodeCodePoint@Reader@Json@@AAE_NAAVToken@12@AAPBDPBDAAI@Z
	DD	2 DUP(00H)
	DD	2 DUP(00H)
	DD	00H
	DD	01H
xdata$x	ENDS
;	COMDAT xdata$x
xdata$x	SEGMENT
__unwindtable$?decodeDouble@Reader@Json@@AAE_NAAVToken@12@@Z DD 0ffffffffH
	DD	FLAT:__unwindfunclet$?decodeDouble@Reader@Json@@AAE_NAAVToken@12@@Z$1
	DD	00H
	DD	FLAT:__unwindfunclet$?decodeDouble@Reader@Json@@AAE_NAAVToken@12@@Z$2
	DD	01H
	DD	FLAT:__unwindfunclet$?decodeDouble@Reader@Json@@AAE_NAAVToken@12@@Z$3
	DD	0ffffffffH
	DD	FLAT:__unwindfunclet$?decodeDouble@Reader@Json@@AAE_NAAVToken@12@@Z$4
__ehfuncinfo$?decodeDouble@Reader@Json@@AAE_NAAVToken@12@@Z DD 019930522H
	DD	04H
	DD	FLAT:__unwindtable$?decodeDouble@Reader@Json@@AAE_NAAVToken@12@@Z
	DD	2 DUP(00H)
	DD	2 DUP(00H)
	DD	00H
	DD	01H
xdata$x	ENDS
;	COMDAT xdata$x
xdata$x	SEGMENT
__unwindtable$?decodeString@Reader@Json@@AAE_NAAVToken@12@AAV?$basic_string@DU?$char_traits@D@std@@V?$allocator@D@2@@std@@@Z DD 0ffffffffH
	DD	FLAT:__unwindfunclet$?decodeString@Reader@Json@@AAE_NAAVToken@12@AAV?$basic_string@DU?$char_traits@D@std@@V?$allocator@D@2@@std@@@Z$0
	DD	0ffffffffH
	DD	FLAT:__unwindfunclet$?decodeString@Reader@Json@@AAE_NAAVToken@12@AAV?$basic_string@DU?$char_traits@D@std@@V?$allocator@D@2@@std@@@Z$1
	DD	0ffffffffH
	DD	FLAT:__unwindfunclet$?decodeString@Reader@Json@@AAE_NAAVToken@12@AAV?$basic_string@DU?$char_traits@D@std@@V?$allocator@D@2@@std@@@Z$2
__ehfuncinfo$?decodeString@Reader@Json@@AAE_NAAVToken@12@AAV?$basic_string@DU?$char_traits@D@std@@V?$allocator@D@2@@std@@@Z DD 019930522H
	DD	03H
	DD	FLAT:__unwindtable$?decodeString@Reader@Json@@AAE_NAAVToken@12@AAV?$basic_string@DU?$char_traits@D@std@@V?$allocator@D@2@@std@@@Z
	DD	2 DUP(00H)
	DD	2 DUP(00H)
	DD	00H
	DD	01H
xdata$x	ENDS
;	COMDAT xdata$x
xdata$x	SEGMENT
__unwindtable$?decodeString@Reader@Json@@AAE_NAAVToken@12@@Z DD 0ffffffffH
	DD	FLAT:__unwindfunclet$?decodeString@Reader@Json@@AAE_NAAVToken@12@@Z$0
	DD	00H
	DD	FLAT:__unwindfunclet$?decodeString@Reader@Json@@AAE_NAAVToken@12@@Z$1
__ehfuncinfo$?decodeString@Reader@Json@@AAE_NAAVToken@12@@Z DD 019930522H
	DD	02H
	DD	FLAT:__unwindtable$?decodeString@Reader@Json@@AAE_NAAVToken@12@@Z
	DD	2 DUP(00H)
	DD	2 DUP(00H)
	DD	00H
	DD	01H
xdata$x	ENDS
;	COMDAT xdata$x
xdata$x	SEGMENT
__ehfuncinfo$?decodeNumber@Reader@Json@@AAE_NAAVToken@12@@Z DD 019930522H
	DD	06H
	DD	FLAT:__unwindtable$?decodeNumber@Reader@Json@@AAE_NAAVToken@12@@Z
	DD	2 DUP(00H)
	DD	2 DUP(00H)
	DD	00H
	DD	01H
__unwindtable$?decodeNumber@Reader@Json@@AAE_NAAVToken@12@@Z DD 0ffffffffH
	DD	FLAT:__unwindfunclet$?decodeNumber@Reader@Json@@AAE_NAAVToken@12@@Z$0
	DD	00H
	DD	FLAT:__unwindfunclet$?decodeNumber@Reader@Json@@AAE_NAAVToken@12@@Z$1
	DD	01H
	DD	FLAT:__unwindfunclet$?decodeNumber@Reader@Json@@AAE_NAAVToken@12@@Z$2
	DD	0ffffffffH
	DD	FLAT:__unwindfunclet$?decodeNumber@Reader@Json@@AAE_NAAVToken@12@@Z$3
	DD	0ffffffffH
	DD	FLAT:__unwindfunclet$?decodeNumber@Reader@Json@@AAE_NAAVToken@12@@Z$4
	DD	0ffffffffH
	DD	FLAT:__unwindfunclet$?decodeNumber@Reader@Json@@AAE_NAAVToken@12@@Z$5
xdata$x	ENDS
;	COMDAT xdata$x
xdata$x	SEGMENT
__unwindtable$?readArray@Reader@Json@@AAE_NAAVToken@12@@Z DD 0ffffffffH
	DD	FLAT:__unwindfunclet$?readArray@Reader@Json@@AAE_NAAVToken@12@@Z$0
	DD	0ffffffffH
	DD	FLAT:__unwindfunclet$?readArray@Reader@Json@@AAE_NAAVToken@12@@Z$1
__ehfuncinfo$?readArray@Reader@Json@@AAE_NAAVToken@12@@Z DD 019930522H
	DD	02H
	DD	FLAT:__unwindtable$?readArray@Reader@Json@@AAE_NAAVToken@12@@Z
	DD	2 DUP(00H)
	DD	2 DUP(00H)
	DD	00H
	DD	01H
xdata$x	ENDS
;	COMDAT xdata$x
xdata$x	SEGMENT
__ehfuncinfo$?readObject@Reader@Json@@AAE_NAAVToken@12@@Z DD 019930522H
	DD	05H
	DD	FLAT:__unwindtable$?readObject@Reader@Json@@AAE_NAAVToken@12@@Z
	DD	2 DUP(00H)
	DD	2 DUP(00H)
	DD	00H
	DD	01H
__unwindtable$?readObject@Reader@Json@@AAE_NAAVToken@12@@Z DD 0ffffffffH
	DD	FLAT:__unwindfunclet$?readObject@Reader@Json@@AAE_NAAVToken@12@@Z$0
	DD	00H
	DD	FLAT:__unwindfunclet$?readObject@Reader@Json@@AAE_NAAVToken@12@@Z$1
	DD	00H
	DD	FLAT:__unwindfunclet$?readObject@Reader@Json@@AAE_NAAVToken@12@@Z$2
	DD	00H
	DD	FLAT:__unwindfunclet$?readObject@Reader@Json@@AAE_NAAVToken@12@@Z$3
	DD	00H
	DD	FLAT:__unwindfunclet$?readObject@Reader@Json@@AAE_NAAVToken@12@@Z$4
xdata$x	ENDS
;	COMDAT xdata$x
xdata$x	SEGMENT
__unwindtable$?readValue@Reader@Json@@AAE_NXZ DD 0ffffffffH
	DD	FLAT:__unwindfunclet$?readValue@Reader@Json@@AAE_NXZ$0
	DD	0ffffffffH
	DD	FLAT:__unwindfunclet$?readValue@Reader@Json@@AAE_NXZ$1
	DD	0ffffffffH
	DD	FLAT:__unwindfunclet$?readValue@Reader@Json@@AAE_NXZ$2
	DD	0ffffffffH
	DD	FLAT:__unwindfunclet$?readValue@Reader@Json@@AAE_NXZ$3
__ehfuncinfo$?readValue@Reader@Json@@AAE_NXZ DD 019930522H
	DD	04H
	DD	FLAT:__unwindtable$?readValue@Reader@Json@@AAE_NXZ
	DD	2 DUP(00H)
	DD	2 DUP(00H)
	DD	00H
	DD	01H
xdata$x	ENDS
;	COMDAT xdata$x
xdata$x	SEGMENT
__unwindtable$?expectToken@Reader@Json@@AAE_NW4TokenType@12@AAVToken@12@PBD@Z DD 0ffffffffH
	DD	FLAT:__unwindfunclet$?expectToken@Reader@Json@@AAE_NW4TokenType@12@AAVToken@12@PBD@Z$0
__ehfuncinfo$?expectToken@Reader@Json@@AAE_NW4TokenType@12@AAVToken@12@PBD@Z DD 019930522H
	DD	01H
	DD	FLAT:__unwindtable$?expectToken@Reader@Json@@AAE_NW4TokenType@12@AAVToken@12@PBD@Z
	DD	2 DUP(00H)
	DD	2 DUP(00H)
	DD	00H
	DD	01H
xdata$x	ENDS
;	COMDAT xdata$x
xdata$x	SEGMENT
__ehfuncinfo$?getFormatedErrorMessages@Reader@Json@@QBE?AV?$basic_string@DU?$char_traits@D@std@@V?$allocator@D@2@@std@@XZ DD 019930522H
	DD	0bH
	DD	FLAT:__unwindtable$?getFormatedErrorMessages@Reader@Json@@QBE?AV?$basic_string@DU?$char_traits@D@std@@V?$allocator@D@2@@std@@XZ
	DD	2 DUP(00H)
	DD	2 DUP(00H)
	DD	00H
	DD	01H
__unwindtable$?getFormatedErrorMessages@Reader@Json@@QBE?AV?$basic_string@DU?$char_traits@D@std@@V?$allocator@D@2@@std@@XZ DD 0ffffffffH
	DD	FLAT:__unwindfunclet$?getFormatedErrorMessages@Reader@Json@@QBE?AV?$basic_string@DU?$char_traits@D@std@@V?$allocator@D@2@@std@@XZ$0
	DD	00H
	DD	FLAT:__unwindfunclet$?getFormatedErrorMessages@Reader@Json@@QBE?AV?$basic_string@DU?$char_traits@D@std@@V?$allocator@D@2@@std@@XZ$1
	DD	01H
	DD	FLAT:__unwindfunclet$?getFormatedErrorMessages@Reader@Json@@QBE?AV?$basic_string@DU?$char_traits@D@std@@V?$allocator@D@2@@std@@XZ$2
	DD	01H
	DD	FLAT:__unwindfunclet$?getFormatedErrorMessages@Reader@Json@@QBE?AV?$basic_string@DU?$char_traits@D@std@@V?$allocator@D@2@@std@@XZ$3
	DD	03H
	DD	FLAT:__unwindfunclet$?getFormatedErrorMessages@Reader@Json@@QBE?AV?$basic_string@DU?$char_traits@D@std@@V?$allocator@D@2@@std@@XZ$4
	DD	04H
	DD	FLAT:__unwindfunclet$?getFormatedErrorMessages@Reader@Json@@QBE?AV?$basic_string@DU?$char_traits@D@std@@V?$allocator@D@2@@std@@XZ$5
	DD	01H
	DD	FLAT:__unwindfunclet$?getFormatedErrorMessages@Reader@Json@@QBE?AV?$basic_string@DU?$char_traits@D@std@@V?$allocator@D@2@@std@@XZ$6
	DD	06H
	DD	FLAT:__unwindfunclet$?getFormatedErrorMessages@Reader@Json@@QBE?AV?$basic_string@DU?$char_traits@D@std@@V?$allocator@D@2@@std@@XZ$7
	DD	01H
	DD	FLAT:__unwindfunclet$?getFormatedErrorMessages@Reader@Json@@QBE?AV?$basic_string@DU?$char_traits@D@std@@V?$allocator@D@2@@std@@XZ$8
	DD	08H
	DD	FLAT:__unwindfunclet$?getFormatedErrorMessages@Reader@Json@@QBE?AV?$basic_string@DU?$char_traits@D@std@@V?$allocator@D@2@@std@@XZ$9
	DD	09H
	DD	FLAT:__unwindfunclet$?getFormatedErrorMessages@Reader@Json@@QBE?AV?$basic_string@DU?$char_traits@D@std@@V?$allocator@D@2@@std@@XZ$10
xdata$x	ENDS
;	COMDAT xdata$x
xdata$x	SEGMENT
__unwindtable$?parse@Reader@Json@@QAE_NAAV?$basic_istream@DU?$char_traits@D@std@@@std@@AAVValue@2@_N@Z DD 0ffffffffH
	DD	FLAT:__unwindfunclet$?parse@Reader@Json@@QAE_NAAV?$basic_istream@DU?$char_traits@D@std@@@std@@AAVValue@2@_N@Z$0
__ehfuncinfo$?parse@Reader@Json@@QAE_NAAV?$basic_istream@DU?$char_traits@D@std@@@std@@AAVValue@2@_N@Z DD 019930522H
	DD	01H
	DD	FLAT:__unwindtable$?parse@Reader@Json@@QAE_NAAV?$basic_istream@DU?$char_traits@D@std@@@std@@AAVValue@2@_N@Z
	DD	2 DUP(00H)
	DD	2 DUP(00H)
	DD	00H
	DD	01H
xdata$x	ENDS
;	COMDAT xdata$x
xdata$x	SEGMENT
__unwindtable$?parse@Reader@Json@@QAE_NPBD0AAVValue@2@_N@Z DD 0ffffffffH
	DD	FLAT:__unwindfunclet$?parse@Reader@Json@@QAE_NPBD0AAVValue@2@_N@Z$0
__ehfuncinfo$?parse@Reader@Json@@QAE_NPBD0AAVValue@2@_N@Z DD 019930522H
	DD	01H
	DD	FLAT:__unwindtable$?parse@Reader@Json@@QAE_NPBD0AAVValue@2@_N@Z
	DD	2 DUP(00H)
	DD	2 DUP(00H)
	DD	00H
	DD	01H
xdata$x	ENDS
;	COMDAT xdata$x
xdata$x	SEGMENT
__unwindtable$??0Reader@Json@@QAE@ABVFeatures@1@@Z DD 0ffffffffH
	DD	FLAT:__unwindfunclet$??0Reader@Json@@QAE@ABVFeatures@1@@Z$0
	DD	00H
	DD	FLAT:__unwindfunclet$??0Reader@Json@@QAE@ABVFeatures@1@@Z$1
	DD	01H
	DD	FLAT:__unwindfunclet$??0Reader@Json@@QAE@ABVFeatures@1@@Z$2
__ehfuncinfo$??0Reader@Json@@QAE@ABVFeatures@1@@Z DD 019930522H
	DD	03H
	DD	FLAT:__unwindtable$??0Reader@Json@@QAE@ABVFeatures@1@@Z
	DD	2 DUP(00H)
	DD	2 DUP(00H)
	DD	00H
	DD	01H
xdata$x	ENDS
;	COMDAT xdata$x
xdata$x	SEGMENT
__unwindtable$??0Reader@Json@@QAE@XZ DD 0ffffffffH
	DD	FLAT:__unwindfunclet$??0Reader@Json@@QAE@XZ$0
	DD	00H
	DD	FLAT:__unwindfunclet$??0Reader@Json@@QAE@XZ$1
	DD	01H
	DD	FLAT:__unwindfunclet$??0Reader@Json@@QAE@XZ$2
	DD	02H
	DD	FLAT:__unwindfunclet$??0Reader@Json@@QAE@XZ$3
__ehfuncinfo$??0Reader@Json@@QAE@XZ DD 019930522H
	DD	04H
	DD	FLAT:__unwindtable$??0Reader@Json@@QAE@XZ
	DD	2 DUP(00H)
	DD	2 DUP(00H)
	DD	00H
	DD	01H
xdata$x	ENDS
;	COMDAT xdata$x
xdata$x	SEGMENT
__unwindtable$??0sentry@?$basic_istream@DU?$char_traits@D@std@@@std@@QAE@AAV12@_N@Z DD 0ffffffffH
	DD	FLAT:__unwindfunclet$??0sentry@?$basic_istream@DU?$char_traits@D@std@@@std@@QAE@AAV12@_N@Z$0
__ehfuncinfo$??0sentry@?$basic_istream@DU?$char_traits@D@std@@@std@@QAE@AAV12@_N@Z DD 019930522H
	DD	01H
	DD	FLAT:__unwindtable$??0sentry@?$basic_istream@DU?$char_traits@D@std@@@std@@QAE@AAV12@_N@Z
	DD	2 DUP(00H)
	DD	2 DUP(00H)
	DD	00H
	DD	01H
xdata$x	ENDS
;	COMDAT xdata$x
xdata$x	SEGMENT
__catchsym$?_Copy@?$basic_string@DU?$char_traits@D@std@@V?$allocator@D@2@@std@@QAEXII@Z$5 DD 040H
	DD	00H
	DD	00H
	DD	FLAT:__catch$?_Copy@?$basic_string@DU?$char_traits@D@std@@V?$allocator@D@2@@std@@QAEXII@Z$0
__catchsym$?_Copy@?$basic_string@DU?$char_traits@D@std@@V?$allocator@D@2@@std@@QAEXII@Z$4 DD 040H
	DD	00H
	DD	00H
	DD	FLAT:__catch$?_Copy@?$basic_string@DU?$char_traits@D@std@@V?$allocator@D@2@@std@@QAEXII@Z$1
__unwindtable$?_Copy@?$basic_string@DU?$char_traits@D@std@@V?$allocator@D@2@@std@@QAEXII@Z DD 0ffffffffH
	DD	00H
	DD	0ffffffffH
	DD	00H
	DD	01H
	DD	00H
	DD	01H
	DD	00H
__ehfuncinfo$?_Copy@?$basic_string@DU?$char_traits@D@std@@V?$allocator@D@2@@std@@QAEXII@Z DD 019930522H
	DD	04H
	DD	FLAT:__unwindtable$?_Copy@?$basic_string@DU?$char_traits@D@std@@V?$allocator@D@2@@std@@QAEXII@Z
	DD	02H
	DD	FLAT:__tryblocktable$?_Copy@?$basic_string@DU?$char_traits@D@std@@V?$allocator@D@2@@std@@QAEXII@Z
	DD	2 DUP(00H)
	DD	00H
	DD	01H
__tryblocktable$?_Copy@?$basic_string@DU?$char_traits@D@std@@V?$allocator@D@2@@std@@QAEXII@Z DD 02H
	DD	02H
	DD	03H
	DD	01H
	DD	FLAT:__catchsym$?_Copy@?$basic_string@DU?$char_traits@D@std@@V?$allocator@D@2@@std@@QAEXII@Z$4
	DD	00H
	DD	00H
	DD	03H
	DD	01H
	DD	FLAT:__catchsym$?_Copy@?$basic_string@DU?$char_traits@D@std@@V?$allocator@D@2@@std@@QAEXII@Z$5
xdata$x	ENDS
CRT$XCU	SEGMENT
_allocator_arg$initializer$ DD FLAT:??__Eallocator_arg@std@@YAXXZ
CRT$XCU	ENDS
CRT$XCU	SEGMENT
_ignore$initializer$ DD FLAT:??__Eignore@std@@YAXXZ
CRT$XCU	ENDS
CRT$XCU	SEGMENT
__Tuple_alloc$initializer$ DD FLAT:??__E_Tuple_alloc@std@@YAXXZ
CRT$XCU	ENDS
;	COMDAT CRT$XCU
CRT$XCU	SEGMENT
?_Generic_object$initializer$@?$_Error_objects@H@std@@2P6AXXZA DD FLAT:??__E?_Generic_object@?$_Error_objects@H@std@@2V_Generic_error_category@2@A@@YAXXZ ; std::_Error_objects<int>::_Generic_object$initializer$
CRT$XCU	ENDS
;	COMDAT CRT$XCU
CRT$XCU	SEGMENT
?_Iostream_object$initializer$@?$_Error_objects@H@std@@2P6AXXZA DD FLAT:??__E?_Iostream_object@?$_Error_objects@H@std@@2V_Iostream_error_category@2@A@@YAXXZ ; std::_Error_objects<int>::_Iostream_object$initializer$
CRT$XCU	ENDS
;	COMDAT CRT$XCU
CRT$XCU	SEGMENT
?_System_object$initializer$@?$_Error_objects@H@std@@2P6AXXZA DD FLAT:??__E?_System_object@?$_Error_objects@H@std@@2V_System_error_category@2@A@@YAXXZ ; std::_Error_objects<int>::_System_object$initializer$
CRT$XCU	ENDS
;	COMDAT CRT$XCU
CRT$XCU	SEGMENT
?id$initializer$@?$num_put@DV?$back_insert_iterator@V?$basic_string@DU?$char_traits@D@std@@V?$allocator@D@2@@std@@@std@@@std@@2P6AXXZA DD FLAT:??__E?id@?$num_put@DV?$back_insert_iterator@V?$basic_string@DU?$char_traits@D@std@@V?$allocator@D@2@@std@@@std@@@std@@2V0locale@2@A@@YAXXZ ; std::num_put<char,std::back_insert_iterator<std::basic_string<char,std::char_traits<char>,std::allocator<char> > > >::id$initializer$
CRT$XCU	ENDS
;	COMDAT CRT$XCU
CRT$XCU	SEGMENT
?id$initializer$@?$num_put@_WV?$back_insert_iterator@V?$basic_string@_WU?$char_traits@_W@std@@V?$allocator@_W@2@@std@@@std@@@std@@2P6AXXZA DD FLAT:??__E?id@?$num_put@_WV?$back_insert_iterator@V?$basic_string@_WU?$char_traits@_W@std@@V?$allocator@_W@2@@std@@@std@@@std@@2V0locale@2@A@@YAXXZ ; std::num_put<wchar_t,std::back_insert_iterator<std::basic_string<wchar_t,std::char_traits<wchar_t>,std::allocator<wchar_t> > > >::id$initializer$
CRT$XCU	ENDS
; Function compile flags: /Odtp
; File c:\program files (x86)\microsoft visual studio 12.0\vc\include\xmemory0
;	COMDAT ??$construct@U_Container_proxy@std@@U12@@?$allocator@U_Container_proxy@std@@@std@@QAEXPAU_Container_proxy@1@$$QAU21@@Z
_TEXT	SEGMENT
$T2 = -28						; size = 4
_this$ = -24						; size = 4
tv74 = -20						; size = 4
$T3 = -16						; size = 4
__$EHRec$ = -12						; size = 12
__Ptr$ = 8						; size = 4
_<_Args_0>$ = 12					; size = 4
??$construct@U_Container_proxy@std@@U12@@?$allocator@U_Container_proxy@std@@@std@@QAEXPAU_Container_proxy@1@$$QAU21@@Z PROC ; std::allocator<std::_Container_proxy>::construct<std::_Container_proxy,std::_Container_proxy>, COMDAT
; _this$ = ecx

; 598  : 		void construct(_Objty *_Ptr, _Types&&... _Args)

	push	ebp
	mov	ebp, esp
	push	-1
	push	__ehhandler$??$construct@U_Container_proxy@std@@U12@@?$allocator@U_Container_proxy@std@@@std@@QAEXPAU_Container_proxy@1@$$QAU21@@Z
	mov	eax, DWORD PTR fs:0
	push	eax
	sub	esp, 16					; 00000010H
	mov	eax, DWORD PTR ___security_cookie
	xor	eax, ebp
	push	eax
	lea	eax, DWORD PTR __$EHRec$[ebp]
	mov	DWORD PTR fs:0, eax
	mov	DWORD PTR _this$[ebp], ecx

; 599  : 		{	// construct _Objty(_Types...) at _Ptr
; 600  : 		::new ((void *)_Ptr) _Objty(_STD forward<_Types>(_Args)...);

	mov	eax, DWORD PTR __Ptr$[ebp]
	push	eax
	push	8
	call	??2@YAPAXIPAX@Z				; operator new
	add	esp, 8
	mov	DWORD PTR $T3[ebp], eax
	mov	DWORD PTR __$EHRec$[ebp+8], 0
	cmp	DWORD PTR $T3[ebp], 0
	je	SHORT $LN3@construct
	mov	ecx, DWORD PTR _<_Args_0>$[ebp]
	push	ecx
	call	??$forward@U_Container_proxy@std@@@std@@YA$$QAU_Container_proxy@0@AAU10@@Z ; std::forward<std::_Container_proxy>
	add	esp, 4
	mov	edx, DWORD PTR [eax]
	mov	eax, DWORD PTR [eax+4]
	mov	ecx, DWORD PTR $T3[ebp]
	mov	DWORD PTR [ecx], edx
	mov	DWORD PTR [ecx+4], eax
	mov	edx, DWORD PTR $T3[ebp]
	mov	DWORD PTR tv74[ebp], edx
	jmp	SHORT $LN4@construct
$LN3@construct:
	mov	DWORD PTR tv74[ebp], 0
$LN4@construct:
	mov	eax, DWORD PTR tv74[ebp]
	mov	DWORD PTR $T2[ebp], eax
	mov	DWORD PTR __$EHRec$[ebp+8], -1

; 601  : 		}

	mov	ecx, DWORD PTR __$EHRec$[ebp]
	mov	DWORD PTR fs:0, ecx
	pop	ecx
	mov	esp, ebp
	pop	ebp
	ret	8
_TEXT	ENDS
;	COMDAT text$x
text$x	SEGMENT
__unwindfunclet$??$construct@U_Container_proxy@std@@U12@@?$allocator@U_Container_proxy@std@@@std@@QAEXPAU_Container_proxy@1@$$QAU21@@Z$0:
	mov	eax, DWORD PTR __Ptr$[ebp]
	push	eax
	mov	eax, DWORD PTR $T3[ebp]
	push	eax
	call	??3@YAXPAX0@Z				; operator delete
	add	esp, 8
	ret	0
__ehhandler$??$construct@U_Container_proxy@std@@U12@@?$allocator@U_Container_proxy@std@@@std@@QAEXPAU_Container_proxy@1@$$QAU21@@Z:
	mov	edx, DWORD PTR [esp+8]
	lea	eax, DWORD PTR [edx+12]
	mov	ecx, DWORD PTR [edx-20]
	xor	ecx, eax
	call	@__security_check_cookie@4
	mov	eax, OFFSET __ehfuncinfo$??$construct@U_Container_proxy@std@@U12@@?$allocator@U_Container_proxy@std@@@std@@QAEXPAU_Container_proxy@1@$$QAU21@@Z
	jmp	___CxxFrameHandler3
text$x	ENDS
??$construct@U_Container_proxy@std@@U12@@?$allocator@U_Container_proxy@std@@@std@@QAEXPAU_Container_proxy@1@$$QAU21@@Z ENDP ; std::allocator<std::_Container_proxy>::construct<std::_Container_proxy,std::_Container_proxy>
; Function compile flags: /Odtp
; File c:\program files (x86)\microsoft visual studio 12.0\vc\include\xmemory0
;	COMDAT ??$destroy@U_Container_proxy@std@@@?$allocator@U_Container_proxy@std@@@std@@QAEXPAU_Container_proxy@1@@Z
_TEXT	SEGMENT
_this$ = -4						; size = 4
__Ptr$ = 8						; size = 4
??$destroy@U_Container_proxy@std@@@?$allocator@U_Container_proxy@std@@@std@@QAEXPAU_Container_proxy@1@@Z PROC ; std::allocator<std::_Container_proxy>::destroy<std::_Container_proxy>, COMDAT
; _this$ = ecx

; 605  : 		void destroy(_Uty *_Ptr)

	push	ebp
	mov	ebp, esp
	push	ecx
	mov	DWORD PTR _this$[ebp], ecx

; 606  : 		{	// destroy object at _Ptr
; 607  : 		_Ptr->~_Uty();
; 608  : 		}

	mov	esp, ebp
	pop	ebp
	ret	4
??$destroy@U_Container_proxy@std@@@?$allocator@U_Container_proxy@std@@@std@@QAEXPAU_Container_proxy@1@@Z ENDP ; std::allocator<std::_Container_proxy>::destroy<std::_Container_proxy>
_TEXT	ENDS
; Function compile flags: /Odtp
; File c:\program files (x86)\microsoft visual studio 12.0\vc\include\xutility
;	COMDAT ??$_Fill_n@PAPAPAVValue@Json@@IPAPAV12@@std@@YAPAPAPAVValue@Json@@PAPAPAV12@IABQAPAV12@@Z
_TEXT	SEGMENT
__Dest$ = 8						; size = 4
__Count$ = 12						; size = 4
__Val$ = 16						; size = 4
??$_Fill_n@PAPAPAVValue@Json@@IPAPAV12@@std@@YAPAPAPAVValue@Json@@PAPAPAV12@IABQAPAV12@@Z PROC ; std::_Fill_n<Json::Value * * *,unsigned int,Json::Value * *>, COMDAT

; 2631 : 	{	// copy _Val _Count times through [_Dest, ...)

	push	ebp
	mov	ebp, esp

; 2632 : 	for (; 0 < _Count; --_Count, ++_Dest)

	jmp	SHORT $LN3@Fill_n
$LN2@Fill_n:
	mov	eax, DWORD PTR __Count$[ebp]
	sub	eax, 1
	mov	DWORD PTR __Count$[ebp], eax
	mov	ecx, DWORD PTR __Dest$[ebp]
	add	ecx, 4
	mov	DWORD PTR __Dest$[ebp], ecx
$LN3@Fill_n:
	cmp	DWORD PTR __Count$[ebp], 0
	jbe	SHORT $LN1@Fill_n

; 2633 : 		*_Dest = _Val;

	mov	edx, DWORD PTR __Dest$[ebp]
	mov	eax, DWORD PTR __Val$[ebp]
	mov	ecx, DWORD PTR [eax]
	mov	DWORD PTR [edx], ecx
	jmp	SHORT $LN2@Fill_n
$LN1@Fill_n:

; 2634 : 	return (_Dest);

	mov	eax, DWORD PTR __Dest$[ebp]

; 2635 : 	}

	pop	ebp
	ret	0
??$_Fill_n@PAPAPAVValue@Json@@IPAPAV12@@std@@YAPAPAPAVValue@Json@@PAPAPAV12@IABQAPAV12@@Z ENDP ; std::_Fill_n<Json::Value * * *,unsigned int,Json::Value * *>
_TEXT	ENDS
; Function compile flags: /Odtp
; File c:\program files (x86)\microsoft visual studio 12.0\vc\include\xmemory
;	COMDAT ??$_Uninit_copy@PAPAVValue@Json@@PAPAV12@@std@@YAPAPAPAVValue@Json@@PAPAPAV12@00AAU?$_Wrap_alloc@V?$allocator@PAPAVValue@Json@@@std@@@0@U_Scalar_ptr_iterator_tag@0@@Z
_TEXT	SEGMENT
__Count$ = -4						; size = 4
__First$ = 8						; size = 4
__Last$ = 12						; size = 4
__Dest$ = 16						; size = 4
___formal$ = 20						; size = 4
___formal$ = 24						; size = 1
??$_Uninit_copy@PAPAVValue@Json@@PAPAV12@@std@@YAPAPAPAVValue@Json@@PAPAPAV12@00AAU?$_Wrap_alloc@V?$allocator@PAPAVValue@Json@@@std@@@0@U_Scalar_ptr_iterator_tag@0@@Z PROC ; std::_Uninit_copy<Json::Value * *,Json::Value * *>, COMDAT

; 401  : 	{	// copy [_First, _Last) to raw _Dest, scalar type

	push	ebp
	mov	ebp, esp
	push	ecx

; 402  : 	_DEBUG_RANGE(_First, _Last);
; 403  : 	_DEBUG_POINTER(_Dest);
; 404  : 	size_t _Count = (size_t)(_Last - _First);

	mov	eax, DWORD PTR __Last$[ebp]
	sub	eax, DWORD PTR __First$[ebp]
	sar	eax, 2
	mov	DWORD PTR __Count$[ebp], eax

; 405  : 	return ((_Ty2 *)_CSTD memmove(&*_Dest, &*_First,
; 406  : 		_Count * sizeof (*_First)) + _Count);	// NB: non-overlapping move

	mov	ecx, DWORD PTR __Count$[ebp]
	shl	ecx, 2
	push	ecx
	mov	edx, DWORD PTR __First$[ebp]
	push	edx
	mov	eax, DWORD PTR __Dest$[ebp]
	push	eax
	call	DWORD PTR __imp__memmove
	add	esp, 12					; 0000000cH
	mov	ecx, DWORD PTR __Count$[ebp]
	lea	eax, DWORD PTR [eax+ecx*4]

; 407  : 	}

	mov	esp, ebp
	pop	ebp
	ret	0
??$_Uninit_copy@PAPAVValue@Json@@PAPAV12@@std@@YAPAPAPAVValue@Json@@PAPAPAV12@00AAU?$_Wrap_alloc@V?$allocator@PAPAVValue@Json@@@std@@@0@U_Scalar_ptr_iterator_tag@0@@Z ENDP ; std::_Uninit_copy<Json::Value * *,Json::Value * *>
_TEXT	ENDS
; Function compile flags: /Odtp
; File c:\program files (x86)\microsoft visual studio 12.0\vc\include\xmemory0
;	COMDAT ??$destroy@PAVErrorInfo@Reader@Json@@@?$allocator@VErrorInfo@Reader@Json@@@std@@QAEXPAPAVErrorInfo@Reader@Json@@@Z
_TEXT	SEGMENT
_this$ = -4						; size = 4
__Ptr$ = 8						; size = 4
??$destroy@PAVErrorInfo@Reader@Json@@@?$allocator@VErrorInfo@Reader@Json@@@std@@QAEXPAPAVErrorInfo@Reader@Json@@@Z PROC ; std::allocator<Json::Reader::ErrorInfo>::destroy<Json::Reader::ErrorInfo *>, COMDAT
; _this$ = ecx

; 605  : 		void destroy(_Uty *_Ptr)

	push	ebp
	mov	ebp, esp
	push	ecx
	mov	DWORD PTR _this$[ebp], ecx

; 606  : 		{	// destroy object at _Ptr
; 607  : 		_Ptr->~_Uty();
; 608  : 		}

	mov	esp, ebp
	pop	ebp
	ret	4
??$destroy@PAVErrorInfo@Reader@Json@@@?$allocator@VErrorInfo@Reader@Json@@@std@@QAEXPAPAVErrorInfo@Reader@Json@@@Z ENDP ; std::allocator<Json::Reader::ErrorInfo>::destroy<Json::Reader::ErrorInfo *>
_TEXT	ENDS
; Function compile flags: /Odtp
; File c:\program files (x86)\microsoft visual studio 12.0\vc\include\xutility
;	COMDAT ??$_Fill_n@PAPAVErrorInfo@Reader@Json@@IPAV123@@std@@YAPAPAVErrorInfo@Reader@Json@@PAPAV123@IABQAV123@@Z
_TEXT	SEGMENT
__Dest$ = 8						; size = 4
__Count$ = 12						; size = 4
__Val$ = 16						; size = 4
??$_Fill_n@PAPAVErrorInfo@Reader@Json@@IPAV123@@std@@YAPAPAVErrorInfo@Reader@Json@@PAPAV123@IABQAV123@@Z PROC ; std::_Fill_n<Json::Reader::ErrorInfo * *,unsigned int,Json::Reader::ErrorInfo *>, COMDAT

; 2631 : 	{	// copy _Val _Count times through [_Dest, ...)

	push	ebp
	mov	ebp, esp

; 2632 : 	for (; 0 < _Count; --_Count, ++_Dest)

	jmp	SHORT $LN3@Fill_n
$LN2@Fill_n:
	mov	eax, DWORD PTR __Count$[ebp]
	sub	eax, 1
	mov	DWORD PTR __Count$[ebp], eax
	mov	ecx, DWORD PTR __Dest$[ebp]
	add	ecx, 4
	mov	DWORD PTR __Dest$[ebp], ecx
$LN3@Fill_n:
	cmp	DWORD PTR __Count$[ebp], 0
	jbe	SHORT $LN1@Fill_n

; 2633 : 		*_Dest = _Val;

	mov	edx, DWORD PTR __Dest$[ebp]
	mov	eax, DWORD PTR __Val$[ebp]
	mov	ecx, DWORD PTR [eax]
	mov	DWORD PTR [edx], ecx
	jmp	SHORT $LN2@Fill_n
$LN1@Fill_n:

; 2634 : 	return (_Dest);

	mov	eax, DWORD PTR __Dest$[ebp]

; 2635 : 	}

	pop	ebp
	ret	0
??$_Fill_n@PAPAVErrorInfo@Reader@Json@@IPAV123@@std@@YAPAPAVErrorInfo@Reader@Json@@PAPAV123@IABQAV123@@Z ENDP ; std::_Fill_n<Json::Reader::ErrorInfo * *,unsigned int,Json::Reader::ErrorInfo *>
_TEXT	ENDS
; Function compile flags: /Odtp
; File c:\program files (x86)\microsoft visual studio 12.0\vc\include\xmemory
;	COMDAT ??$_Uninit_copy@PAVErrorInfo@Reader@Json@@PAV123@@std@@YAPAPAVErrorInfo@Reader@Json@@PAPAV123@00AAU?$_Wrap_alloc@V?$allocator@PAVErrorInfo@Reader@Json@@@std@@@0@U_Scalar_ptr_iterator_tag@0@@Z
_TEXT	SEGMENT
__Count$ = -4						; size = 4
__First$ = 8						; size = 4
__Last$ = 12						; size = 4
__Dest$ = 16						; size = 4
___formal$ = 20						; size = 4
___formal$ = 24						; size = 1
??$_Uninit_copy@PAVErrorInfo@Reader@Json@@PAV123@@std@@YAPAPAVErrorInfo@Reader@Json@@PAPAV123@00AAU?$_Wrap_alloc@V?$allocator@PAVErrorInfo@Reader@Json@@@std@@@0@U_Scalar_ptr_iterator_tag@0@@Z PROC ; std::_Uninit_copy<Json::Reader::ErrorInfo *,Json::Reader::ErrorInfo *>, COMDAT

; 401  : 	{	// copy [_First, _Last) to raw _Dest, scalar type

	push	ebp
	mov	ebp, esp
	push	ecx

; 402  : 	_DEBUG_RANGE(_First, _Last);
; 403  : 	_DEBUG_POINTER(_Dest);
; 404  : 	size_t _Count = (size_t)(_Last - _First);

	mov	eax, DWORD PTR __Last$[ebp]
	sub	eax, DWORD PTR __First$[ebp]
	sar	eax, 2
	mov	DWORD PTR __Count$[ebp], eax

; 405  : 	return ((_Ty2 *)_CSTD memmove(&*_Dest, &*_First,
; 406  : 		_Count * sizeof (*_First)) + _Count);	// NB: non-overlapping move

	mov	ecx, DWORD PTR __Count$[ebp]
	shl	ecx, 2
	push	ecx
	mov	edx, DWORD PTR __First$[ebp]
	push	edx
	mov	eax, DWORD PTR __Dest$[ebp]
	push	eax
	call	DWORD PTR __imp__memmove
	add	esp, 12					; 0000000cH
	mov	ecx, DWORD PTR __Count$[ebp]
	lea	eax, DWORD PTR [eax+ecx*4]

; 407  : 	}

	mov	esp, ebp
	pop	ebp
	ret	0
??$_Uninit_copy@PAVErrorInfo@Reader@Json@@PAV123@@std@@YAPAPAVErrorInfo@Reader@Json@@PAPAV123@00AAU?$_Wrap_alloc@V?$allocator@PAVErrorInfo@Reader@Json@@@std@@@0@U_Scalar_ptr_iterator_tag@0@@Z ENDP ; std::_Uninit_copy<Json::Reader::ErrorInfo *,Json::Reader::ErrorInfo *>
_TEXT	ENDS
; Function compile flags: /Odtp
; File c:\program files (x86)\microsoft visual studio 12.0\vc\include\xmemory0
;	COMDAT ??$destroy@VErrorInfo@Reader@Json@@@?$allocator@VErrorInfo@Reader@Json@@@std@@QAEXPAVErrorInfo@Reader@Json@@@Z
_TEXT	SEGMENT
_this$ = -4						; size = 4
__Ptr$ = 8						; size = 4
??$destroy@VErrorInfo@Reader@Json@@@?$allocator@VErrorInfo@Reader@Json@@@std@@QAEXPAVErrorInfo@Reader@Json@@@Z PROC ; std::allocator<Json::Reader::ErrorInfo>::destroy<Json::Reader::ErrorInfo>, COMDAT
; _this$ = ecx

; 605  : 		void destroy(_Uty *_Ptr)

	push	ebp
	mov	ebp, esp
	push	ecx
	mov	DWORD PTR _this$[ebp], ecx

; 606  : 		{	// destroy object at _Ptr
; 607  : 		_Ptr->~_Uty();

	push	0
	mov	ecx, DWORD PTR __Ptr$[ebp]
	call	??_GErrorInfo@Reader@Json@@QAEPAXI@Z

; 608  : 		}

	mov	esp, ebp
	pop	ebp
	ret	4
??$destroy@VErrorInfo@Reader@Json@@@?$allocator@VErrorInfo@Reader@Json@@@std@@QAEXPAVErrorInfo@Reader@Json@@@Z ENDP ; std::allocator<Json::Reader::ErrorInfo>::destroy<Json::Reader::ErrorInfo>
_TEXT	ENDS
; Function compile flags: /Odtp
; File c:\program files (x86)\microsoft visual studio 12.0\vc\include\xmemory0
;	COMDAT ??$destroy@PAPAVValue@Json@@@?$allocator@PAVValue@Json@@@std@@QAEXPAPAPAVValue@Json@@@Z
_TEXT	SEGMENT
_this$ = -4						; size = 4
__Ptr$ = 8						; size = 4
??$destroy@PAPAVValue@Json@@@?$allocator@PAVValue@Json@@@std@@QAEXPAPAPAVValue@Json@@@Z PROC ; std::allocator<Json::Value *>::destroy<Json::Value * *>, COMDAT
; _this$ = ecx

; 605  : 		void destroy(_Uty *_Ptr)

	push	ebp
	mov	ebp, esp
	push	ecx
	mov	DWORD PTR _this$[ebp], ecx

; 606  : 		{	// destroy object at _Ptr
; 607  : 		_Ptr->~_Uty();
; 608  : 		}

	mov	esp, ebp
	pop	ebp
	ret	4
??$destroy@PAPAVValue@Json@@@?$allocator@PAVValue@Json@@@std@@QAEXPAPAPAVValue@Json@@@Z ENDP ; std::allocator<Json::Value *>::destroy<Json::Value * *>
_TEXT	ENDS
; Function compile flags: /Odtp
; File c:\program files (x86)\microsoft visual studio 12.0\vc\include\xmemory0
;	COMDAT ??$destroy@PAVValue@Json@@@?$allocator@PAVValue@Json@@@std@@QAEXPAPAVValue@Json@@@Z
_TEXT	SEGMENT
_this$ = -4						; size = 4
__Ptr$ = 8						; size = 4
??$destroy@PAVValue@Json@@@?$allocator@PAVValue@Json@@@std@@QAEXPAPAVValue@Json@@@Z PROC ; std::allocator<Json::Value *>::destroy<Json::Value *>, COMDAT
; _this$ = ecx

; 605  : 		void destroy(_Uty *_Ptr)

	push	ebp
	mov	ebp, esp
	push	ecx
	mov	DWORD PTR _this$[ebp], ecx

; 606  : 		{	// destroy object at _Ptr
; 607  : 		_Ptr->~_Uty();
; 608  : 		}

	mov	esp, ebp
	pop	ebp
	ret	4
??$destroy@PAVValue@Json@@@?$allocator@PAVValue@Json@@@std@@QAEXPAPAVValue@Json@@@Z ENDP ; std::allocator<Json::Value *>::destroy<Json::Value *>
_TEXT	ENDS
; Function compile flags: /Odtp
; File c:\program files (x86)\microsoft visual studio 12.0\vc\include\xmemory0
;	COMDAT ??$construct@PAVValue@Json@@PAV12@@?$allocator@PAVValue@Json@@@std@@QAEXPAPAVValue@Json@@$$QAPAV23@@Z
_TEXT	SEGMENT
$T2 = -28						; size = 4
_this$ = -24						; size = 4
tv73 = -20						; size = 4
$T3 = -16						; size = 4
__$EHRec$ = -12						; size = 12
__Ptr$ = 8						; size = 4
_<_Args_0>$ = 12					; size = 4
??$construct@PAVValue@Json@@PAV12@@?$allocator@PAVValue@Json@@@std@@QAEXPAPAVValue@Json@@$$QAPAV23@@Z PROC ; std::allocator<Json::Value *>::construct<Json::Value *,Json::Value *>, COMDAT
; _this$ = ecx

; 598  : 		void construct(_Objty *_Ptr, _Types&&... _Args)

	push	ebp
	mov	ebp, esp
	push	-1
	push	__ehhandler$??$construct@PAVValue@Json@@PAV12@@?$allocator@PAVValue@Json@@@std@@QAEXPAPAVValue@Json@@$$QAPAV23@@Z
	mov	eax, DWORD PTR fs:0
	push	eax
	sub	esp, 16					; 00000010H
	mov	eax, DWORD PTR ___security_cookie
	xor	eax, ebp
	push	eax
	lea	eax, DWORD PTR __$EHRec$[ebp]
	mov	DWORD PTR fs:0, eax
	mov	DWORD PTR _this$[ebp], ecx

; 599  : 		{	// construct _Objty(_Types...) at _Ptr
; 600  : 		::new ((void *)_Ptr) _Objty(_STD forward<_Types>(_Args)...);

	mov	eax, DWORD PTR __Ptr$[ebp]
	push	eax
	push	4
	call	??2@YAPAXIPAX@Z				; operator new
	add	esp, 8
	mov	DWORD PTR $T3[ebp], eax
	mov	DWORD PTR __$EHRec$[ebp+8], 0
	cmp	DWORD PTR $T3[ebp], 0
	je	SHORT $LN3@construct
	mov	ecx, DWORD PTR _<_Args_0>$[ebp]
	push	ecx
	call	??$forward@PAVValue@Json@@@std@@YA$$QAPAVValue@Json@@AAPAV12@@Z ; std::forward<Json::Value *>
	add	esp, 4
	mov	edx, DWORD PTR $T3[ebp]
	mov	eax, DWORD PTR [eax]
	mov	DWORD PTR [edx], eax
	mov	ecx, DWORD PTR $T3[ebp]
	mov	DWORD PTR tv73[ebp], ecx
	jmp	SHORT $LN4@construct
$LN3@construct:
	mov	DWORD PTR tv73[ebp], 0
$LN4@construct:
	mov	edx, DWORD PTR tv73[ebp]
	mov	DWORD PTR $T2[ebp], edx
	mov	DWORD PTR __$EHRec$[ebp+8], -1

; 601  : 		}

	mov	ecx, DWORD PTR __$EHRec$[ebp]
	mov	DWORD PTR fs:0, ecx
	pop	ecx
	mov	esp, ebp
	pop	ebp
	ret	8
_TEXT	ENDS
;	COMDAT text$x
text$x	SEGMENT
__unwindfunclet$??$construct@PAVValue@Json@@PAV12@@?$allocator@PAVValue@Json@@@std@@QAEXPAPAVValue@Json@@$$QAPAV23@@Z$0:
	mov	eax, DWORD PTR __Ptr$[ebp]
	push	eax
	mov	eax, DWORD PTR $T3[ebp]
	push	eax
	call	??3@YAXPAX0@Z				; operator delete
	add	esp, 8
	ret	0
__ehhandler$??$construct@PAVValue@Json@@PAV12@@?$allocator@PAVValue@Json@@@std@@QAEXPAPAVValue@Json@@$$QAPAV23@@Z:
	mov	edx, DWORD PTR [esp+8]
	lea	eax, DWORD PTR [edx+12]
	mov	ecx, DWORD PTR [edx-20]
	xor	ecx, eax
	call	@__security_check_cookie@4
	mov	eax, OFFSET __ehfuncinfo$??$construct@PAVValue@Json@@PAV12@@?$allocator@PAVValue@Json@@@std@@QAEXPAPAVValue@Json@@$$QAPAV23@@Z
	jmp	___CxxFrameHandler3
text$x	ENDS
??$construct@PAVValue@Json@@PAV12@@?$allocator@PAVValue@Json@@@std@@QAEXPAPAVValue@Json@@$$QAPAV23@@Z ENDP ; std::allocator<Json::Value *>::construct<Json::Value *,Json::Value *>
; Function compile flags: /Odtp
; File c:\program files (x86)\microsoft visual studio 12.0\vc\include\xmemory0
;	COMDAT ??$destroy@PAD@?$allocator@D@std@@QAEXPAPAD@Z
_TEXT	SEGMENT
_this$ = -4						; size = 4
__Ptr$ = 8						; size = 4
??$destroy@PAD@?$allocator@D@std@@QAEXPAPAD@Z PROC	; std::allocator<char>::destroy<char *>, COMDAT
; _this$ = ecx

; 605  : 		void destroy(_Uty *_Ptr)

	push	ebp
	mov	ebp, esp
	push	ecx
	mov	DWORD PTR _this$[ebp], ecx

; 606  : 		{	// destroy object at _Ptr
; 607  : 		_Ptr->~_Uty();
; 608  : 		}

	mov	esp, ebp
	pop	ebp
	ret	4
??$destroy@PAD@?$allocator@D@std@@QAEXPAPAD@Z ENDP	; std::allocator<char>::destroy<char *>
_TEXT	ENDS
; Function compile flags: /Odtp
; File c:\program files (x86)\microsoft visual studio 12.0\vc\include\xmemory0
;	COMDAT ??$construct@PADAAPAD@?$allocator@D@std@@QAEXPAPADAAPAD@Z
_TEXT	SEGMENT
$T2 = -28						; size = 4
_this$ = -24						; size = 4
tv73 = -20						; size = 4
$T3 = -16						; size = 4
__$EHRec$ = -12						; size = 12
__Ptr$ = 8						; size = 4
_<_Args_0>$ = 12					; size = 4
??$construct@PADAAPAD@?$allocator@D@std@@QAEXPAPADAAPAD@Z PROC ; std::allocator<char>::construct<char *,char * &>, COMDAT
; _this$ = ecx

; 598  : 		void construct(_Objty *_Ptr, _Types&&... _Args)

	push	ebp
	mov	ebp, esp
	push	-1
	push	__ehhandler$??$construct@PADAAPAD@?$allocator@D@std@@QAEXPAPADAAPAD@Z
	mov	eax, DWORD PTR fs:0
	push	eax
	sub	esp, 16					; 00000010H
	mov	eax, DWORD PTR ___security_cookie
	xor	eax, ebp
	push	eax
	lea	eax, DWORD PTR __$EHRec$[ebp]
	mov	DWORD PTR fs:0, eax
	mov	DWORD PTR _this$[ebp], ecx

; 599  : 		{	// construct _Objty(_Types...) at _Ptr
; 600  : 		::new ((void *)_Ptr) _Objty(_STD forward<_Types>(_Args)...);

	mov	eax, DWORD PTR __Ptr$[ebp]
	push	eax
	push	4
	call	??2@YAPAXIPAX@Z				; operator new
	add	esp, 8
	mov	DWORD PTR $T3[ebp], eax
	mov	DWORD PTR __$EHRec$[ebp+8], 0
	cmp	DWORD PTR $T3[ebp], 0
	je	SHORT $LN3@construct
	mov	ecx, DWORD PTR _<_Args_0>$[ebp]
	push	ecx
	call	??$forward@AAPAD@std@@YAAAPADAAPAD@Z	; std::forward<char * &>
	add	esp, 4
	mov	edx, DWORD PTR $T3[ebp]
	mov	eax, DWORD PTR [eax]
	mov	DWORD PTR [edx], eax
	mov	ecx, DWORD PTR $T3[ebp]
	mov	DWORD PTR tv73[ebp], ecx
	jmp	SHORT $LN4@construct
$LN3@construct:
	mov	DWORD PTR tv73[ebp], 0
$LN4@construct:
	mov	edx, DWORD PTR tv73[ebp]
	mov	DWORD PTR $T2[ebp], edx
	mov	DWORD PTR __$EHRec$[ebp+8], -1

; 601  : 		}

	mov	ecx, DWORD PTR __$EHRec$[ebp]
	mov	DWORD PTR fs:0, ecx
	pop	ecx
	mov	esp, ebp
	pop	ebp
	ret	8
_TEXT	ENDS
;	COMDAT text$x
text$x	SEGMENT
__unwindfunclet$??$construct@PADAAPAD@?$allocator@D@std@@QAEXPAPADAAPAD@Z$0:
	mov	eax, DWORD PTR __Ptr$[ebp]
	push	eax
	mov	eax, DWORD PTR $T3[ebp]
	push	eax
	call	??3@YAXPAX0@Z				; operator delete
	add	esp, 8
	ret	0
__ehhandler$??$construct@PADAAPAD@?$allocator@D@std@@QAEXPAPADAAPAD@Z:
	mov	edx, DWORD PTR [esp+8]
	lea	eax, DWORD PTR [edx+12]
	mov	ecx, DWORD PTR [edx-20]
	xor	ecx, eax
	call	@__security_check_cookie@4
	mov	eax, OFFSET __ehfuncinfo$??$construct@PADAAPAD@?$allocator@D@std@@QAEXPAPADAAPAD@Z
	jmp	___CxxFrameHandler3
text$x	ENDS
??$construct@PADAAPAD@?$allocator@D@std@@QAEXPAPADAAPAD@Z ENDP ; std::allocator<char>::construct<char *,char * &>
; Function compile flags: /Odtp
; File c:\program files (x86)\microsoft visual studio 12.0\vc\include\xlocnum
;	COMDAT ??__E?id@?$num_put@_WV?$back_insert_iterator@V?$basic_string@_WU?$char_traits@_W@std@@V?$allocator@_W@2@@std@@@std@@@std@@2V0locale@2@A@@YAXXZ
text$di	SEGMENT
??__E?id@?$num_put@_WV?$back_insert_iterator@V?$basic_string@_WU?$char_traits@_W@std@@V?$allocator@_W@2@@std@@@std@@@std@@2V0locale@2@A@@YAXXZ PROC ; `dynamic initializer for 'std::num_put<wchar_t,std::back_insert_iterator<std::basic_string<wchar_t,std::char_traits<wchar_t>,std::allocator<wchar_t> > > >::id'', COMDAT

; 155  : 		void _Getvals(wchar_t, const lconv *_Ptr, _Locinfo::_Cvtvec)

	push	ebp
	mov	ebp, esp
	push	0
	mov	ecx, OFFSET ?id@?$num_put@_WV?$back_insert_iterator@V?$basic_string@_WU?$char_traits@_W@std@@V?$allocator@_W@2@@std@@@std@@@std@@2V0locale@2@A ; std::num_put<wchar_t,std::back_insert_iterator<std::basic_string<wchar_t,std::char_traits<wchar_t>,std::allocator<wchar_t> > > >::id
	call	DWORD PTR __imp_??0id@locale@std@@QAE@I@Z
	pop	ebp
	ret	0
??__E?id@?$num_put@_WV?$back_insert_iterator@V?$basic_string@_WU?$char_traits@_W@std@@V?$allocator@_W@2@@std@@@std@@@std@@2V0locale@2@A@@YAXXZ ENDP ; `dynamic initializer for 'std::num_put<wchar_t,std::back_insert_iterator<std::basic_string<wchar_t,std::char_traits<wchar_t>,std::allocator<wchar_t> > > >::id''
text$di	ENDS
; Function compile flags: /Odtp
; File c:\program files (x86)\microsoft visual studio 12.0\vc\include\xlocnum
;	COMDAT ??__E?id@?$num_put@DV?$back_insert_iterator@V?$basic_string@DU?$char_traits@D@std@@V?$allocator@D@2@@std@@@std@@@std@@2V0locale@2@A@@YAXXZ
text$di	SEGMENT
??__E?id@?$num_put@DV?$back_insert_iterator@V?$basic_string@DU?$char_traits@D@std@@V?$allocator@D@2@@std@@@std@@@std@@2V0locale@2@A@@YAXXZ PROC ; `dynamic initializer for 'std::num_put<char,std::back_insert_iterator<std::basic_string<char,std::char_traits<char>,std::allocator<char> > > >::id'', COMDAT

; 155  : 		void _Getvals(wchar_t, const lconv *_Ptr, _Locinfo::_Cvtvec)

	push	ebp
	mov	ebp, esp
	push	0
	mov	ecx, OFFSET ?id@?$num_put@DV?$back_insert_iterator@V?$basic_string@DU?$char_traits@D@std@@V?$allocator@D@2@@std@@@std@@@std@@2V0locale@2@A ; std::num_put<char,std::back_insert_iterator<std::basic_string<char,std::char_traits<char>,std::allocator<char> > > >::id
	call	DWORD PTR __imp_??0id@locale@std@@QAE@I@Z
	pop	ebp
	ret	0
??__E?id@?$num_put@DV?$back_insert_iterator@V?$basic_string@DU?$char_traits@D@std@@V?$allocator@D@2@@std@@@std@@@std@@2V0locale@2@A@@YAXXZ ENDP ; `dynamic initializer for 'std::num_put<char,std::back_insert_iterator<std::basic_string<char,std::char_traits<char>,std::allocator<char> > > >::id''
text$di	ENDS
; Function compile flags: /Odtp
; File c:\program files (x86)\microsoft visual studio 12.0\vc\include\xmemory0
;	COMDAT ??$construct@VErrorInfo@Reader@Json@@$$$V@?$allocator_traits@V?$allocator@VErrorInfo@Reader@Json@@@std@@@std@@SAXAAV?$allocator@VErrorInfo@Reader@Json@@@1@PAVErrorInfo@Reader@Json@@@Z
_TEXT	SEGMENT
__Al$ = 8						; size = 4
__Ptr$ = 12						; size = 4
??$construct@VErrorInfo@Reader@Json@@$$$V@?$allocator_traits@V?$allocator@VErrorInfo@Reader@Json@@@std@@@std@@SAXAAV?$allocator@VErrorInfo@Reader@Json@@@1@PAVErrorInfo@Reader@Json@@@Z PROC ; std::allocator_traits<std::allocator<Json::Reader::ErrorInfo> >::construct<Json::Reader::ErrorInfo>, COMDAT

; 720  : 		static void construct(_Alloc& _Al, _Objty *_Ptr,

	push	ebp
	mov	ebp, esp

; 721  : 			_Types&&... _Args)
; 722  : 		{	// construct _Objty(_Types...) at _Ptr
; 723  : 		_Al.construct(_Ptr, _STD forward<_Types>(_Args)...);

	mov	eax, DWORD PTR __Ptr$[ebp]
	push	eax
	mov	ecx, DWORD PTR __Al$[ebp]
	call	?construct@?$allocator@VErrorInfo@Reader@Json@@@std@@QAEXPAVErrorInfo@Reader@Json@@@Z ; std::allocator<Json::Reader::ErrorInfo>::construct

; 724  : 		}

	pop	ebp
	ret	0
??$construct@VErrorInfo@Reader@Json@@$$$V@?$allocator_traits@V?$allocator@VErrorInfo@Reader@Json@@@std@@@std@@SAXAAV?$allocator@VErrorInfo@Reader@Json@@@1@PAVErrorInfo@Reader@Json@@@Z ENDP ; std::allocator_traits<std::allocator<Json::Reader::ErrorInfo> >::construct<Json::Reader::ErrorInfo>
_TEXT	ENDS
; Function compile flags: /Odtp
; File c:\program files (x86)\microsoft visual studio 12.0\vc\include\xmemory0
;	COMDAT ??$construct@U_Container_proxy@std@@U12@@?$allocator_traits@V?$allocator@U_Container_proxy@std@@@std@@@std@@SAXAAV?$allocator@U_Container_proxy@std@@@1@PAU_Container_proxy@1@$$QAU31@@Z
_TEXT	SEGMENT
__Al$ = 8						; size = 4
__Ptr$ = 12						; size = 4
_<_Args_0>$ = 16					; size = 4
??$construct@U_Container_proxy@std@@U12@@?$allocator_traits@V?$allocator@U_Container_proxy@std@@@std@@@std@@SAXAAV?$allocator@U_Container_proxy@std@@@1@PAU_Container_proxy@1@$$QAU31@@Z PROC ; std::allocator_traits<std::allocator<std::_Container_proxy> >::construct<std::_Container_proxy,std::_Container_proxy>, COMDAT

; 720  : 		static void construct(_Alloc& _Al, _Objty *_Ptr,

	push	ebp
	mov	ebp, esp

; 721  : 			_Types&&... _Args)
; 722  : 		{	// construct _Objty(_Types...) at _Ptr
; 723  : 		_Al.construct(_Ptr, _STD forward<_Types>(_Args)...);

	mov	eax, DWORD PTR _<_Args_0>$[ebp]
	push	eax
	call	??$forward@U_Container_proxy@std@@@std@@YA$$QAU_Container_proxy@0@AAU10@@Z ; std::forward<std::_Container_proxy>
	add	esp, 4
	push	eax
	mov	ecx, DWORD PTR __Ptr$[ebp]
	push	ecx
	mov	ecx, DWORD PTR __Al$[ebp]
	call	??$construct@U_Container_proxy@std@@U12@@?$allocator@U_Container_proxy@std@@@std@@QAEXPAU_Container_proxy@1@$$QAU21@@Z ; std::allocator<std::_Container_proxy>::construct<std::_Container_proxy,std::_Container_proxy>

; 724  : 		}

	pop	ebp
	ret	0
??$construct@U_Container_proxy@std@@U12@@?$allocator_traits@V?$allocator@U_Container_proxy@std@@@std@@@std@@SAXAAV?$allocator@U_Container_proxy@std@@@1@PAU_Container_proxy@1@$$QAU31@@Z ENDP ; std::allocator_traits<std::allocator<std::_Container_proxy> >::construct<std::_Container_proxy,std::_Container_proxy>
_TEXT	ENDS
; Function compile flags: /Odtp
; File c:\program files (x86)\microsoft visual studio 12.0\vc\include\type_traits
;	COMDAT ??$forward@U_Container_proxy@std@@@std@@YA$$QAU_Container_proxy@0@AAU10@@Z
_TEXT	SEGMENT
__Arg$ = 8						; size = 4
??$forward@U_Container_proxy@std@@@std@@YA$$QAU_Container_proxy@0@AAU10@@Z PROC ; std::forward<std::_Container_proxy>, COMDAT

; 1504 : 	{	// forward an lvalue

	push	ebp
	mov	ebp, esp

; 1505 : 	return (static_cast<_Ty&&>(_Arg));

	mov	eax, DWORD PTR __Arg$[ebp]

; 1506 : 	}

	pop	ebp
	ret	0
??$forward@U_Container_proxy@std@@@std@@YA$$QAU_Container_proxy@0@AAU10@@Z ENDP ; std::forward<std::_Container_proxy>
_TEXT	ENDS
; Function compile flags: /Odtp
; File c:\program files (x86)\microsoft visual studio 12.0\vc\include\xmemory0
;	COMDAT ??$destroy@U_Container_proxy@std@@@?$allocator_traits@V?$allocator@U_Container_proxy@std@@@std@@@std@@SAXAAV?$allocator@U_Container_proxy@std@@@1@PAU_Container_proxy@1@@Z
_TEXT	SEGMENT
__Al$ = 8						; size = 4
__Ptr$ = 12						; size = 4
??$destroy@U_Container_proxy@std@@@?$allocator_traits@V?$allocator@U_Container_proxy@std@@@std@@@std@@SAXAAV?$allocator@U_Container_proxy@std@@@1@PAU_Container_proxy@1@@Z PROC ; std::allocator_traits<std::allocator<std::_Container_proxy> >::destroy<std::_Container_proxy>, COMDAT

; 728  : 		static void destroy(_Alloc& _Al, _Uty *_Ptr)

	push	ebp
	mov	ebp, esp

; 729  : 		{	// destroy object at _Ptr
; 730  : 		_Al.destroy(_Ptr);

	mov	eax, DWORD PTR __Ptr$[ebp]
	push	eax
	mov	ecx, DWORD PTR __Al$[ebp]
	call	??$destroy@U_Container_proxy@std@@@?$allocator@U_Container_proxy@std@@@std@@QAEXPAU_Container_proxy@1@@Z ; std::allocator<std::_Container_proxy>::destroy<std::_Container_proxy>

; 731  : 		}

	pop	ebp
	ret	0
??$destroy@U_Container_proxy@std@@@?$allocator_traits@V?$allocator@U_Container_proxy@std@@@std@@@std@@SAXAAV?$allocator@U_Container_proxy@std@@@1@PAU_Container_proxy@1@@Z ENDP ; std::allocator_traits<std::allocator<std::_Container_proxy> >::destroy<std::_Container_proxy>
_TEXT	ENDS
; Function compile flags: /Odtp
; File c:\program files (x86)\microsoft visual studio 12.0\vc\include\xmemory0
;	COMDAT ??$_Destroy_range@U?$_Wrap_alloc@V?$allocator@PAPAVValue@Json@@@std@@@std@@@std@@YAXPAPAPAVValue@Json@@0AAU?$_Wrap_alloc@V?$allocator@PAPAVValue@Json@@@std@@@0@U_Scalar_ptr_iterator_tag@0@@Z
_TEXT	SEGMENT
__First$ = 8						; size = 4
__Last$ = 12						; size = 4
__Al$ = 16						; size = 4
___formal$ = 20						; size = 1
??$_Destroy_range@U?$_Wrap_alloc@V?$allocator@PAPAVValue@Json@@@std@@@std@@@std@@YAXPAPAPAVValue@Json@@0AAU?$_Wrap_alloc@V?$allocator@PAPAVValue@Json@@@std@@@0@U_Scalar_ptr_iterator_tag@0@@Z PROC ; std::_Destroy_range<std::_Wrap_alloc<std::allocator<Json::Value * *> > >, COMDAT

; 89   : 	{	// destroy [_First, _Last), scalar type (do nothing)

	push	ebp
	mov	ebp, esp

; 90   : 	}

	pop	ebp
	ret	0
??$_Destroy_range@U?$_Wrap_alloc@V?$allocator@PAPAVValue@Json@@@std@@@std@@@std@@YAXPAPAPAVValue@Json@@0AAU?$_Wrap_alloc@V?$allocator@PAPAVValue@Json@@@std@@@0@U_Scalar_ptr_iterator_tag@0@@Z ENDP ; std::_Destroy_range<std::_Wrap_alloc<std::allocator<Json::Value * *> > >
_TEXT	ENDS
; Function compile flags: /Odtp
; File c:\program files (x86)\microsoft visual studio 12.0\vc\include\xmemory
;	COMDAT ??$_Uninit_def_fill_n@PAPAVValue@Json@@IPAPAV12@@std@@YAXPAPAPAVValue@Json@@IAAU?$_Wrap_alloc@V?$allocator@PAPAVValue@Json@@@std@@@0@0U_Scalar_ptr_iterator_tag@0@@Z
_TEXT	SEGMENT
$T1 = -4						; size = 4
__First$ = 8						; size = 4
__Count$ = 12						; size = 4
___formal$ = 16						; size = 4
___formal$ = 20						; size = 4
___formal$ = 24						; size = 1
??$_Uninit_def_fill_n@PAPAVValue@Json@@IPAPAV12@@std@@YAXPAPAPAVValue@Json@@IAAU?$_Wrap_alloc@V?$allocator@PAPAVValue@Json@@@std@@@0@0U_Scalar_ptr_iterator_tag@0@@Z PROC ; std::_Uninit_def_fill_n<Json::Value * *,unsigned int,Json::Value * *>, COMDAT

; 681  : 	{	// copy _Count * _Valty() to raw _First, using _Al, scalar type

	push	ebp
	mov	ebp, esp
	push	ecx

; 682  : 	_Fill_n(_First, _Count, (_Valty)0);

	mov	DWORD PTR $T1[ebp], 0
	lea	eax, DWORD PTR $T1[ebp]
	push	eax
	mov	ecx, DWORD PTR __Count$[ebp]
	push	ecx
	mov	edx, DWORD PTR __First$[ebp]
	push	edx
	call	??$_Fill_n@PAPAPAVValue@Json@@IPAPAV12@@std@@YAPAPAPAVValue@Json@@PAPAPAV12@IABQAPAV12@@Z ; std::_Fill_n<Json::Value * * *,unsigned int,Json::Value * *>
	add	esp, 12					; 0000000cH

; 683  : 	}

	mov	esp, ebp
	pop	ebp
	ret	0
??$_Uninit_def_fill_n@PAPAVValue@Json@@IPAPAV12@@std@@YAXPAPAPAVValue@Json@@IAAU?$_Wrap_alloc@V?$allocator@PAPAVValue@Json@@@std@@@0@0U_Scalar_ptr_iterator_tag@0@@Z ENDP ; std::_Uninit_def_fill_n<Json::Value * *,unsigned int,Json::Value * *>
_TEXT	ENDS
; Function compile flags: /Odtp
; File c:\program files (x86)\microsoft visual studio 12.0\vc\include\xutility
;	COMDAT ??$_Ptr_cat@PAPAVValue@Json@@PAPAV12@@std@@YA?AU_Scalar_ptr_iterator_tag@0@PAPAPAVValue@Json@@0@Z
_TEXT	SEGMENT
__Cat$ = -1						; size = 1
___formal$ = 8						; size = 4
___formal$ = 12						; size = 4
??$_Ptr_cat@PAPAVValue@Json@@PAPAV12@@std@@YA?AU_Scalar_ptr_iterator_tag@0@PAPAPAVValue@Json@@0@Z PROC ; std::_Ptr_cat<Json::Value * *,Json::Value * *>, COMDAT

; 444  : 	{	// return pointer category from pointers

	push	ebp
	mov	ebp, esp
	push	ecx

; 445  : 	typename _Ptr_cat_helper<_Elem1, _Elem2>::type _Cat;
; 446  : 	return (_Cat);

	mov	al, BYTE PTR __Cat$[ebp]

; 447  : 	}

	mov	esp, ebp
	pop	ebp
	ret	0
??$_Ptr_cat@PAPAVValue@Json@@PAPAV12@@std@@YA?AU_Scalar_ptr_iterator_tag@0@PAPAPAVValue@Json@@0@Z ENDP ; std::_Ptr_cat<Json::Value * *,Json::Value * *>
_TEXT	ENDS
; Function compile flags: /Odtp
; File c:\program files (x86)\microsoft visual studio 12.0\vc\include\xutility
;	COMDAT ??$_Val_type@PAPAPAVValue@Json@@@std@@YAPAPAPAVValue@Json@@PAPAPAV12@@Z
_TEXT	SEGMENT
___formal$ = 8						; size = 4
??$_Val_type@PAPAPAVValue@Json@@@std@@YAPAPAPAVValue@Json@@PAPAPAV12@@Z PROC ; std::_Val_type<Json::Value * * *>, COMDAT

; 645  : 	{	// return value type from arbitrary argument

	push	ebp
	mov	ebp, esp

; 646  : 	return (0);

	xor	eax, eax

; 647  : 	}

	pop	ebp
	ret	0
??$_Val_type@PAPAPAVValue@Json@@@std@@YAPAPAPAVValue@Json@@PAPAPAV12@@Z ENDP ; std::_Val_type<Json::Value * * *>
_TEXT	ENDS
; Function compile flags: /Odtp
; File c:\program files (x86)\microsoft visual studio 12.0\vc\include\xutility
;	COMDAT ??$_Rechecked@PAPAPAVValue@Json@@PAPAPAV12@@std@@YAAAPAPAPAVValue@Json@@AAPAPAPAV12@PAPAPAV12@@Z
_TEXT	SEGMENT
__Dest$ = 8						; size = 4
__Src$ = 12						; size = 4
??$_Rechecked@PAPAPAVValue@Json@@PAPAPAV12@@std@@YAAAPAPAPAVValue@Json@@AAPAPAPAV12@PAPAPAV12@@Z PROC ; std::_Rechecked<Json::Value * * *,Json::Value * * *>, COMDAT

; 288  : 	{	// reset checked from unchecked, generic

	push	ebp
	mov	ebp, esp

; 289  : 	_Dest = _Src;

	mov	eax, DWORD PTR __Dest$[ebp]
	mov	ecx, DWORD PTR __Src$[ebp]
	mov	DWORD PTR [eax], ecx

; 290  : 	return (_Dest);

	mov	eax, DWORD PTR __Dest$[ebp]

; 291  : 	}

	pop	ebp
	ret	0
??$_Rechecked@PAPAPAVValue@Json@@PAPAPAV12@@std@@YAAAPAPAPAVValue@Json@@AAPAPAPAV12@PAPAPAV12@@Z ENDP ; std::_Rechecked<Json::Value * * *,Json::Value * * *>
_TEXT	ENDS
; Function compile flags: /Odtp
; File c:\program files (x86)\microsoft visual studio 12.0\vc\include\xmemory
;	COMDAT ??$_Uninit_copy@PAPAPAVValue@Json@@PAPAPAV12@U?$_Wrap_alloc@V?$allocator@PAPAVValue@Json@@@std@@@std@@@std@@YAPAPAPAVValue@Json@@PAPAPAV12@00AAU?$_Wrap_alloc@V?$allocator@PAPAVValue@Json@@@std@@@0@@Z
_TEXT	SEGMENT
$T1 = -1						; size = 1
__First$ = 8						; size = 4
__Last$ = 12						; size = 4
__Dest$ = 16						; size = 4
__Al$ = 20						; size = 4
??$_Uninit_copy@PAPAPAVValue@Json@@PAPAPAV12@U?$_Wrap_alloc@V?$allocator@PAPAVValue@Json@@@std@@@std@@@std@@YAPAPAPAVValue@Json@@PAPAPAV12@00AAU?$_Wrap_alloc@V?$allocator@PAPAVValue@Json@@@std@@@0@@Z PROC ; std::_Uninit_copy<Json::Value * * *,Json::Value * * *,std::_Wrap_alloc<std::allocator<Json::Value * *> > >, COMDAT

; 414  : 	{	// copy [_First, _Last) to raw _Dest, using _Al

	push	ebp
	mov	ebp, esp
	push	ecx

; 415  : 	return (_Uninit_copy(_First, _Last, _Dest, _Al,
; 416  : 		_Ptr_cat(_First, _Dest)));

	mov	eax, DWORD PTR __Dest$[ebp]
	push	eax
	mov	ecx, DWORD PTR __First$[ebp]
	push	ecx
	call	??$_Ptr_cat@PAPAVValue@Json@@PAPAV12@@std@@YA?AU_Scalar_ptr_iterator_tag@0@PAPAPAVValue@Json@@0@Z ; std::_Ptr_cat<Json::Value * *,Json::Value * *>
	add	esp, 8
	mov	BYTE PTR $T1[ebp], al
	movzx	edx, BYTE PTR $T1[ebp]
	push	edx
	mov	eax, DWORD PTR __Al$[ebp]
	push	eax
	mov	ecx, DWORD PTR __Dest$[ebp]
	push	ecx
	mov	edx, DWORD PTR __Last$[ebp]
	push	edx
	mov	eax, DWORD PTR __First$[ebp]
	push	eax
	call	??$_Uninit_copy@PAPAVValue@Json@@PAPAV12@@std@@YAPAPAPAVValue@Json@@PAPAPAV12@00AAU?$_Wrap_alloc@V?$allocator@PAPAVValue@Json@@@std@@@0@U_Scalar_ptr_iterator_tag@0@@Z ; std::_Uninit_copy<Json::Value * *,Json::Value * *>
	add	esp, 20					; 00000014H

; 417  : 	}

	mov	esp, ebp
	pop	ebp
	ret	0
??$_Uninit_copy@PAPAPAVValue@Json@@PAPAPAV12@U?$_Wrap_alloc@V?$allocator@PAPAVValue@Json@@@std@@@std@@@std@@YAPAPAPAVValue@Json@@PAPAPAV12@00AAU?$_Wrap_alloc@V?$allocator@PAPAVValue@Json@@@std@@@0@@Z ENDP ; std::_Uninit_copy<Json::Value * * *,Json::Value * * *,std::_Wrap_alloc<std::allocator<Json::Value * *> > >
_TEXT	ENDS
; Function compile flags: /Odtp
; File c:\program files (x86)\microsoft visual studio 12.0\vc\include\xutility
;	COMDAT ??$_Unchecked@PAPAPAVValue@Json@@@std@@YAPAPAPAVValue@Json@@PAPAPAV12@@Z
_TEXT	SEGMENT
__Src$ = 8						; size = 4
??$_Unchecked@PAPAPAVValue@Json@@@std@@YAPAPAPAVValue@Json@@PAPAPAV12@@Z PROC ; std::_Unchecked<Json::Value * * *>, COMDAT

; 280  : 	{	// construct unchecked from checked, generic

	push	ebp
	mov	ebp, esp

; 281  : 	return (_Src);

	mov	eax, DWORD PTR __Src$[ebp]

; 282  : 	}

	pop	ebp
	ret	0
??$_Unchecked@PAPAPAVValue@Json@@@std@@YAPAPAPAVValue@Json@@PAPAPAV12@@Z ENDP ; std::_Unchecked<Json::Value * * *>
_TEXT	ENDS
; Function compile flags: /Odtp
; File c:\program files (x86)\microsoft visual studio 12.0\vc\include\xmemory0
;	COMDAT ??$destroy@PAVErrorInfo@Reader@Json@@@?$allocator_traits@V?$allocator@VErrorInfo@Reader@Json@@@std@@@std@@SAXAAV?$allocator@VErrorInfo@Reader@Json@@@1@PAPAVErrorInfo@Reader@Json@@@Z
_TEXT	SEGMENT
__Al$ = 8						; size = 4
__Ptr$ = 12						; size = 4
??$destroy@PAVErrorInfo@Reader@Json@@@?$allocator_traits@V?$allocator@VErrorInfo@Reader@Json@@@std@@@std@@SAXAAV?$allocator@VErrorInfo@Reader@Json@@@1@PAPAVErrorInfo@Reader@Json@@@Z PROC ; std::allocator_traits<std::allocator<Json::Reader::ErrorInfo> >::destroy<Json::Reader::ErrorInfo *>, COMDAT

; 728  : 		static void destroy(_Alloc& _Al, _Uty *_Ptr)

	push	ebp
	mov	ebp, esp

; 729  : 		{	// destroy object at _Ptr
; 730  : 		_Al.destroy(_Ptr);

	mov	eax, DWORD PTR __Ptr$[ebp]
	push	eax
	mov	ecx, DWORD PTR __Al$[ebp]
	call	??$destroy@PAVErrorInfo@Reader@Json@@@?$allocator@VErrorInfo@Reader@Json@@@std@@QAEXPAPAVErrorInfo@Reader@Json@@@Z ; std::allocator<Json::Reader::ErrorInfo>::destroy<Json::Reader::ErrorInfo *>

; 731  : 		}

	pop	ebp
	ret	0
??$destroy@PAVErrorInfo@Reader@Json@@@?$allocator_traits@V?$allocator@VErrorInfo@Reader@Json@@@std@@@std@@SAXAAV?$allocator@VErrorInfo@Reader@Json@@@1@PAPAVErrorInfo@Reader@Json@@@Z ENDP ; std::allocator_traits<std::allocator<Json::Reader::ErrorInfo> >::destroy<Json::Reader::ErrorInfo *>
_TEXT	ENDS
; Function compile flags: /Odtp
; File c:\program files (x86)\microsoft visual studio 12.0\vc\include\xmemory0
;	COMDAT ??$_Destroy_range@U?$_Wrap_alloc@V?$allocator@PAVErrorInfo@Reader@Json@@@std@@@std@@@std@@YAXPAPAVErrorInfo@Reader@Json@@0AAU?$_Wrap_alloc@V?$allocator@PAVErrorInfo@Reader@Json@@@std@@@0@U_Scalar_ptr_iterator_tag@0@@Z
_TEXT	SEGMENT
__First$ = 8						; size = 4
__Last$ = 12						; size = 4
__Al$ = 16						; size = 4
___formal$ = 20						; size = 1
??$_Destroy_range@U?$_Wrap_alloc@V?$allocator@PAVErrorInfo@Reader@Json@@@std@@@std@@@std@@YAXPAPAVErrorInfo@Reader@Json@@0AAU?$_Wrap_alloc@V?$allocator@PAVErrorInfo@Reader@Json@@@std@@@0@U_Scalar_ptr_iterator_tag@0@@Z PROC ; std::_Destroy_range<std::_Wrap_alloc<std::allocator<Json::Reader::ErrorInfo *> > >, COMDAT

; 89   : 	{	// destroy [_First, _Last), scalar type (do nothing)

	push	ebp
	mov	ebp, esp

; 90   : 	}

	pop	ebp
	ret	0
??$_Destroy_range@U?$_Wrap_alloc@V?$allocator@PAVErrorInfo@Reader@Json@@@std@@@std@@@std@@YAXPAPAVErrorInfo@Reader@Json@@0AAU?$_Wrap_alloc@V?$allocator@PAVErrorInfo@Reader@Json@@@std@@@0@U_Scalar_ptr_iterator_tag@0@@Z ENDP ; std::_Destroy_range<std::_Wrap_alloc<std::allocator<Json::Reader::ErrorInfo *> > >
_TEXT	ENDS
; Function compile flags: /Odtp
; File c:\program files (x86)\microsoft visual studio 12.0\vc\include\xmemory
;	COMDAT ??$_Uninit_def_fill_n@PAVErrorInfo@Reader@Json@@IPAV123@@std@@YAXPAPAVErrorInfo@Reader@Json@@IAAU?$_Wrap_alloc@V?$allocator@PAVErrorInfo@Reader@Json@@@std@@@0@0U_Scalar_ptr_iterator_tag@0@@Z
_TEXT	SEGMENT
$T1 = -4						; size = 4
__First$ = 8						; size = 4
__Count$ = 12						; size = 4
___formal$ = 16						; size = 4
___formal$ = 20						; size = 4
___formal$ = 24						; size = 1
??$_Uninit_def_fill_n@PAVErrorInfo@Reader@Json@@IPAV123@@std@@YAXPAPAVErrorInfo@Reader@Json@@IAAU?$_Wrap_alloc@V?$allocator@PAVErrorInfo@Reader@Json@@@std@@@0@0U_Scalar_ptr_iterator_tag@0@@Z PROC ; std::_Uninit_def_fill_n<Json::Reader::ErrorInfo *,unsigned int,Json::Reader::ErrorInfo *>, COMDAT

; 681  : 	{	// copy _Count * _Valty() to raw _First, using _Al, scalar type

	push	ebp
	mov	ebp, esp
	push	ecx

; 682  : 	_Fill_n(_First, _Count, (_Valty)0);

	mov	DWORD PTR $T1[ebp], 0
	lea	eax, DWORD PTR $T1[ebp]
	push	eax
	mov	ecx, DWORD PTR __Count$[ebp]
	push	ecx
	mov	edx, DWORD PTR __First$[ebp]
	push	edx
	call	??$_Fill_n@PAPAVErrorInfo@Reader@Json@@IPAV123@@std@@YAPAPAVErrorInfo@Reader@Json@@PAPAV123@IABQAV123@@Z ; std::_Fill_n<Json::Reader::ErrorInfo * *,unsigned int,Json::Reader::ErrorInfo *>
	add	esp, 12					; 0000000cH

; 683  : 	}

	mov	esp, ebp
	pop	ebp
	ret	0
??$_Uninit_def_fill_n@PAVErrorInfo@Reader@Json@@IPAV123@@std@@YAXPAPAVErrorInfo@Reader@Json@@IAAU?$_Wrap_alloc@V?$allocator@PAVErrorInfo@Reader@Json@@@std@@@0@0U_Scalar_ptr_iterator_tag@0@@Z ENDP ; std::_Uninit_def_fill_n<Json::Reader::ErrorInfo *,unsigned int,Json::Reader::ErrorInfo *>
_TEXT	ENDS
; Function compile flags: /Odtp
; File c:\program files (x86)\microsoft visual studio 12.0\vc\include\xutility
;	COMDAT ??$_Ptr_cat@PAVErrorInfo@Reader@Json@@PAV123@@std@@YA?AU_Scalar_ptr_iterator_tag@0@PAPAVErrorInfo@Reader@Json@@0@Z
_TEXT	SEGMENT
__Cat$ = -1						; size = 1
___formal$ = 8						; size = 4
___formal$ = 12						; size = 4
??$_Ptr_cat@PAVErrorInfo@Reader@Json@@PAV123@@std@@YA?AU_Scalar_ptr_iterator_tag@0@PAPAVErrorInfo@Reader@Json@@0@Z PROC ; std::_Ptr_cat<Json::Reader::ErrorInfo *,Json::Reader::ErrorInfo *>, COMDAT

; 444  : 	{	// return pointer category from pointers

	push	ebp
	mov	ebp, esp
	push	ecx

; 445  : 	typename _Ptr_cat_helper<_Elem1, _Elem2>::type _Cat;
; 446  : 	return (_Cat);

	mov	al, BYTE PTR __Cat$[ebp]

; 447  : 	}

	mov	esp, ebp
	pop	ebp
	ret	0
??$_Ptr_cat@PAVErrorInfo@Reader@Json@@PAV123@@std@@YA?AU_Scalar_ptr_iterator_tag@0@PAPAVErrorInfo@Reader@Json@@0@Z ENDP ; std::_Ptr_cat<Json::Reader::ErrorInfo *,Json::Reader::ErrorInfo *>
_TEXT	ENDS
; Function compile flags: /Odtp
; File c:\program files (x86)\microsoft visual studio 12.0\vc\include\xutility
;	COMDAT ??$_Val_type@PAPAVErrorInfo@Reader@Json@@@std@@YAPAPAVErrorInfo@Reader@Json@@PAPAV123@@Z
_TEXT	SEGMENT
___formal$ = 8						; size = 4
??$_Val_type@PAPAVErrorInfo@Reader@Json@@@std@@YAPAPAVErrorInfo@Reader@Json@@PAPAV123@@Z PROC ; std::_Val_type<Json::Reader::ErrorInfo * *>, COMDAT

; 645  : 	{	// return value type from arbitrary argument

	push	ebp
	mov	ebp, esp

; 646  : 	return (0);

	xor	eax, eax

; 647  : 	}

	pop	ebp
	ret	0
??$_Val_type@PAPAVErrorInfo@Reader@Json@@@std@@YAPAPAVErrorInfo@Reader@Json@@PAPAV123@@Z ENDP ; std::_Val_type<Json::Reader::ErrorInfo * *>
_TEXT	ENDS
; Function compile flags: /Odtp
; File c:\program files (x86)\microsoft visual studio 12.0\vc\include\xutility
;	COMDAT ??$_Rechecked@PAPAVErrorInfo@Reader@Json@@PAPAV123@@std@@YAAAPAPAVErrorInfo@Reader@Json@@AAPAPAV123@PAPAV123@@Z
_TEXT	SEGMENT
__Dest$ = 8						; size = 4
__Src$ = 12						; size = 4
??$_Rechecked@PAPAVErrorInfo@Reader@Json@@PAPAV123@@std@@YAAAPAPAVErrorInfo@Reader@Json@@AAPAPAV123@PAPAV123@@Z PROC ; std::_Rechecked<Json::Reader::ErrorInfo * *,Json::Reader::ErrorInfo * *>, COMDAT

; 288  : 	{	// reset checked from unchecked, generic

	push	ebp
	mov	ebp, esp

; 289  : 	_Dest = _Src;

	mov	eax, DWORD PTR __Dest$[ebp]
	mov	ecx, DWORD PTR __Src$[ebp]
	mov	DWORD PTR [eax], ecx

; 290  : 	return (_Dest);

	mov	eax, DWORD PTR __Dest$[ebp]

; 291  : 	}

	pop	ebp
	ret	0
??$_Rechecked@PAPAVErrorInfo@Reader@Json@@PAPAV123@@std@@YAAAPAPAVErrorInfo@Reader@Json@@AAPAPAV123@PAPAV123@@Z ENDP ; std::_Rechecked<Json::Reader::ErrorInfo * *,Json::Reader::ErrorInfo * *>
_TEXT	ENDS
; Function compile flags: /Odtp
; File c:\program files (x86)\microsoft visual studio 12.0\vc\include\xmemory
;	COMDAT ??$_Uninit_copy@PAPAVErrorInfo@Reader@Json@@PAPAV123@U?$_Wrap_alloc@V?$allocator@PAVErrorInfo@Reader@Json@@@std@@@std@@@std@@YAPAPAVErrorInfo@Reader@Json@@PAPAV123@00AAU?$_Wrap_alloc@V?$allocator@PAVErrorInfo@Reader@Json@@@std@@@0@@Z
_TEXT	SEGMENT
$T1 = -1						; size = 1
__First$ = 8						; size = 4
__Last$ = 12						; size = 4
__Dest$ = 16						; size = 4
__Al$ = 20						; size = 4
??$_Uninit_copy@PAPAVErrorInfo@Reader@Json@@PAPAV123@U?$_Wrap_alloc@V?$allocator@PAVErrorInfo@Reader@Json@@@std@@@std@@@std@@YAPAPAVErrorInfo@Reader@Json@@PAPAV123@00AAU?$_Wrap_alloc@V?$allocator@PAVErrorInfo@Reader@Json@@@std@@@0@@Z PROC ; std::_Uninit_copy<Json::Reader::ErrorInfo * *,Json::Reader::ErrorInfo * *,std::_Wrap_alloc<std::allocator<Json::Reader::ErrorInfo *> > >, COMDAT

; 414  : 	{	// copy [_First, _Last) to raw _Dest, using _Al

	push	ebp
	mov	ebp, esp
	push	ecx

; 415  : 	return (_Uninit_copy(_First, _Last, _Dest, _Al,
; 416  : 		_Ptr_cat(_First, _Dest)));

	mov	eax, DWORD PTR __Dest$[ebp]
	push	eax
	mov	ecx, DWORD PTR __First$[ebp]
	push	ecx
	call	??$_Ptr_cat@PAVErrorInfo@Reader@Json@@PAV123@@std@@YA?AU_Scalar_ptr_iterator_tag@0@PAPAVErrorInfo@Reader@Json@@0@Z ; std::_Ptr_cat<Json::Reader::ErrorInfo *,Json::Reader::ErrorInfo *>
	add	esp, 8
	mov	BYTE PTR $T1[ebp], al
	movzx	edx, BYTE PTR $T1[ebp]
	push	edx
	mov	eax, DWORD PTR __Al$[ebp]
	push	eax
	mov	ecx, DWORD PTR __Dest$[ebp]
	push	ecx
	mov	edx, DWORD PTR __Last$[ebp]
	push	edx
	mov	eax, DWORD PTR __First$[ebp]
	push	eax
	call	??$_Uninit_copy@PAVErrorInfo@Reader@Json@@PAV123@@std@@YAPAPAVErrorInfo@Reader@Json@@PAPAV123@00AAU?$_Wrap_alloc@V?$allocator@PAVErrorInfo@Reader@Json@@@std@@@0@U_Scalar_ptr_iterator_tag@0@@Z ; std::_Uninit_copy<Json::Reader::ErrorInfo *,Json::Reader::ErrorInfo *>
	add	esp, 20					; 00000014H

; 417  : 	}

	mov	esp, ebp
	pop	ebp
	ret	0
??$_Uninit_copy@PAPAVErrorInfo@Reader@Json@@PAPAV123@U?$_Wrap_alloc@V?$allocator@PAVErrorInfo@Reader@Json@@@std@@@std@@@std@@YAPAPAVErrorInfo@Reader@Json@@PAPAV123@00AAU?$_Wrap_alloc@V?$allocator@PAVErrorInfo@Reader@Json@@@std@@@0@@Z ENDP ; std::_Uninit_copy<Json::Reader::ErrorInfo * *,Json::Reader::ErrorInfo * *,std::_Wrap_alloc<std::allocator<Json::Reader::ErrorInfo *> > >
_TEXT	ENDS
; Function compile flags: /Odtp
; File c:\program files (x86)\microsoft visual studio 12.0\vc\include\xutility
;	COMDAT ??$_Unchecked@PAPAVErrorInfo@Reader@Json@@@std@@YAPAPAVErrorInfo@Reader@Json@@PAPAV123@@Z
_TEXT	SEGMENT
__Src$ = 8						; size = 4
??$_Unchecked@PAPAVErrorInfo@Reader@Json@@@std@@YAPAPAVErrorInfo@Reader@Json@@PAPAV123@@Z PROC ; std::_Unchecked<Json::Reader::ErrorInfo * *>, COMDAT

; 280  : 	{	// construct unchecked from checked, generic

	push	ebp
	mov	ebp, esp

; 281  : 	return (_Src);

	mov	eax, DWORD PTR __Src$[ebp]

; 282  : 	}

	pop	ebp
	ret	0
??$_Unchecked@PAPAVErrorInfo@Reader@Json@@@std@@YAPAPAVErrorInfo@Reader@Json@@PAPAV123@@Z ENDP ; std::_Unchecked<Json::Reader::ErrorInfo * *>
_TEXT	ENDS
; Function compile flags: /Odtp
; File c:\program files (x86)\microsoft visual studio 12.0\vc\include\xmemory0
;	COMDAT ??$destroy@VErrorInfo@Reader@Json@@@?$allocator_traits@V?$allocator@VErrorInfo@Reader@Json@@@std@@@std@@SAXAAV?$allocator@VErrorInfo@Reader@Json@@@1@PAVErrorInfo@Reader@Json@@@Z
_TEXT	SEGMENT
__Al$ = 8						; size = 4
__Ptr$ = 12						; size = 4
??$destroy@VErrorInfo@Reader@Json@@@?$allocator_traits@V?$allocator@VErrorInfo@Reader@Json@@@std@@@std@@SAXAAV?$allocator@VErrorInfo@Reader@Json@@@1@PAVErrorInfo@Reader@Json@@@Z PROC ; std::allocator_traits<std::allocator<Json::Reader::ErrorInfo> >::destroy<Json::Reader::ErrorInfo>, COMDAT

; 728  : 		static void destroy(_Alloc& _Al, _Uty *_Ptr)

	push	ebp
	mov	ebp, esp

; 729  : 		{	// destroy object at _Ptr
; 730  : 		_Al.destroy(_Ptr);

	mov	eax, DWORD PTR __Ptr$[ebp]
	push	eax
	mov	ecx, DWORD PTR __Al$[ebp]
	call	??$destroy@VErrorInfo@Reader@Json@@@?$allocator@VErrorInfo@Reader@Json@@@std@@QAEXPAVErrorInfo@Reader@Json@@@Z ; std::allocator<Json::Reader::ErrorInfo>::destroy<Json::Reader::ErrorInfo>

; 731  : 		}

	pop	ebp
	ret	0
??$destroy@VErrorInfo@Reader@Json@@@?$allocator_traits@V?$allocator@VErrorInfo@Reader@Json@@@std@@@std@@SAXAAV?$allocator@VErrorInfo@Reader@Json@@@1@PAVErrorInfo@Reader@Json@@@Z ENDP ; std::allocator_traits<std::allocator<Json::Reader::ErrorInfo> >::destroy<Json::Reader::ErrorInfo>
_TEXT	ENDS
; Function compile flags: /Odtp
; File c:\program files (x86)\microsoft visual studio 12.0\vc\include\xmemory0
;	COMDAT ??$destroy@PAPAVValue@Json@@@?$allocator_traits@V?$allocator@PAVValue@Json@@@std@@@std@@SAXAAV?$allocator@PAVValue@Json@@@1@PAPAPAVValue@Json@@@Z
_TEXT	SEGMENT
__Al$ = 8						; size = 4
__Ptr$ = 12						; size = 4
??$destroy@PAPAVValue@Json@@@?$allocator_traits@V?$allocator@PAVValue@Json@@@std@@@std@@SAXAAV?$allocator@PAVValue@Json@@@1@PAPAPAVValue@Json@@@Z PROC ; std::allocator_traits<std::allocator<Json::Value *> >::destroy<Json::Value * *>, COMDAT

; 728  : 		static void destroy(_Alloc& _Al, _Uty *_Ptr)

	push	ebp
	mov	ebp, esp

; 729  : 		{	// destroy object at _Ptr
; 730  : 		_Al.destroy(_Ptr);

	mov	eax, DWORD PTR __Ptr$[ebp]
	push	eax
	mov	ecx, DWORD PTR __Al$[ebp]
	call	??$destroy@PAPAVValue@Json@@@?$allocator@PAVValue@Json@@@std@@QAEXPAPAPAVValue@Json@@@Z ; std::allocator<Json::Value *>::destroy<Json::Value * *>

; 731  : 		}

	pop	ebp
	ret	0
??$destroy@PAPAVValue@Json@@@?$allocator_traits@V?$allocator@PAVValue@Json@@@std@@@std@@SAXAAV?$allocator@PAVValue@Json@@@1@PAPAPAVValue@Json@@@Z ENDP ; std::allocator_traits<std::allocator<Json::Value *> >::destroy<Json::Value * *>
_TEXT	ENDS
; Function compile flags: /Odtp
; File c:\program files (x86)\microsoft visual studio 12.0\vc\include\xmemory0
;	COMDAT ??$destroy@PAVValue@Json@@@?$allocator_traits@V?$allocator@PAVValue@Json@@@std@@@std@@SAXAAV?$allocator@PAVValue@Json@@@1@PAPAVValue@Json@@@Z
_TEXT	SEGMENT
__Al$ = 8						; size = 4
__Ptr$ = 12						; size = 4
??$destroy@PAVValue@Json@@@?$allocator_traits@V?$allocator@PAVValue@Json@@@std@@@std@@SAXAAV?$allocator@PAVValue@Json@@@1@PAPAVValue@Json@@@Z PROC ; std::allocator_traits<std::allocator<Json::Value *> >::destroy<Json::Value *>, COMDAT

; 728  : 		static void destroy(_Alloc& _Al, _Uty *_Ptr)

	push	ebp
	mov	ebp, esp

; 729  : 		{	// destroy object at _Ptr
; 730  : 		_Al.destroy(_Ptr);

	mov	eax, DWORD PTR __Ptr$[ebp]
	push	eax
	mov	ecx, DWORD PTR __Al$[ebp]
	call	??$destroy@PAVValue@Json@@@?$allocator@PAVValue@Json@@@std@@QAEXPAPAVValue@Json@@@Z ; std::allocator<Json::Value *>::destroy<Json::Value *>

; 731  : 		}

	pop	ebp
	ret	0
??$destroy@PAVValue@Json@@@?$allocator_traits@V?$allocator@PAVValue@Json@@@std@@@std@@SAXAAV?$allocator@PAVValue@Json@@@1@PAPAVValue@Json@@@Z ENDP ; std::allocator_traits<std::allocator<Json::Value *> >::destroy<Json::Value *>
_TEXT	ENDS
; Function compile flags: /Odtp
; File c:\program files (x86)\microsoft visual studio 12.0\vc\include\xmemory0
;	COMDAT ??$construct@PAVValue@Json@@PAV12@@?$allocator_traits@V?$allocator@PAVValue@Json@@@std@@@std@@SAXAAV?$allocator@PAVValue@Json@@@1@PAPAVValue@Json@@$$QAPAV34@@Z
_TEXT	SEGMENT
__Al$ = 8						; size = 4
__Ptr$ = 12						; size = 4
_<_Args_0>$ = 16					; size = 4
??$construct@PAVValue@Json@@PAV12@@?$allocator_traits@V?$allocator@PAVValue@Json@@@std@@@std@@SAXAAV?$allocator@PAVValue@Json@@@1@PAPAVValue@Json@@$$QAPAV34@@Z PROC ; std::allocator_traits<std::allocator<Json::Value *> >::construct<Json::Value *,Json::Value *>, COMDAT

; 720  : 		static void construct(_Alloc& _Al, _Objty *_Ptr,

	push	ebp
	mov	ebp, esp

; 721  : 			_Types&&... _Args)
; 722  : 		{	// construct _Objty(_Types...) at _Ptr
; 723  : 		_Al.construct(_Ptr, _STD forward<_Types>(_Args)...);

	mov	eax, DWORD PTR _<_Args_0>$[ebp]
	push	eax
	call	??$forward@PAVValue@Json@@@std@@YA$$QAPAVValue@Json@@AAPAV12@@Z ; std::forward<Json::Value *>
	add	esp, 4
	push	eax
	mov	ecx, DWORD PTR __Ptr$[ebp]
	push	ecx
	mov	ecx, DWORD PTR __Al$[ebp]
	call	??$construct@PAVValue@Json@@PAV12@@?$allocator@PAVValue@Json@@@std@@QAEXPAPAVValue@Json@@$$QAPAV23@@Z ; std::allocator<Json::Value *>::construct<Json::Value *,Json::Value *>

; 724  : 		}

	pop	ebp
	ret	0
??$construct@PAVValue@Json@@PAV12@@?$allocator_traits@V?$allocator@PAVValue@Json@@@std@@@std@@SAXAAV?$allocator@PAVValue@Json@@@1@PAPAVValue@Json@@$$QAPAV34@@Z ENDP ; std::allocator_traits<std::allocator<Json::Value *> >::construct<Json::Value *,Json::Value *>
_TEXT	ENDS
; Function compile flags: /Odtp
; File c:\program files (x86)\microsoft visual studio 12.0\vc\include\xmemory0
;	COMDAT ??$destroy@PAD@?$allocator_traits@V?$allocator@D@std@@@std@@SAXAAV?$allocator@D@1@PAPAD@Z
_TEXT	SEGMENT
__Al$ = 8						; size = 4
__Ptr$ = 12						; size = 4
??$destroy@PAD@?$allocator_traits@V?$allocator@D@std@@@std@@SAXAAV?$allocator@D@1@PAPAD@Z PROC ; std::allocator_traits<std::allocator<char> >::destroy<char *>, COMDAT

; 728  : 		static void destroy(_Alloc& _Al, _Uty *_Ptr)

	push	ebp
	mov	ebp, esp

; 729  : 		{	// destroy object at _Ptr
; 730  : 		_Al.destroy(_Ptr);

	mov	eax, DWORD PTR __Ptr$[ebp]
	push	eax
	mov	ecx, DWORD PTR __Al$[ebp]
	call	??$destroy@PAD@?$allocator@D@std@@QAEXPAPAD@Z ; std::allocator<char>::destroy<char *>

; 731  : 		}

	pop	ebp
	ret	0
??$destroy@PAD@?$allocator_traits@V?$allocator@D@std@@@std@@SAXAAV?$allocator@D@1@PAPAD@Z ENDP ; std::allocator_traits<std::allocator<char> >::destroy<char *>
_TEXT	ENDS
; Function compile flags: /Odtp
; File c:\program files (x86)\microsoft visual studio 12.0\vc\include\xmemory0
;	COMDAT ??$construct@PADAAPAD@?$allocator_traits@V?$allocator@D@std@@@std@@SAXAAV?$allocator@D@1@PAPADAAPAD@Z
_TEXT	SEGMENT
__Al$ = 8						; size = 4
__Ptr$ = 12						; size = 4
_<_Args_0>$ = 16					; size = 4
??$construct@PADAAPAD@?$allocator_traits@V?$allocator@D@std@@@std@@SAXAAV?$allocator@D@1@PAPADAAPAD@Z PROC ; std::allocator_traits<std::allocator<char> >::construct<char *,char * &>, COMDAT

; 720  : 		static void construct(_Alloc& _Al, _Objty *_Ptr,

	push	ebp
	mov	ebp, esp

; 721  : 			_Types&&... _Args)
; 722  : 		{	// construct _Objty(_Types...) at _Ptr
; 723  : 		_Al.construct(_Ptr, _STD forward<_Types>(_Args)...);

	mov	eax, DWORD PTR _<_Args_0>$[ebp]
	push	eax
	call	??$forward@AAPAD@std@@YAAAPADAAPAD@Z	; std::forward<char * &>
	add	esp, 4
	push	eax
	mov	ecx, DWORD PTR __Ptr$[ebp]
	push	ecx
	mov	ecx, DWORD PTR __Al$[ebp]
	call	??$construct@PADAAPAD@?$allocator@D@std@@QAEXPAPADAAPAD@Z ; std::allocator<char>::construct<char *,char * &>

; 724  : 		}

	pop	ebp
	ret	0
??$construct@PADAAPAD@?$allocator_traits@V?$allocator@D@std@@@std@@SAXAAV?$allocator@D@1@PAPADAAPAD@Z ENDP ; std::allocator_traits<std::allocator<char> >::construct<char *,char * &>
_TEXT	ENDS
; Function compile flags: /Odtp
; File c:\program files (x86)\microsoft visual studio 12.0\vc\include\type_traits
;	COMDAT ??$forward@AAPAD@std@@YAAAPADAAPAD@Z
_TEXT	SEGMENT
__Arg$ = 8						; size = 4
??$forward@AAPAD@std@@YAAAPADAAPAD@Z PROC		; std::forward<char * &>, COMDAT

; 1504 : 	{	// forward an lvalue

	push	ebp
	mov	ebp, esp

; 1505 : 	return (static_cast<_Ty&&>(_Arg));

	mov	eax, DWORD PTR __Arg$[ebp]

; 1506 : 	}

	pop	ebp
	ret	0
??$forward@AAPAD@std@@YAAAPADAAPAD@Z ENDP		; std::forward<char * &>
_TEXT	ENDS
; Function compile flags: /Odtp
; File c:\program files (x86)\microsoft visual studio 12.0\vc\include\xmemory0
;	COMDAT ??$construct@VErrorInfo@Reader@Json@@ABV123@@?$allocator_traits@V?$allocator@VErrorInfo@Reader@Json@@@std@@@std@@SAXAAV?$allocator@VErrorInfo@Reader@Json@@@1@PAVErrorInfo@Reader@Json@@ABV345@@Z
_TEXT	SEGMENT
__Al$ = 8						; size = 4
__Ptr$ = 12						; size = 4
_<_Args_0>$ = 16					; size = 4
??$construct@VErrorInfo@Reader@Json@@ABV123@@?$allocator_traits@V?$allocator@VErrorInfo@Reader@Json@@@std@@@std@@SAXAAV?$allocator@VErrorInfo@Reader@Json@@@1@PAVErrorInfo@Reader@Json@@ABV345@@Z PROC ; std::allocator_traits<std::allocator<Json::Reader::ErrorInfo> >::construct<Json::Reader::ErrorInfo,Json::Reader::ErrorInfo const &>, COMDAT

; 720  : 		static void construct(_Alloc& _Al, _Objty *_Ptr,

	push	ebp
	mov	ebp, esp

; 721  : 			_Types&&... _Args)
; 722  : 		{	// construct _Objty(_Types...) at _Ptr
; 723  : 		_Al.construct(_Ptr, _STD forward<_Types>(_Args)...);

	mov	eax, DWORD PTR _<_Args_0>$[ebp]
	push	eax
	call	??$forward@ABVErrorInfo@Reader@Json@@@std@@YAABVErrorInfo@Reader@Json@@ABV123@@Z ; std::forward<Json::Reader::ErrorInfo const &>
	add	esp, 4
	push	eax
	mov	ecx, DWORD PTR __Ptr$[ebp]
	push	ecx
	mov	ecx, DWORD PTR __Al$[ebp]
	call	?construct@?$allocator@VErrorInfo@Reader@Json@@@std@@QAEXPAVErrorInfo@Reader@Json@@ABV345@@Z ; std::allocator<Json::Reader::ErrorInfo>::construct

; 724  : 		}

	pop	ebp
	ret	0
??$construct@VErrorInfo@Reader@Json@@ABV123@@?$allocator_traits@V?$allocator@VErrorInfo@Reader@Json@@@std@@@std@@SAXAAV?$allocator@VErrorInfo@Reader@Json@@@1@PAVErrorInfo@Reader@Json@@ABV345@@Z ENDP ; std::allocator_traits<std::allocator<Json::Reader::ErrorInfo> >::construct<Json::Reader::ErrorInfo,Json::Reader::ErrorInfo const &>
_TEXT	ENDS
; Function compile flags: /Odtp
; File c:\program files (x86)\microsoft visual studio 12.0\vc\include\type_traits
;	COMDAT ??$forward@ABVErrorInfo@Reader@Json@@@std@@YAABVErrorInfo@Reader@Json@@ABV123@@Z
_TEXT	SEGMENT
__Arg$ = 8						; size = 4
??$forward@ABVErrorInfo@Reader@Json@@@std@@YAABVErrorInfo@Reader@Json@@ABV123@@Z PROC ; std::forward<Json::Reader::ErrorInfo const &>, COMDAT

; 1504 : 	{	// forward an lvalue

	push	ebp
	mov	ebp, esp

; 1505 : 	return (static_cast<_Ty&&>(_Arg));

	mov	eax, DWORD PTR __Arg$[ebp]

; 1506 : 	}

	pop	ebp
	ret	0
??$forward@ABVErrorInfo@Reader@Json@@@std@@YAABVErrorInfo@Reader@Json@@ABV123@@Z ENDP ; std::forward<Json::Reader::ErrorInfo const &>
_TEXT	ENDS
; Function compile flags: /Odtp
; File c:\program files (x86)\microsoft visual studio 12.0\vc\include\xmemory0
;	COMDAT ??$?8DD@std@@YA_NABV?$allocator@D@0@0@Z
_TEXT	SEGMENT
___formal$ = 8						; size = 4
___formal$ = 12						; size = 4
??$?8DD@std@@YA_NABV?$allocator@D@0@0@Z PROC		; std::operator==<char,char>, COMDAT

; 660  : 	{	// test for allocator equality

	push	ebp
	mov	ebp, esp

; 661  : 	return (true);

	mov	al, 1

; 662  : 	}

	pop	ebp
	ret	0
??$?8DD@std@@YA_NABV?$allocator@D@0@0@Z ENDP		; std::operator==<char,char>
_TEXT	ENDS
; Function compile flags: /Odtp
; File c:\program files (x86)\microsoft visual studio 12.0\vc\include\xmemory0
;	COMDAT ??$?8V?$allocator@D@std@@V01@@std@@YA_NABU?$_Wrap_alloc@V?$allocator@D@std@@@0@0@Z
_TEXT	SEGMENT
$T1 = -2						; size = 1
$T2 = -1						; size = 1
__Left$ = 8						; size = 4
__Right$ = 12						; size = 4
??$?8V?$allocator@D@std@@V01@@std@@YA_NABU?$_Wrap_alloc@V?$allocator@D@std@@@0@0@Z PROC ; std::operator==<std::allocator<char>,std::allocator<char> >, COMDAT

; 892  : 	{	// test for allocator equality

	push	ebp
	mov	ebp, esp
	push	ecx

; 893  : 	return (static_cast<_Ty>(_Left) == static_cast<_Other>(_Right));

	mov	eax, DWORD PTR __Right$[ebp]
	push	eax
	lea	ecx, DWORD PTR $T2[ebp]
	call	??0?$allocator@D@std@@QAE@ABV01@@Z	; std::allocator<char>::allocator<char>
	push	eax
	mov	ecx, DWORD PTR __Left$[ebp]
	push	ecx
	lea	ecx, DWORD PTR $T1[ebp]
	call	??0?$allocator@D@std@@QAE@ABV01@@Z	; std::allocator<char>::allocator<char>
	push	eax
	call	??$?8DD@std@@YA_NABV?$allocator@D@0@0@Z	; std::operator==<char,char>
	add	esp, 8

; 894  : 	}

	mov	esp, ebp
	pop	ebp
	ret	0
??$?8V?$allocator@D@std@@V01@@std@@YA_NABU?$_Wrap_alloc@V?$allocator@D@std@@@0@0@Z ENDP ; std::operator==<std::allocator<char>,std::allocator<char> >
_TEXT	ENDS
; Function compile flags: /Odtp
; File c:\program files (x86)\microsoft visual studio 12.0\vc\include\type_traits
;	COMDAT ??$move@AAV?$basic_string@DU?$char_traits@D@std@@V?$allocator@D@2@@std@@@std@@YA$$QAV?$basic_string@DU?$char_traits@D@std@@V?$allocator@D@2@@0@AAV10@@Z
_TEXT	SEGMENT
__Arg$ = 8						; size = 4
??$move@AAV?$basic_string@DU?$char_traits@D@std@@V?$allocator@D@2@@std@@@std@@YA$$QAV?$basic_string@DU?$char_traits@D@std@@V?$allocator@D@2@@0@AAV10@@Z PROC ; std::move<std::basic_string<char,std::char_traits<char>,std::allocator<char> > &>, COMDAT

; 1519 : 	{	// forward _Arg as movable

	push	ebp
	mov	ebp, esp

; 1520 : 	return ((typename remove_reference<_Ty>::type&&)_Arg);

	mov	eax, DWORD PTR __Arg$[ebp]

; 1521 : 	}

	pop	ebp
	ret	0
??$move@AAV?$basic_string@DU?$char_traits@D@std@@V?$allocator@D@2@@std@@@std@@YA$$QAV?$basic_string@DU?$char_traits@D@std@@V?$allocator@D@2@@0@AAV10@@Z ENDP ; std::move<std::basic_string<char,std::char_traits<char>,std::allocator<char> > &>
_TEXT	ENDS
; Function compile flags: /Odtp
; File c:\program files (x86)\microsoft visual studio 12.0\vc\include\type_traits
;	COMDAT ??$move@AAV?$basic_istream@DU?$char_traits@D@std@@@std@@@std@@YA$$QAV?$basic_istream@DU?$char_traits@D@std@@@0@AAV10@@Z
_TEXT	SEGMENT
__Arg$ = 8						; size = 4
??$move@AAV?$basic_istream@DU?$char_traits@D@std@@@std@@@std@@YA$$QAV?$basic_istream@DU?$char_traits@D@std@@@0@AAV10@@Z PROC ; std::move<std::basic_istream<char,std::char_traits<char> > &>, COMDAT

; 1519 : 	{	// forward _Arg as movable

	push	ebp
	mov	ebp, esp

; 1520 : 	return ((typename remove_reference<_Ty>::type&&)_Arg);

	mov	eax, DWORD PTR __Arg$[ebp]

; 1521 : 	}

	pop	ebp
	ret	0
??$move@AAV?$basic_istream@DU?$char_traits@D@std@@@std@@@std@@YA$$QAV?$basic_istream@DU?$char_traits@D@std@@@0@AAV10@@Z ENDP ; std::move<std::basic_istream<char,std::char_traits<char> > &>
_TEXT	ENDS
; Function compile flags: /Odtp
;	COMDAT ??__F?_System_object@?$_Error_objects@H@std@@2V_System_error_category@2@A@@YAXXZ
text$yd	SEGMENT
??__F?_System_object@?$_Error_objects@H@std@@2V_System_error_category@2@A@@YAXXZ PROC ; `dynamic atexit destructor for 'std::_Error_objects<int>::_System_object'', COMDAT
	push	ebp
	mov	ebp, esp
	mov	ecx, OFFSET ?_System_object@?$_Error_objects@H@std@@2V_System_error_category@2@A ; std::_Error_objects<int>::_System_object
	call	??1_System_error_category@std@@UAE@XZ
	pop	ebp
	ret	0
??__F?_System_object@?$_Error_objects@H@std@@2V_System_error_category@2@A@@YAXXZ ENDP ; `dynamic atexit destructor for 'std::_Error_objects<int>::_System_object''
text$yd	ENDS
; Function compile flags: /Odtp
; File c:\program files (x86)\microsoft visual studio 12.0\vc\include\xmemory0
;	COMDAT ??__E?_System_object@?$_Error_objects@H@std@@2V_System_error_category@2@A@@YAXXZ
text$di	SEGMENT
??__E?_System_object@?$_Error_objects@H@std@@2V_System_error_category@2@A@@YAXXZ PROC ; `dynamic initializer for 'std::_Error_objects<int>::_System_object'', COMDAT

; 611  : 		{	// estimate maximum array size

	push	ebp
	mov	ebp, esp
	mov	ecx, OFFSET ?_System_object@?$_Error_objects@H@std@@2V_System_error_category@2@A ; std::_Error_objects<int>::_System_object
	call	??0_System_error_category@std@@QAE@XZ	; std::_System_error_category::_System_error_category
	push	OFFSET ??__F?_System_object@?$_Error_objects@H@std@@2V_System_error_category@2@A@@YAXXZ ; `dynamic atexit destructor for 'std::_Error_objects<int>::_System_object''
	call	_atexit
	add	esp, 4
	pop	ebp
	ret	0
??__E?_System_object@?$_Error_objects@H@std@@2V_System_error_category@2@A@@YAXXZ ENDP ; `dynamic initializer for 'std::_Error_objects<int>::_System_object''
text$di	ENDS
; Function compile flags: /Odtp
;	COMDAT ??__F?_Iostream_object@?$_Error_objects@H@std@@2V_Iostream_error_category@2@A@@YAXXZ
text$yd	SEGMENT
??__F?_Iostream_object@?$_Error_objects@H@std@@2V_Iostream_error_category@2@A@@YAXXZ PROC ; `dynamic atexit destructor for 'std::_Error_objects<int>::_Iostream_object'', COMDAT
	push	ebp
	mov	ebp, esp
	mov	ecx, OFFSET ?_Iostream_object@?$_Error_objects@H@std@@2V_Iostream_error_category@2@A ; std::_Error_objects<int>::_Iostream_object
	call	??1_Iostream_error_category@std@@UAE@XZ
	pop	ebp
	ret	0
??__F?_Iostream_object@?$_Error_objects@H@std@@2V_Iostream_error_category@2@A@@YAXXZ ENDP ; `dynamic atexit destructor for 'std::_Error_objects<int>::_Iostream_object''
text$yd	ENDS
; Function compile flags: /Odtp
; File c:\program files (x86)\microsoft visual studio 12.0\vc\include\xmemory0
;	COMDAT ??__E?_Iostream_object@?$_Error_objects@H@std@@2V_Iostream_error_category@2@A@@YAXXZ
text$di	SEGMENT
??__E?_Iostream_object@?$_Error_objects@H@std@@2V_Iostream_error_category@2@A@@YAXXZ PROC ; `dynamic initializer for 'std::_Error_objects<int>::_Iostream_object'', COMDAT

; 611  : 		{	// estimate maximum array size

	push	ebp
	mov	ebp, esp
	mov	ecx, OFFSET ?_Iostream_object@?$_Error_objects@H@std@@2V_Iostream_error_category@2@A ; std::_Error_objects<int>::_Iostream_object
	call	??0_Iostream_error_category@std@@QAE@XZ	; std::_Iostream_error_category::_Iostream_error_category
	push	OFFSET ??__F?_Iostream_object@?$_Error_objects@H@std@@2V_Iostream_error_category@2@A@@YAXXZ ; `dynamic atexit destructor for 'std::_Error_objects<int>::_Iostream_object''
	call	_atexit
	add	esp, 4
	pop	ebp
	ret	0
??__E?_Iostream_object@?$_Error_objects@H@std@@2V_Iostream_error_category@2@A@@YAXXZ ENDP ; `dynamic initializer for 'std::_Error_objects<int>::_Iostream_object''
text$di	ENDS
; Function compile flags: /Odtp
;	COMDAT ??__F?_Generic_object@?$_Error_objects@H@std@@2V_Generic_error_category@2@A@@YAXXZ
text$yd	SEGMENT
??__F?_Generic_object@?$_Error_objects@H@std@@2V_Generic_error_category@2@A@@YAXXZ PROC ; `dynamic atexit destructor for 'std::_Error_objects<int>::_Generic_object'', COMDAT
	push	ebp
	mov	ebp, esp
	mov	ecx, OFFSET ?_Generic_object@?$_Error_objects@H@std@@2V_Generic_error_category@2@A ; std::_Error_objects<int>::_Generic_object
	call	??1_Generic_error_category@std@@UAE@XZ
	pop	ebp
	ret	0
??__F?_Generic_object@?$_Error_objects@H@std@@2V_Generic_error_category@2@A@@YAXXZ ENDP ; `dynamic atexit destructor for 'std::_Error_objects<int>::_Generic_object''
text$yd	ENDS
; Function compile flags: /Odtp
; File c:\program files (x86)\microsoft visual studio 12.0\vc\include\xmemory0
;	COMDAT ??__E?_Generic_object@?$_Error_objects@H@std@@2V_Generic_error_category@2@A@@YAXXZ
text$di	SEGMENT
??__E?_Generic_object@?$_Error_objects@H@std@@2V_Generic_error_category@2@A@@YAXXZ PROC ; `dynamic initializer for 'std::_Error_objects<int>::_Generic_object'', COMDAT

; 611  : 		{	// estimate maximum array size

	push	ebp
	mov	ebp, esp
	mov	ecx, OFFSET ?_Generic_object@?$_Error_objects@H@std@@2V_Generic_error_category@2@A ; std::_Error_objects<int>::_Generic_object
	call	??0_Generic_error_category@std@@QAE@XZ	; std::_Generic_error_category::_Generic_error_category
	push	OFFSET ??__F?_Generic_object@?$_Error_objects@H@std@@2V_Generic_error_category@2@A@@YAXXZ ; `dynamic atexit destructor for 'std::_Error_objects<int>::_Generic_object''
	call	_atexit
	add	esp, 4
	pop	ebp
	ret	0
??__E?_Generic_object@?$_Error_objects@H@std@@2V_Generic_error_category@2@A@@YAXXZ ENDP ; `dynamic initializer for 'std::_Error_objects<int>::_Generic_object''
text$di	ENDS
; Function compile flags: /Odtp
; File c:\program files (x86)\microsoft visual studio 12.0\vc\include\xmemory0
;	COMDAT ??$_Allocate@U_Container_proxy@std@@@std@@YAPAU_Container_proxy@0@IPAU10@@Z
_TEXT	SEGMENT
__Ptr$ = -4						; size = 4
__Count$ = 8						; size = 4
___formal$ = 12						; size = 4
??$_Allocate@U_Container_proxy@std@@@std@@YAPAU_Container_proxy@0@IPAU10@@Z PROC ; std::_Allocate<std::_Container_proxy>, COMDAT

; 22   : 	{	// allocate storage for _Count elements of type _Ty

	push	ebp
	mov	ebp, esp
	push	ecx

; 23   : 	void *_Ptr = 0;

	mov	DWORD PTR __Ptr$[ebp], 0

; 24   : 
; 25   : 	if (_Count == 0)

	cmp	DWORD PTR __Count$[ebp], 0
	jne	SHORT $LN4@Allocate

; 26   : 		;
; 27   : 	else if (((size_t)(-1) / sizeof (_Ty) < _Count)

	jmp	SHORT $LN3@Allocate
$LN4@Allocate:

; 28   : 		|| (_Ptr = ::operator new(_Count * sizeof (_Ty))) == 0)

	cmp	DWORD PTR __Count$[ebp], 536870911	; 1fffffffH
	ja	SHORT $LN1@Allocate
	mov	eax, DWORD PTR __Count$[ebp]
	shl	eax, 3
	push	eax
	call	??2@YAPAXI@Z				; operator new
	add	esp, 4
	mov	DWORD PTR __Ptr$[ebp], eax
	cmp	DWORD PTR __Ptr$[ebp], 0
	jne	SHORT $LN3@Allocate
$LN1@Allocate:

; 29   : 		_Xbad_alloc();	// report no memory

	call	DWORD PTR __imp_?_Xbad_alloc@std@@YAXXZ
$LN3@Allocate:

; 30   : 
; 31   : 	return ((_Ty *)_Ptr);

	mov	eax, DWORD PTR __Ptr$[ebp]
$LN6@Allocate:

; 32   : 	}

	mov	esp, ebp
	pop	ebp
	ret	0
??$_Allocate@U_Container_proxy@std@@@std@@YAPAU_Container_proxy@0@IPAU10@@Z ENDP ; std::_Allocate<std::_Container_proxy>
_TEXT	ENDS
; Function compile flags: /Odtp
; File c:\program files (x86)\microsoft visual studio 12.0\vc\include\xmemory0
;	COMDAT ??$_Allocate@PAPAVValue@Json@@@std@@YAPAPAPAVValue@Json@@IPAPAPAV12@@Z
_TEXT	SEGMENT
__Ptr$ = -4						; size = 4
__Count$ = 8						; size = 4
___formal$ = 12						; size = 4
??$_Allocate@PAPAVValue@Json@@@std@@YAPAPAPAVValue@Json@@IPAPAPAV12@@Z PROC ; std::_Allocate<Json::Value * *>, COMDAT

; 22   : 	{	// allocate storage for _Count elements of type _Ty

	push	ebp
	mov	ebp, esp
	push	ecx

; 23   : 	void *_Ptr = 0;

	mov	DWORD PTR __Ptr$[ebp], 0

; 24   : 
; 25   : 	if (_Count == 0)

	cmp	DWORD PTR __Count$[ebp], 0
	jne	SHORT $LN4@Allocate

; 26   : 		;
; 27   : 	else if (((size_t)(-1) / sizeof (_Ty) < _Count)

	jmp	SHORT $LN3@Allocate
$LN4@Allocate:

; 28   : 		|| (_Ptr = ::operator new(_Count * sizeof (_Ty))) == 0)

	cmp	DWORD PTR __Count$[ebp], 1073741823	; 3fffffffH
	ja	SHORT $LN1@Allocate
	mov	eax, DWORD PTR __Count$[ebp]
	shl	eax, 2
	push	eax
	call	??2@YAPAXI@Z				; operator new
	add	esp, 4
	mov	DWORD PTR __Ptr$[ebp], eax
	cmp	DWORD PTR __Ptr$[ebp], 0
	jne	SHORT $LN3@Allocate
$LN1@Allocate:

; 29   : 		_Xbad_alloc();	// report no memory

	call	DWORD PTR __imp_?_Xbad_alloc@std@@YAXXZ
$LN3@Allocate:

; 30   : 
; 31   : 	return ((_Ty *)_Ptr);

	mov	eax, DWORD PTR __Ptr$[ebp]
$LN6@Allocate:

; 32   : 	}

	mov	esp, ebp
	pop	ebp
	ret	0
??$_Allocate@PAPAVValue@Json@@@std@@YAPAPAPAVValue@Json@@IPAPAPAV12@@Z ENDP ; std::_Allocate<Json::Value * *>
_TEXT	ENDS
; Function compile flags: /Odtp
; File c:\program files (x86)\microsoft visual studio 12.0\vc\include\xmemory0
;	COMDAT ??$_Allocate@D@std@@YAPADIPAD@Z
_TEXT	SEGMENT
__Ptr$ = -4						; size = 4
__Count$ = 8						; size = 4
___formal$ = 12						; size = 4
??$_Allocate@D@std@@YAPADIPAD@Z PROC			; std::_Allocate<char>, COMDAT

; 22   : 	{	// allocate storage for _Count elements of type _Ty

	push	ebp
	mov	ebp, esp
	push	ecx

; 23   : 	void *_Ptr = 0;

	mov	DWORD PTR __Ptr$[ebp], 0

; 24   : 
; 25   : 	if (_Count == 0)

	cmp	DWORD PTR __Count$[ebp], 0
	jne	SHORT $LN4@Allocate

; 26   : 		;
; 27   : 	else if (((size_t)(-1) / sizeof (_Ty) < _Count)

	jmp	SHORT $LN3@Allocate
$LN4@Allocate:

; 28   : 		|| (_Ptr = ::operator new(_Count * sizeof (_Ty))) == 0)

	cmp	DWORD PTR __Count$[ebp], -1
	ja	SHORT $LN1@Allocate
	mov	eax, DWORD PTR __Count$[ebp]
	push	eax
	call	??2@YAPAXI@Z				; operator new
	add	esp, 4
	mov	DWORD PTR __Ptr$[ebp], eax
	cmp	DWORD PTR __Ptr$[ebp], 0
	jne	SHORT $LN3@Allocate
$LN1@Allocate:

; 29   : 		_Xbad_alloc();	// report no memory

	call	DWORD PTR __imp_?_Xbad_alloc@std@@YAXXZ
$LN3@Allocate:

; 30   : 
; 31   : 	return ((_Ty *)_Ptr);

	mov	eax, DWORD PTR __Ptr$[ebp]
$LN6@Allocate:

; 32   : 	}

	mov	esp, ebp
	pop	ebp
	ret	0
??$_Allocate@D@std@@YAPADIPAD@Z ENDP			; std::_Allocate<char>
_TEXT	ENDS
; Function compile flags: /Odtp
; File c:\program files (x86)\microsoft visual studio 12.0\vc\include\xmemory0
;	COMDAT ??$_Allocate@PAVErrorInfo@Reader@Json@@@std@@YAPAPAVErrorInfo@Reader@Json@@IPAPAV123@@Z
_TEXT	SEGMENT
__Ptr$ = -4						; size = 4
__Count$ = 8						; size = 4
___formal$ = 12						; size = 4
??$_Allocate@PAVErrorInfo@Reader@Json@@@std@@YAPAPAVErrorInfo@Reader@Json@@IPAPAV123@@Z PROC ; std::_Allocate<Json::Reader::ErrorInfo *>, COMDAT

; 22   : 	{	// allocate storage for _Count elements of type _Ty

	push	ebp
	mov	ebp, esp
	push	ecx

; 23   : 	void *_Ptr = 0;

	mov	DWORD PTR __Ptr$[ebp], 0

; 24   : 
; 25   : 	if (_Count == 0)

	cmp	DWORD PTR __Count$[ebp], 0
	jne	SHORT $LN4@Allocate

; 26   : 		;
; 27   : 	else if (((size_t)(-1) / sizeof (_Ty) < _Count)

	jmp	SHORT $LN3@Allocate
$LN4@Allocate:

; 28   : 		|| (_Ptr = ::operator new(_Count * sizeof (_Ty))) == 0)

	cmp	DWORD PTR __Count$[ebp], 1073741823	; 3fffffffH
	ja	SHORT $LN1@Allocate
	mov	eax, DWORD PTR __Count$[ebp]
	shl	eax, 2
	push	eax
	call	??2@YAPAXI@Z				; operator new
	add	esp, 4
	mov	DWORD PTR __Ptr$[ebp], eax
	cmp	DWORD PTR __Ptr$[ebp], 0
	jne	SHORT $LN3@Allocate
$LN1@Allocate:

; 29   : 		_Xbad_alloc();	// report no memory

	call	DWORD PTR __imp_?_Xbad_alloc@std@@YAXXZ
$LN3@Allocate:

; 30   : 
; 31   : 	return ((_Ty *)_Ptr);

	mov	eax, DWORD PTR __Ptr$[ebp]
$LN6@Allocate:

; 32   : 	}

	mov	esp, ebp
	pop	ebp
	ret	0
??$_Allocate@PAVErrorInfo@Reader@Json@@@std@@YAPAPAVErrorInfo@Reader@Json@@IPAPAV123@@Z ENDP ; std::_Allocate<Json::Reader::ErrorInfo *>
_TEXT	ENDS
; Function compile flags: /Odtp
; File c:\program files (x86)\microsoft visual studio 12.0\vc\include\xmemory0
;	COMDAT ??$_Allocate@PAVValue@Json@@@std@@YAPAPAVValue@Json@@IPAPAV12@@Z
_TEXT	SEGMENT
__Ptr$ = -4						; size = 4
__Count$ = 8						; size = 4
___formal$ = 12						; size = 4
??$_Allocate@PAVValue@Json@@@std@@YAPAPAVValue@Json@@IPAPAV12@@Z PROC ; std::_Allocate<Json::Value *>, COMDAT

; 22   : 	{	// allocate storage for _Count elements of type _Ty

	push	ebp
	mov	ebp, esp
	push	ecx

; 23   : 	void *_Ptr = 0;

	mov	DWORD PTR __Ptr$[ebp], 0

; 24   : 
; 25   : 	if (_Count == 0)

	cmp	DWORD PTR __Count$[ebp], 0
	jne	SHORT $LN4@Allocate

; 26   : 		;
; 27   : 	else if (((size_t)(-1) / sizeof (_Ty) < _Count)

	jmp	SHORT $LN3@Allocate
$LN4@Allocate:

; 28   : 		|| (_Ptr = ::operator new(_Count * sizeof (_Ty))) == 0)

	cmp	DWORD PTR __Count$[ebp], 1073741823	; 3fffffffH
	ja	SHORT $LN1@Allocate
	mov	eax, DWORD PTR __Count$[ebp]
	shl	eax, 2
	push	eax
	call	??2@YAPAXI@Z				; operator new
	add	esp, 4
	mov	DWORD PTR __Ptr$[ebp], eax
	cmp	DWORD PTR __Ptr$[ebp], 0
	jne	SHORT $LN3@Allocate
$LN1@Allocate:

; 29   : 		_Xbad_alloc();	// report no memory

	call	DWORD PTR __imp_?_Xbad_alloc@std@@YAXXZ
$LN3@Allocate:

; 30   : 
; 31   : 	return ((_Ty *)_Ptr);

	mov	eax, DWORD PTR __Ptr$[ebp]
$LN6@Allocate:

; 32   : 	}

	mov	esp, ebp
	pop	ebp
	ret	0
??$_Allocate@PAVValue@Json@@@std@@YAPAPAVValue@Json@@IPAPAV12@@Z ENDP ; std::_Allocate<Json::Value *>
_TEXT	ENDS
; Function compile flags: /Odtp
; File c:\program files (x86)\microsoft visual studio 12.0\vc\include\xmemory0
;	COMDAT ??$construct@U_Container_proxy@std@@U12@@?$_Wrap_alloc@V?$allocator@U_Container_proxy@std@@@std@@@std@@QAEXPAU_Container_proxy@1@$$QAU21@@Z
_TEXT	SEGMENT
_this$ = -4						; size = 4
__Ptr$ = 8						; size = 4
_<_Args_0>$ = 12					; size = 4
??$construct@U_Container_proxy@std@@U12@@?$_Wrap_alloc@V?$allocator@U_Container_proxy@std@@@std@@@std@@QAEXPAU_Container_proxy@1@$$QAU21@@Z PROC ; std::_Wrap_alloc<std::allocator<std::_Container_proxy> >::construct<std::_Container_proxy,std::_Container_proxy>, COMDAT
; _this$ = ecx

; 868  : 		void construct(_Ty *_Ptr,

	push	ebp
	mov	ebp, esp
	push	ecx
	mov	DWORD PTR _this$[ebp], ecx

; 869  : 			_Types&&... _Args)
; 870  : 		{	// construct _Ty(_Types...) at _Ptr
; 871  : 		_Mytraits::construct(*this, _Ptr,
; 872  : 			_STD forward<_Types>(_Args)...);

	mov	eax, DWORD PTR _<_Args_0>$[ebp]
	push	eax
	call	??$forward@U_Container_proxy@std@@@std@@YA$$QAU_Container_proxy@0@AAU10@@Z ; std::forward<std::_Container_proxy>
	add	esp, 4
	push	eax
	mov	ecx, DWORD PTR __Ptr$[ebp]
	push	ecx
	mov	edx, DWORD PTR _this$[ebp]
	push	edx
	call	??$construct@U_Container_proxy@std@@U12@@?$allocator_traits@V?$allocator@U_Container_proxy@std@@@std@@@std@@SAXAAV?$allocator@U_Container_proxy@std@@@1@PAU_Container_proxy@1@$$QAU31@@Z ; std::allocator_traits<std::allocator<std::_Container_proxy> >::construct<std::_Container_proxy,std::_Container_proxy>
	add	esp, 12					; 0000000cH

; 873  : 		}

	mov	esp, ebp
	pop	ebp
	ret	8
??$construct@U_Container_proxy@std@@U12@@?$_Wrap_alloc@V?$allocator@U_Container_proxy@std@@@std@@@std@@QAEXPAU_Container_proxy@1@$$QAU21@@Z ENDP ; std::_Wrap_alloc<std::allocator<std::_Container_proxy> >::construct<std::_Container_proxy,std::_Container_proxy>
_TEXT	ENDS
; Function compile flags: /Odtp
; File c:\program files (x86)\microsoft visual studio 12.0\vc\include\xmemory0
;	COMDAT ??$_Allocate@VErrorInfo@Reader@Json@@@std@@YAPAVErrorInfo@Reader@Json@@IPAV123@@Z
_TEXT	SEGMENT
__Ptr$ = -4						; size = 4
__Count$ = 8						; size = 4
___formal$ = 12						; size = 4
??$_Allocate@VErrorInfo@Reader@Json@@@std@@YAPAVErrorInfo@Reader@Json@@IPAV123@@Z PROC ; std::_Allocate<Json::Reader::ErrorInfo>, COMDAT

; 22   : 	{	// allocate storage for _Count elements of type _Ty

	push	ebp
	mov	ebp, esp
	push	ecx

; 23   : 	void *_Ptr = 0;

	mov	DWORD PTR __Ptr$[ebp], 0

; 24   : 
; 25   : 	if (_Count == 0)

	cmp	DWORD PTR __Count$[ebp], 0
	jne	SHORT $LN4@Allocate

; 26   : 		;
; 27   : 	else if (((size_t)(-1) / sizeof (_Ty) < _Count)

	jmp	SHORT $LN3@Allocate
$LN4@Allocate:

; 28   : 		|| (_Ptr = ::operator new(_Count * sizeof (_Ty))) == 0)

	cmp	DWORD PTR __Count$[ebp], 107374182	; 06666666H
	ja	SHORT $LN1@Allocate
	imul	eax, DWORD PTR __Count$[ebp], 40
	push	eax
	call	??2@YAPAXI@Z				; operator new
	add	esp, 4
	mov	DWORD PTR __Ptr$[ebp], eax
	cmp	DWORD PTR __Ptr$[ebp], 0
	jne	SHORT $LN3@Allocate
$LN1@Allocate:

; 29   : 		_Xbad_alloc();	// report no memory

	call	DWORD PTR __imp_?_Xbad_alloc@std@@YAXXZ
$LN3@Allocate:

; 30   : 
; 31   : 	return ((_Ty *)_Ptr);

	mov	eax, DWORD PTR __Ptr$[ebp]
$LN6@Allocate:

; 32   : 	}

	mov	esp, ebp
	pop	ebp
	ret	0
??$_Allocate@VErrorInfo@Reader@Json@@@std@@YAPAVErrorInfo@Reader@Json@@IPAV123@@Z ENDP ; std::_Allocate<Json::Reader::ErrorInfo>
_TEXT	ENDS
; Function compile flags: /Odtp
; File c:\program files (x86)\microsoft visual studio 12.0\vc\include\xmemory0
;	COMDAT ??$destroy@U_Container_proxy@std@@@?$_Wrap_alloc@V?$allocator@U_Container_proxy@std@@@std@@@std@@QAEXPAU_Container_proxy@1@@Z
_TEXT	SEGMENT
_this$ = -4						; size = 4
__Ptr$ = 8						; size = 4
??$destroy@U_Container_proxy@std@@@?$_Wrap_alloc@V?$allocator@U_Container_proxy@std@@@std@@@std@@QAEXPAU_Container_proxy@1@@Z PROC ; std::_Wrap_alloc<std::allocator<std::_Container_proxy> >::destroy<std::_Container_proxy>, COMDAT
; _this$ = ecx

; 877  : 		void destroy(_Ty *_Ptr)

	push	ebp
	mov	ebp, esp
	push	ecx
	mov	DWORD PTR _this$[ebp], ecx

; 878  : 		{	// destroy object at _Ptr
; 879  : 		_Mytraits::destroy(*this, _Ptr);

	mov	eax, DWORD PTR __Ptr$[ebp]
	push	eax
	mov	ecx, DWORD PTR _this$[ebp]
	push	ecx
	call	??$destroy@U_Container_proxy@std@@@?$allocator_traits@V?$allocator@U_Container_proxy@std@@@std@@@std@@SAXAAV?$allocator@U_Container_proxy@std@@@1@PAU_Container_proxy@1@@Z ; std::allocator_traits<std::allocator<std::_Container_proxy> >::destroy<std::_Container_proxy>
	add	esp, 8

; 880  : 		}

	mov	esp, ebp
	pop	ebp
	ret	4
??$destroy@U_Container_proxy@std@@@?$_Wrap_alloc@V?$allocator@U_Container_proxy@std@@@std@@@std@@QAEXPAU_Container_proxy@1@@Z ENDP ; std::_Wrap_alloc<std::allocator<std::_Container_proxy> >::destroy<std::_Container_proxy>
_TEXT	ENDS
; Function compile flags: /Odtp
; File c:\program files (x86)\microsoft visual studio 12.0\vc\include\xmemory0
;	COMDAT ?deallocate@?$_Wrap_alloc@V?$allocator@U_Container_proxy@std@@@std@@@std@@QAEXPAU_Container_proxy@2@I@Z
_TEXT	SEGMENT
_this$ = -4						; size = 4
__Ptr$ = 8						; size = 4
__Count$ = 12						; size = 4
?deallocate@?$_Wrap_alloc@V?$allocator@U_Container_proxy@std@@@std@@@std@@QAEXPAU_Container_proxy@2@I@Z PROC ; std::_Wrap_alloc<std::allocator<std::_Container_proxy> >::deallocate, COMDAT
; _this$ = ecx

; 857  : 		{	// deallocate object at _Ptr, ignore size

	push	ebp
	mov	ebp, esp
	push	ecx
	mov	DWORD PTR _this$[ebp], ecx

; 858  : 		_Mybase::deallocate(_Ptr, _Count);

	mov	eax, DWORD PTR __Count$[ebp]
	push	eax
	mov	ecx, DWORD PTR __Ptr$[ebp]
	push	ecx
	mov	ecx, DWORD PTR _this$[ebp]
	call	?deallocate@?$allocator@U_Container_proxy@std@@@std@@QAEXPAU_Container_proxy@2@I@Z ; std::allocator<std::_Container_proxy>::deallocate

; 859  : 		}

	mov	esp, ebp
	pop	ebp
	ret	8
?deallocate@?$_Wrap_alloc@V?$allocator@U_Container_proxy@std@@@std@@@std@@QAEXPAU_Container_proxy@2@I@Z ENDP ; std::_Wrap_alloc<std::allocator<std::_Container_proxy> >::deallocate
_TEXT	ENDS
; Function compile flags: /Odtp
; File c:\program files (x86)\microsoft visual studio 12.0\vc\include\xmemory0
;	COMDAT ?allocate@?$_Wrap_alloc@V?$allocator@U_Container_proxy@std@@@std@@@std@@QAEPAU_Container_proxy@2@I@Z
_TEXT	SEGMENT
_this$ = -4						; size = 4
__Count$ = 8						; size = 4
?allocate@?$_Wrap_alloc@V?$allocator@U_Container_proxy@std@@@std@@@std@@QAEPAU_Container_proxy@2@I@Z PROC ; std::_Wrap_alloc<std::allocator<std::_Container_proxy> >::allocate, COMDAT
; _this$ = ecx

; 846  : 		{	// allocate array of _Count elements

	push	ebp
	mov	ebp, esp
	push	ecx
	mov	DWORD PTR _this$[ebp], ecx

; 847  : 		return (_Mybase::allocate(_Count));

	mov	eax, DWORD PTR __Count$[ebp]
	push	eax
	mov	ecx, DWORD PTR _this$[ebp]
	call	?allocate@?$allocator@U_Container_proxy@std@@@std@@QAEPAU_Container_proxy@2@I@Z ; std::allocator<std::_Container_proxy>::allocate

; 848  : 		}

	mov	esp, ebp
	pop	ebp
	ret	4
?allocate@?$_Wrap_alloc@V?$allocator@U_Container_proxy@std@@@std@@@std@@QAEPAU_Container_proxy@2@I@Z ENDP ; std::_Wrap_alloc<std::allocator<std::_Container_proxy> >::allocate
_TEXT	ENDS
; Function compile flags: /Odtp
; File c:\program files (x86)\microsoft visual studio 12.0\vc\include\xmemory0
;	COMDAT ??0?$_Wrap_alloc@V?$allocator@U_Container_proxy@std@@@std@@@std@@QAE@XZ
_TEXT	SEGMENT
_this$ = -4						; size = 4
??0?$_Wrap_alloc@V?$allocator@U_Container_proxy@std@@@std@@@std@@QAE@XZ PROC ; std::_Wrap_alloc<std::allocator<std::_Container_proxy> >::_Wrap_alloc<std::allocator<std::_Container_proxy> >, COMDAT
; _this$ = ecx

; 801  : 		{	// construct default allocator (do nothing)

	push	ebp
	mov	ebp, esp
	push	ecx
	mov	DWORD PTR _this$[ebp], ecx
	mov	ecx, DWORD PTR _this$[ebp]
	call	??0?$allocator@U_Container_proxy@std@@@std@@QAE@XZ ; std::allocator<std::_Container_proxy>::allocator<std::_Container_proxy>

; 802  : 		}

	mov	eax, DWORD PTR _this$[ebp]
	mov	esp, ebp
	pop	ebp
	ret	0
??0?$_Wrap_alloc@V?$allocator@U_Container_proxy@std@@@std@@@std@@QAE@XZ ENDP ; std::_Wrap_alloc<std::allocator<std::_Container_proxy> >::_Wrap_alloc<std::allocator<std::_Container_proxy> >
_TEXT	ENDS
; Function compile flags: /Odtp
; File c:\program files (x86)\microsoft visual studio 12.0\vc\include\xmemory0
;	COMDAT ?allocate@?$allocator@U_Container_proxy@std@@@std@@QAEPAU_Container_proxy@2@I@Z
_TEXT	SEGMENT
_this$ = -4						; size = 4
__Count$ = 8						; size = 4
?allocate@?$allocator@U_Container_proxy@std@@@std@@QAEPAU_Container_proxy@2@I@Z PROC ; std::allocator<std::_Container_proxy>::allocate, COMDAT
; _this$ = ecx

; 577  : 		{	// allocate array of _Count elements

	push	ebp
	mov	ebp, esp
	push	ecx
	mov	DWORD PTR _this$[ebp], ecx

; 578  : 		return (_Allocate(_Count, (pointer)0));

	push	0
	mov	eax, DWORD PTR __Count$[ebp]
	push	eax
	call	??$_Allocate@U_Container_proxy@std@@@std@@YAPAU_Container_proxy@0@IPAU10@@Z ; std::_Allocate<std::_Container_proxy>
	add	esp, 8

; 579  : 		}

	mov	esp, ebp
	pop	ebp
	ret	4
?allocate@?$allocator@U_Container_proxy@std@@@std@@QAEPAU_Container_proxy@2@I@Z ENDP ; std::allocator<std::_Container_proxy>::allocate
_TEXT	ENDS
; Function compile flags: /Odtp
; File c:\program files (x86)\microsoft visual studio 12.0\vc\include\xmemory0
;	COMDAT ?deallocate@?$allocator@U_Container_proxy@std@@@std@@QAEXPAU_Container_proxy@2@I@Z
_TEXT	SEGMENT
_this$ = -4						; size = 4
__Ptr$ = 8						; size = 4
___formal$ = 12						; size = 4
?deallocate@?$allocator@U_Container_proxy@std@@@std@@QAEXPAU_Container_proxy@2@I@Z PROC ; std::allocator<std::_Container_proxy>::deallocate, COMDAT
; _this$ = ecx

; 572  : 		{	// deallocate object at _Ptr, ignore size

	push	ebp
	mov	ebp, esp
	push	ecx
	mov	DWORD PTR _this$[ebp], ecx

; 573  : 		::operator delete(_Ptr);

	mov	eax, DWORD PTR __Ptr$[ebp]
	push	eax
	call	??3@YAXPAX@Z				; operator delete
	add	esp, 4

; 574  : 		}

	mov	esp, ebp
	pop	ebp
	ret	8
?deallocate@?$allocator@U_Container_proxy@std@@@std@@QAEXPAU_Container_proxy@2@I@Z ENDP ; std::allocator<std::_Container_proxy>::deallocate
_TEXT	ENDS
; Function compile flags: /Odtp
; File c:\program files (x86)\microsoft visual studio 12.0\vc\include\xmemory0
;	COMDAT ??0?$allocator@U_Container_proxy@std@@@std@@QAE@XZ
_TEXT	SEGMENT
_this$ = -4						; size = 4
??0?$allocator@U_Container_proxy@std@@@std@@QAE@XZ PROC	; std::allocator<std::_Container_proxy>::allocator<std::_Container_proxy>, COMDAT
; _this$ = ecx

; 552  : 	allocator() _THROW0()

	push	ebp
	mov	ebp, esp
	push	ecx
	mov	DWORD PTR _this$[ebp], ecx

; 553  : 		{	// construct default allocator (do nothing)
; 554  : 		}

	mov	eax, DWORD PTR _this$[ebp]
	mov	esp, ebp
	pop	ebp
	ret	0
??0?$allocator@U_Container_proxy@std@@@std@@QAE@XZ ENDP	; std::allocator<std::_Container_proxy>::allocator<std::_Container_proxy>
_TEXT	ENDS
; Function compile flags: /Odtp
; File c:\program files (x86)\microsoft visual studio 12.0\vc\include\xmemory0
;	COMDAT ??$_Destroy_range@U?$_Wrap_alloc@V?$allocator@PAPAVValue@Json@@@std@@@std@@@std@@YAXPAPAPAVValue@Json@@0AAU?$_Wrap_alloc@V?$allocator@PAPAVValue@Json@@@std@@@0@@Z
_TEXT	SEGMENT
$T1 = -1						; size = 1
__First$ = 8						; size = 4
__Last$ = 12						; size = 4
__Al$ = 16						; size = 4
??$_Destroy_range@U?$_Wrap_alloc@V?$allocator@PAPAVValue@Json@@@std@@@std@@@std@@YAXPAPAPAVValue@Json@@0AAU?$_Wrap_alloc@V?$allocator@PAPAVValue@Json@@@std@@@0@@Z PROC ; std::_Destroy_range<std::_Wrap_alloc<std::allocator<Json::Value * *> > >, COMDAT

; 95   : 	{	// destroy [_First, _Last)

	push	ebp
	mov	ebp, esp
	push	ecx

; 96   : 	_Destroy_range(_First, _Last, _Al, _Ptr_cat(_First, _Last));

	mov	eax, DWORD PTR __Last$[ebp]
	push	eax
	mov	ecx, DWORD PTR __First$[ebp]
	push	ecx
	call	??$_Ptr_cat@PAPAVValue@Json@@PAPAV12@@std@@YA?AU_Scalar_ptr_iterator_tag@0@PAPAPAVValue@Json@@0@Z ; std::_Ptr_cat<Json::Value * *,Json::Value * *>
	add	esp, 8
	mov	BYTE PTR $T1[ebp], al
	movzx	edx, BYTE PTR $T1[ebp]
	push	edx
	mov	eax, DWORD PTR __Al$[ebp]
	push	eax
	mov	ecx, DWORD PTR __Last$[ebp]
	push	ecx
	mov	edx, DWORD PTR __First$[ebp]
	push	edx
	call	??$_Destroy_range@U?$_Wrap_alloc@V?$allocator@PAPAVValue@Json@@@std@@@std@@@std@@YAXPAPAPAVValue@Json@@0AAU?$_Wrap_alloc@V?$allocator@PAPAVValue@Json@@@std@@@0@U_Scalar_ptr_iterator_tag@0@@Z ; std::_Destroy_range<std::_Wrap_alloc<std::allocator<Json::Value * *> > >
	add	esp, 16					; 00000010H

; 97   : 	}

	mov	esp, ebp
	pop	ebp
	ret	0
??$_Destroy_range@U?$_Wrap_alloc@V?$allocator@PAPAVValue@Json@@@std@@@std@@@std@@YAXPAPAPAVValue@Json@@0AAU?$_Wrap_alloc@V?$allocator@PAPAVValue@Json@@@std@@@0@@Z ENDP ; std::_Destroy_range<std::_Wrap_alloc<std::allocator<Json::Value * *> > >
_TEXT	ENDS
; Function compile flags: /Odtp
; File c:\program files (x86)\microsoft visual studio 12.0\vc\include\xmemory
;	COMDAT ??$_Uninitialized_default_fill_n@PAPAPAVValue@Json@@IU?$_Wrap_alloc@V?$allocator@PAPAVValue@Json@@@std@@@std@@@std@@YAXPAPAPAVValue@Json@@IAAU?$_Wrap_alloc@V?$allocator@PAPAVValue@Json@@@std@@@0@@Z
_TEXT	SEGMENT
$T1 = -1						; size = 1
__First$ = 8						; size = 4
__Count$ = 12						; size = 4
__Al$ = 16						; size = 4
??$_Uninitialized_default_fill_n@PAPAPAVValue@Json@@IU?$_Wrap_alloc@V?$allocator@PAPAVValue@Json@@@std@@@std@@@std@@YAXPAPAPAVValue@Json@@IAAU?$_Wrap_alloc@V?$allocator@PAPAVValue@Json@@@std@@@0@@Z PROC ; std::_Uninitialized_default_fill_n<Json::Value * * *,unsigned int,std::_Wrap_alloc<std::allocator<Json::Value * *> > >, COMDAT

; 690  : 	{	// copy _Count * _Val_type(_First)() to raw _First, using _Al

	push	ebp
	mov	ebp, esp
	push	ecx

; 691  : 	_Uninit_def_fill_n(_First, _Count, _Al,
; 692  : 		_Val_type(_First), _Ptr_cat(_First, _First));

	mov	eax, DWORD PTR __First$[ebp]
	push	eax
	mov	ecx, DWORD PTR __First$[ebp]
	push	ecx
	call	??$_Ptr_cat@PAPAVValue@Json@@PAPAV12@@std@@YA?AU_Scalar_ptr_iterator_tag@0@PAPAPAVValue@Json@@0@Z ; std::_Ptr_cat<Json::Value * *,Json::Value * *>
	add	esp, 8
	mov	BYTE PTR $T1[ebp], al
	movzx	edx, BYTE PTR $T1[ebp]
	push	edx
	mov	eax, DWORD PTR __First$[ebp]
	push	eax
	call	??$_Val_type@PAPAPAVValue@Json@@@std@@YAPAPAPAVValue@Json@@PAPAPAV12@@Z ; std::_Val_type<Json::Value * * *>
	add	esp, 4
	push	eax
	mov	ecx, DWORD PTR __Al$[ebp]
	push	ecx
	mov	edx, DWORD PTR __Count$[ebp]
	push	edx
	mov	eax, DWORD PTR __First$[ebp]
	push	eax
	call	??$_Uninit_def_fill_n@PAPAVValue@Json@@IPAPAV12@@std@@YAXPAPAPAVValue@Json@@IAAU?$_Wrap_alloc@V?$allocator@PAPAVValue@Json@@@std@@@0@0U_Scalar_ptr_iterator_tag@0@@Z ; std::_Uninit_def_fill_n<Json::Value * *,unsigned int,Json::Value * *>
	add	esp, 20					; 00000014H

; 693  : 	}

	mov	esp, ebp
	pop	ebp
	ret	0
??$_Uninitialized_default_fill_n@PAPAPAVValue@Json@@IU?$_Wrap_alloc@V?$allocator@PAPAVValue@Json@@@std@@@std@@@std@@YAXPAPAPAVValue@Json@@IAAU?$_Wrap_alloc@V?$allocator@PAPAVValue@Json@@@std@@@0@@Z ENDP ; std::_Uninitialized_default_fill_n<Json::Value * * *,unsigned int,std::_Wrap_alloc<std::allocator<Json::Value * *> > >
_TEXT	ENDS
; Function compile flags: /Odtp
; File c:\program files (x86)\microsoft visual studio 12.0\vc\include\xmemory
;	COMDAT ??$_Uninitialized_copy@PAPAPAVValue@Json@@PAPAPAV12@U?$_Wrap_alloc@V?$allocator@PAPAVValue@Json@@@std@@@std@@@std@@YAPAPAPAVValue@Json@@PAPAPAV12@00AAU?$_Wrap_alloc@V?$allocator@PAPAVValue@Json@@@std@@@0@@Z
_TEXT	SEGMENT
__First$ = 8						; size = 4
__Last$ = 12						; size = 4
__Dest$ = 16						; size = 4
__Al$ = 20						; size = 4
??$_Uninitialized_copy@PAPAPAVValue@Json@@PAPAPAV12@U?$_Wrap_alloc@V?$allocator@PAPAVValue@Json@@@std@@@std@@@std@@YAPAPAPAVValue@Json@@PAPAPAV12@00AAU?$_Wrap_alloc@V?$allocator@PAPAVValue@Json@@@std@@@0@@Z PROC ; std::_Uninitialized_copy<Json::Value * * *,Json::Value * * *,std::_Wrap_alloc<std::allocator<Json::Value * *> > >, COMDAT

; 424  : 	{	// copy [_First, _Last) to raw _Dest, using _Al

	push	ebp
	mov	ebp, esp

; 425  : 	return (_Rechecked(_Dest,
; 426  : 		_Uninit_copy(_Unchecked(_First), _Unchecked(_Last),
; 427  : 			_Unchecked(_Dest), _Al)));

	mov	eax, DWORD PTR __Al$[ebp]
	push	eax
	mov	ecx, DWORD PTR __Dest$[ebp]
	push	ecx
	call	??$_Unchecked@PAPAPAVValue@Json@@@std@@YAPAPAPAVValue@Json@@PAPAPAV12@@Z ; std::_Unchecked<Json::Value * * *>
	add	esp, 4
	push	eax
	mov	edx, DWORD PTR __Last$[ebp]
	push	edx
	call	??$_Unchecked@PAPAPAVValue@Json@@@std@@YAPAPAPAVValue@Json@@PAPAPAV12@@Z ; std::_Unchecked<Json::Value * * *>
	add	esp, 4
	push	eax
	mov	eax, DWORD PTR __First$[ebp]
	push	eax
	call	??$_Unchecked@PAPAPAVValue@Json@@@std@@YAPAPAPAVValue@Json@@PAPAPAV12@@Z ; std::_Unchecked<Json::Value * * *>
	add	esp, 4
	push	eax
	call	??$_Uninit_copy@PAPAPAVValue@Json@@PAPAPAV12@U?$_Wrap_alloc@V?$allocator@PAPAVValue@Json@@@std@@@std@@@std@@YAPAPAPAVValue@Json@@PAPAPAV12@00AAU?$_Wrap_alloc@V?$allocator@PAPAVValue@Json@@@std@@@0@@Z ; std::_Uninit_copy<Json::Value * * *,Json::Value * * *,std::_Wrap_alloc<std::allocator<Json::Value * *> > >
	add	esp, 16					; 00000010H
	push	eax
	lea	ecx, DWORD PTR __Dest$[ebp]
	push	ecx
	call	??$_Rechecked@PAPAPAVValue@Json@@PAPAPAV12@@std@@YAAAPAPAPAVValue@Json@@AAPAPAPAV12@PAPAPAV12@@Z ; std::_Rechecked<Json::Value * * *,Json::Value * * *>
	add	esp, 8
	mov	eax, DWORD PTR [eax]

; 428  : 	}

	pop	ebp
	ret	0
??$_Uninitialized_copy@PAPAPAVValue@Json@@PAPAPAV12@U?$_Wrap_alloc@V?$allocator@PAPAVValue@Json@@@std@@@std@@@std@@YAPAPAPAVValue@Json@@PAPAPAV12@00AAU?$_Wrap_alloc@V?$allocator@PAPAVValue@Json@@@std@@@0@@Z ENDP ; std::_Uninitialized_copy<Json::Value * * *,Json::Value * * *,std::_Wrap_alloc<std::allocator<Json::Value * *> > >
_TEXT	ENDS
; Function compile flags: /Odtp
; File c:\program files (x86)\microsoft visual studio 12.0\vc\include\xmemory0
;	COMDAT ??$destroy@PAVErrorInfo@Reader@Json@@@?$_Wrap_alloc@V?$allocator@VErrorInfo@Reader@Json@@@std@@@std@@QAEXPAPAVErrorInfo@Reader@Json@@@Z
_TEXT	SEGMENT
_this$ = -4						; size = 4
__Ptr$ = 8						; size = 4
??$destroy@PAVErrorInfo@Reader@Json@@@?$_Wrap_alloc@V?$allocator@VErrorInfo@Reader@Json@@@std@@@std@@QAEXPAPAVErrorInfo@Reader@Json@@@Z PROC ; std::_Wrap_alloc<std::allocator<Json::Reader::ErrorInfo> >::destroy<Json::Reader::ErrorInfo *>, COMDAT
; _this$ = ecx

; 877  : 		void destroy(_Ty *_Ptr)

	push	ebp
	mov	ebp, esp
	push	ecx
	mov	DWORD PTR _this$[ebp], ecx

; 878  : 		{	// destroy object at _Ptr
; 879  : 		_Mytraits::destroy(*this, _Ptr);

	mov	eax, DWORD PTR __Ptr$[ebp]
	push	eax
	mov	ecx, DWORD PTR _this$[ebp]
	push	ecx
	call	??$destroy@PAVErrorInfo@Reader@Json@@@?$allocator_traits@V?$allocator@VErrorInfo@Reader@Json@@@std@@@std@@SAXAAV?$allocator@VErrorInfo@Reader@Json@@@1@PAPAVErrorInfo@Reader@Json@@@Z ; std::allocator_traits<std::allocator<Json::Reader::ErrorInfo> >::destroy<Json::Reader::ErrorInfo *>
	add	esp, 8

; 880  : 		}

	mov	esp, ebp
	pop	ebp
	ret	4
??$destroy@PAVErrorInfo@Reader@Json@@@?$_Wrap_alloc@V?$allocator@VErrorInfo@Reader@Json@@@std@@@std@@QAEXPAPAVErrorInfo@Reader@Json@@@Z ENDP ; std::_Wrap_alloc<std::allocator<Json::Reader::ErrorInfo> >::destroy<Json::Reader::ErrorInfo *>
_TEXT	ENDS
; Function compile flags: /Odtp
; File c:\program files (x86)\microsoft visual studio 12.0\vc\include\xmemory0
;	COMDAT ??$_Destroy_range@U?$_Wrap_alloc@V?$allocator@PAVErrorInfo@Reader@Json@@@std@@@std@@@std@@YAXPAPAVErrorInfo@Reader@Json@@0AAU?$_Wrap_alloc@V?$allocator@PAVErrorInfo@Reader@Json@@@std@@@0@@Z
_TEXT	SEGMENT
$T1 = -1						; size = 1
__First$ = 8						; size = 4
__Last$ = 12						; size = 4
__Al$ = 16						; size = 4
??$_Destroy_range@U?$_Wrap_alloc@V?$allocator@PAVErrorInfo@Reader@Json@@@std@@@std@@@std@@YAXPAPAVErrorInfo@Reader@Json@@0AAU?$_Wrap_alloc@V?$allocator@PAVErrorInfo@Reader@Json@@@std@@@0@@Z PROC ; std::_Destroy_range<std::_Wrap_alloc<std::allocator<Json::Reader::ErrorInfo *> > >, COMDAT

; 95   : 	{	// destroy [_First, _Last)

	push	ebp
	mov	ebp, esp
	push	ecx

; 96   : 	_Destroy_range(_First, _Last, _Al, _Ptr_cat(_First, _Last));

	mov	eax, DWORD PTR __Last$[ebp]
	push	eax
	mov	ecx, DWORD PTR __First$[ebp]
	push	ecx
	call	??$_Ptr_cat@PAVErrorInfo@Reader@Json@@PAV123@@std@@YA?AU_Scalar_ptr_iterator_tag@0@PAPAVErrorInfo@Reader@Json@@0@Z ; std::_Ptr_cat<Json::Reader::ErrorInfo *,Json::Reader::ErrorInfo *>
	add	esp, 8
	mov	BYTE PTR $T1[ebp], al
	movzx	edx, BYTE PTR $T1[ebp]
	push	edx
	mov	eax, DWORD PTR __Al$[ebp]
	push	eax
	mov	ecx, DWORD PTR __Last$[ebp]
	push	ecx
	mov	edx, DWORD PTR __First$[ebp]
	push	edx
	call	??$_Destroy_range@U?$_Wrap_alloc@V?$allocator@PAVErrorInfo@Reader@Json@@@std@@@std@@@std@@YAXPAPAVErrorInfo@Reader@Json@@0AAU?$_Wrap_alloc@V?$allocator@PAVErrorInfo@Reader@Json@@@std@@@0@U_Scalar_ptr_iterator_tag@0@@Z ; std::_Destroy_range<std::_Wrap_alloc<std::allocator<Json::Reader::ErrorInfo *> > >
	add	esp, 16					; 00000010H

; 97   : 	}

	mov	esp, ebp
	pop	ebp
	ret	0
??$_Destroy_range@U?$_Wrap_alloc@V?$allocator@PAVErrorInfo@Reader@Json@@@std@@@std@@@std@@YAXPAPAVErrorInfo@Reader@Json@@0AAU?$_Wrap_alloc@V?$allocator@PAVErrorInfo@Reader@Json@@@std@@@0@@Z ENDP ; std::_Destroy_range<std::_Wrap_alloc<std::allocator<Json::Reader::ErrorInfo *> > >
_TEXT	ENDS
; Function compile flags: /Odtp
; File c:\program files (x86)\microsoft visual studio 12.0\vc\include\xmemory
;	COMDAT ??$_Uninitialized_default_fill_n@PAPAVErrorInfo@Reader@Json@@IU?$_Wrap_alloc@V?$allocator@PAVErrorInfo@Reader@Json@@@std@@@std@@@std@@YAXPAPAVErrorInfo@Reader@Json@@IAAU?$_Wrap_alloc@V?$allocator@PAVErrorInfo@Reader@Json@@@std@@@0@@Z
_TEXT	SEGMENT
$T1 = -1						; size = 1
__First$ = 8						; size = 4
__Count$ = 12						; size = 4
__Al$ = 16						; size = 4
??$_Uninitialized_default_fill_n@PAPAVErrorInfo@Reader@Json@@IU?$_Wrap_alloc@V?$allocator@PAVErrorInfo@Reader@Json@@@std@@@std@@@std@@YAXPAPAVErrorInfo@Reader@Json@@IAAU?$_Wrap_alloc@V?$allocator@PAVErrorInfo@Reader@Json@@@std@@@0@@Z PROC ; std::_Uninitialized_default_fill_n<Json::Reader::ErrorInfo * *,unsigned int,std::_Wrap_alloc<std::allocator<Json::Reader::ErrorInfo *> > >, COMDAT

; 690  : 	{	// copy _Count * _Val_type(_First)() to raw _First, using _Al

	push	ebp
	mov	ebp, esp
	push	ecx

; 691  : 	_Uninit_def_fill_n(_First, _Count, _Al,
; 692  : 		_Val_type(_First), _Ptr_cat(_First, _First));

	mov	eax, DWORD PTR __First$[ebp]
	push	eax
	mov	ecx, DWORD PTR __First$[ebp]
	push	ecx
	call	??$_Ptr_cat@PAVErrorInfo@Reader@Json@@PAV123@@std@@YA?AU_Scalar_ptr_iterator_tag@0@PAPAVErrorInfo@Reader@Json@@0@Z ; std::_Ptr_cat<Json::Reader::ErrorInfo *,Json::Reader::ErrorInfo *>
	add	esp, 8
	mov	BYTE PTR $T1[ebp], al
	movzx	edx, BYTE PTR $T1[ebp]
	push	edx
	mov	eax, DWORD PTR __First$[ebp]
	push	eax
	call	??$_Val_type@PAPAVErrorInfo@Reader@Json@@@std@@YAPAPAVErrorInfo@Reader@Json@@PAPAV123@@Z ; std::_Val_type<Json::Reader::ErrorInfo * *>
	add	esp, 4
	push	eax
	mov	ecx, DWORD PTR __Al$[ebp]
	push	ecx
	mov	edx, DWORD PTR __Count$[ebp]
	push	edx
	mov	eax, DWORD PTR __First$[ebp]
	push	eax
	call	??$_Uninit_def_fill_n@PAVErrorInfo@Reader@Json@@IPAV123@@std@@YAXPAPAVErrorInfo@Reader@Json@@IAAU?$_Wrap_alloc@V?$allocator@PAVErrorInfo@Reader@Json@@@std@@@0@0U_Scalar_ptr_iterator_tag@0@@Z ; std::_Uninit_def_fill_n<Json::Reader::ErrorInfo *,unsigned int,Json::Reader::ErrorInfo *>
	add	esp, 20					; 00000014H

; 693  : 	}

	mov	esp, ebp
	pop	ebp
	ret	0
??$_Uninitialized_default_fill_n@PAPAVErrorInfo@Reader@Json@@IU?$_Wrap_alloc@V?$allocator@PAVErrorInfo@Reader@Json@@@std@@@std@@@std@@YAXPAPAVErrorInfo@Reader@Json@@IAAU?$_Wrap_alloc@V?$allocator@PAVErrorInfo@Reader@Json@@@std@@@0@@Z ENDP ; std::_Uninitialized_default_fill_n<Json::Reader::ErrorInfo * *,unsigned int,std::_Wrap_alloc<std::allocator<Json::Reader::ErrorInfo *> > >
_TEXT	ENDS
; Function compile flags: /Odtp
; File c:\program files (x86)\microsoft visual studio 12.0\vc\include\xmemory
;	COMDAT ??$_Uninitialized_copy@PAPAVErrorInfo@Reader@Json@@PAPAV123@U?$_Wrap_alloc@V?$allocator@PAVErrorInfo@Reader@Json@@@std@@@std@@@std@@YAPAPAVErrorInfo@Reader@Json@@PAPAV123@00AAU?$_Wrap_alloc@V?$allocator@PAVErrorInfo@Reader@Json@@@std@@@0@@Z
_TEXT	SEGMENT
__First$ = 8						; size = 4
__Last$ = 12						; size = 4
__Dest$ = 16						; size = 4
__Al$ = 20						; size = 4
??$_Uninitialized_copy@PAPAVErrorInfo@Reader@Json@@PAPAV123@U?$_Wrap_alloc@V?$allocator@PAVErrorInfo@Reader@Json@@@std@@@std@@@std@@YAPAPAVErrorInfo@Reader@Json@@PAPAV123@00AAU?$_Wrap_alloc@V?$allocator@PAVErrorInfo@Reader@Json@@@std@@@0@@Z PROC ; std::_Uninitialized_copy<Json::Reader::ErrorInfo * *,Json::Reader::ErrorInfo * *,std::_Wrap_alloc<std::allocator<Json::Reader::ErrorInfo *> > >, COMDAT

; 424  : 	{	// copy [_First, _Last) to raw _Dest, using _Al

	push	ebp
	mov	ebp, esp

; 425  : 	return (_Rechecked(_Dest,
; 426  : 		_Uninit_copy(_Unchecked(_First), _Unchecked(_Last),
; 427  : 			_Unchecked(_Dest), _Al)));

	mov	eax, DWORD PTR __Al$[ebp]
	push	eax
	mov	ecx, DWORD PTR __Dest$[ebp]
	push	ecx
	call	??$_Unchecked@PAPAVErrorInfo@Reader@Json@@@std@@YAPAPAVErrorInfo@Reader@Json@@PAPAV123@@Z ; std::_Unchecked<Json::Reader::ErrorInfo * *>
	add	esp, 4
	push	eax
	mov	edx, DWORD PTR __Last$[ebp]
	push	edx
	call	??$_Unchecked@PAPAVErrorInfo@Reader@Json@@@std@@YAPAPAVErrorInfo@Reader@Json@@PAPAV123@@Z ; std::_Unchecked<Json::Reader::ErrorInfo * *>
	add	esp, 4
	push	eax
	mov	eax, DWORD PTR __First$[ebp]
	push	eax
	call	??$_Unchecked@PAPAVErrorInfo@Reader@Json@@@std@@YAPAPAVErrorInfo@Reader@Json@@PAPAV123@@Z ; std::_Unchecked<Json::Reader::ErrorInfo * *>
	add	esp, 4
	push	eax
	call	??$_Uninit_copy@PAPAVErrorInfo@Reader@Json@@PAPAV123@U?$_Wrap_alloc@V?$allocator@PAVErrorInfo@Reader@Json@@@std@@@std@@@std@@YAPAPAVErrorInfo@Reader@Json@@PAPAV123@00AAU?$_Wrap_alloc@V?$allocator@PAVErrorInfo@Reader@Json@@@std@@@0@@Z ; std::_Uninit_copy<Json::Reader::ErrorInfo * *,Json::Reader::ErrorInfo * *,std::_Wrap_alloc<std::allocator<Json::Reader::ErrorInfo *> > >
	add	esp, 16					; 00000010H
	push	eax
	lea	ecx, DWORD PTR __Dest$[ebp]
	push	ecx
	call	??$_Rechecked@PAPAVErrorInfo@Reader@Json@@PAPAV123@@std@@YAAAPAPAVErrorInfo@Reader@Json@@AAPAPAV123@PAPAV123@@Z ; std::_Rechecked<Json::Reader::ErrorInfo * *,Json::Reader::ErrorInfo * *>
	add	esp, 8
	mov	eax, DWORD PTR [eax]

; 428  : 	}

	pop	ebp
	ret	0
??$_Uninitialized_copy@PAPAVErrorInfo@Reader@Json@@PAPAV123@U?$_Wrap_alloc@V?$allocator@PAVErrorInfo@Reader@Json@@@std@@@std@@@std@@YAPAPAVErrorInfo@Reader@Json@@PAPAV123@00AAU?$_Wrap_alloc@V?$allocator@PAVErrorInfo@Reader@Json@@@std@@@0@@Z ENDP ; std::_Uninitialized_copy<Json::Reader::ErrorInfo * *,Json::Reader::ErrorInfo * *,std::_Wrap_alloc<std::allocator<Json::Reader::ErrorInfo *> > >
_TEXT	ENDS
; Function compile flags: /Odtp
; File c:\program files (x86)\microsoft visual studio 12.0\vc\include\xmemory0
;	COMDAT ??$?0VErrorInfo@Reader@Json@@@?$allocator@PAVErrorInfo@Reader@Json@@@std@@QAE@ABV?$allocator@VErrorInfo@Reader@Json@@@1@@Z
_TEXT	SEGMENT
_this$ = -4						; size = 4
___formal$ = 8						; size = 4
??$?0VErrorInfo@Reader@Json@@@?$allocator@PAVErrorInfo@Reader@Json@@@std@@QAE@ABV?$allocator@VErrorInfo@Reader@Json@@@1@@Z PROC ; std::allocator<Json::Reader::ErrorInfo *>::allocator<Json::Reader::ErrorInfo *><Json::Reader::ErrorInfo>, COMDAT
; _this$ = ecx

; 561  : 		allocator(const allocator<_Other>&) _THROW0()

	push	ebp
	mov	ebp, esp
	push	ecx
	mov	DWORD PTR _this$[ebp], ecx

; 562  : 		{	// construct from a related allocator (do nothing)
; 563  : 		}

	mov	eax, DWORD PTR _this$[ebp]
	mov	esp, ebp
	pop	ebp
	ret	4
??$?0VErrorInfo@Reader@Json@@@?$allocator@PAVErrorInfo@Reader@Json@@@std@@QAE@ABV?$allocator@VErrorInfo@Reader@Json@@@1@@Z ENDP ; std::allocator<Json::Reader::ErrorInfo *>::allocator<Json::Reader::ErrorInfo *><Json::Reader::ErrorInfo>
_TEXT	ENDS
; Function compile flags: /Odtp
; File c:\program files (x86)\microsoft visual studio 12.0\vc\include\xmemory0
;	COMDAT ??$?0U?$_Wrap_alloc@V?$allocator@VErrorInfo@Reader@Json@@@std@@@std@@@?$_Wrap_alloc@V?$allocator@PAVErrorInfo@Reader@Json@@@std@@@std@@QAE@ABU?$_Wrap_alloc@V?$allocator@VErrorInfo@Reader@Json@@@std@@@1@@Z
_TEXT	SEGMENT
_this$ = -4						; size = 4
__Right$ = 8						; size = 4
??$?0U?$_Wrap_alloc@V?$allocator@VErrorInfo@Reader@Json@@@std@@@std@@@?$_Wrap_alloc@V?$allocator@PAVErrorInfo@Reader@Json@@@std@@@std@@QAE@ABU?$_Wrap_alloc@V?$allocator@VErrorInfo@Reader@Json@@@std@@@1@@Z PROC ; std::_Wrap_alloc<std::allocator<Json::Reader::ErrorInfo *> >::_Wrap_alloc<std::allocator<Json::Reader::ErrorInfo *> ><std::_Wrap_alloc<std::allocator<Json::Reader::ErrorInfo> > >, COMDAT
; _this$ = ecx

; 817  : 		{	// construct from a related allocator

	push	ebp
	mov	ebp, esp
	push	ecx
	mov	DWORD PTR _this$[ebp], ecx
	mov	eax, DWORD PTR __Right$[ebp]
	push	eax
	mov	ecx, DWORD PTR _this$[ebp]
	call	??$?0VErrorInfo@Reader@Json@@@?$allocator@PAVErrorInfo@Reader@Json@@@std@@QAE@ABV?$allocator@VErrorInfo@Reader@Json@@@1@@Z ; std::allocator<Json::Reader::ErrorInfo *>::allocator<Json::Reader::ErrorInfo *><Json::Reader::ErrorInfo>

; 818  : 		}

	mov	eax, DWORD PTR _this$[ebp]
	mov	esp, ebp
	pop	ebp
	ret	4
??$?0U?$_Wrap_alloc@V?$allocator@VErrorInfo@Reader@Json@@@std@@@std@@@?$_Wrap_alloc@V?$allocator@PAVErrorInfo@Reader@Json@@@std@@@std@@QAE@ABU?$_Wrap_alloc@V?$allocator@VErrorInfo@Reader@Json@@@std@@@1@@Z ENDP ; std::_Wrap_alloc<std::allocator<Json::Reader::ErrorInfo *> >::_Wrap_alloc<std::allocator<Json::Reader::ErrorInfo *> ><std::_Wrap_alloc<std::allocator<Json::Reader::ErrorInfo> > >
_TEXT	ENDS
; Function compile flags: /Odtp
; File c:\program files (x86)\microsoft visual studio 12.0\vc\include\xmemory0
;	COMDAT ??$destroy@VErrorInfo@Reader@Json@@@?$_Wrap_alloc@V?$allocator@VErrorInfo@Reader@Json@@@std@@@std@@QAEXPAVErrorInfo@Reader@Json@@@Z
_TEXT	SEGMENT
_this$ = -4						; size = 4
__Ptr$ = 8						; size = 4
??$destroy@VErrorInfo@Reader@Json@@@?$_Wrap_alloc@V?$allocator@VErrorInfo@Reader@Json@@@std@@@std@@QAEXPAVErrorInfo@Reader@Json@@@Z PROC ; std::_Wrap_alloc<std::allocator<Json::Reader::ErrorInfo> >::destroy<Json::Reader::ErrorInfo>, COMDAT
; _this$ = ecx

; 877  : 		void destroy(_Ty *_Ptr)

	push	ebp
	mov	ebp, esp
	push	ecx
	mov	DWORD PTR _this$[ebp], ecx

; 878  : 		{	// destroy object at _Ptr
; 879  : 		_Mytraits::destroy(*this, _Ptr);

	mov	eax, DWORD PTR __Ptr$[ebp]
	push	eax
	mov	ecx, DWORD PTR _this$[ebp]
	push	ecx
	call	??$destroy@VErrorInfo@Reader@Json@@@?$allocator_traits@V?$allocator@VErrorInfo@Reader@Json@@@std@@@std@@SAXAAV?$allocator@VErrorInfo@Reader@Json@@@1@PAVErrorInfo@Reader@Json@@@Z ; std::allocator_traits<std::allocator<Json::Reader::ErrorInfo> >::destroy<Json::Reader::ErrorInfo>
	add	esp, 8

; 880  : 		}

	mov	esp, ebp
	pop	ebp
	ret	4
??$destroy@VErrorInfo@Reader@Json@@@?$_Wrap_alloc@V?$allocator@VErrorInfo@Reader@Json@@@std@@@std@@QAEXPAVErrorInfo@Reader@Json@@@Z ENDP ; std::_Wrap_alloc<std::allocator<Json::Reader::ErrorInfo> >::destroy<Json::Reader::ErrorInfo>
_TEXT	ENDS
; Function compile flags: /Odtp
; File c:\program files (x86)\microsoft visual studio 12.0\vc\include\xmemory0
;	COMDAT ??$destroy@PAPAVValue@Json@@@?$_Wrap_alloc@V?$allocator@PAVValue@Json@@@std@@@std@@QAEXPAPAPAVValue@Json@@@Z
_TEXT	SEGMENT
_this$ = -4						; size = 4
__Ptr$ = 8						; size = 4
??$destroy@PAPAVValue@Json@@@?$_Wrap_alloc@V?$allocator@PAVValue@Json@@@std@@@std@@QAEXPAPAPAVValue@Json@@@Z PROC ; std::_Wrap_alloc<std::allocator<Json::Value *> >::destroy<Json::Value * *>, COMDAT
; _this$ = ecx

; 877  : 		void destroy(_Ty *_Ptr)

	push	ebp
	mov	ebp, esp
	push	ecx
	mov	DWORD PTR _this$[ebp], ecx

; 878  : 		{	// destroy object at _Ptr
; 879  : 		_Mytraits::destroy(*this, _Ptr);

	mov	eax, DWORD PTR __Ptr$[ebp]
	push	eax
	mov	ecx, DWORD PTR _this$[ebp]
	push	ecx
	call	??$destroy@PAPAVValue@Json@@@?$allocator_traits@V?$allocator@PAVValue@Json@@@std@@@std@@SAXAAV?$allocator@PAVValue@Json@@@1@PAPAPAVValue@Json@@@Z ; std::allocator_traits<std::allocator<Json::Value *> >::destroy<Json::Value * *>
	add	esp, 8

; 880  : 		}

	mov	esp, ebp
	pop	ebp
	ret	4
??$destroy@PAPAVValue@Json@@@?$_Wrap_alloc@V?$allocator@PAVValue@Json@@@std@@@std@@QAEXPAPAPAVValue@Json@@@Z ENDP ; std::_Wrap_alloc<std::allocator<Json::Value *> >::destroy<Json::Value * *>
_TEXT	ENDS
; Function compile flags: /Odtp
; File c:\program files (x86)\microsoft visual studio 12.0\vc\include\xmemory0
;	COMDAT ??$?0PAVValue@Json@@@?$allocator@PAPAVValue@Json@@@std@@QAE@ABV?$allocator@PAVValue@Json@@@1@@Z
_TEXT	SEGMENT
_this$ = -4						; size = 4
___formal$ = 8						; size = 4
??$?0PAVValue@Json@@@?$allocator@PAPAVValue@Json@@@std@@QAE@ABV?$allocator@PAVValue@Json@@@1@@Z PROC ; std::allocator<Json::Value * *>::allocator<Json::Value * *><Json::Value *>, COMDAT
; _this$ = ecx

; 561  : 		allocator(const allocator<_Other>&) _THROW0()

	push	ebp
	mov	ebp, esp
	push	ecx
	mov	DWORD PTR _this$[ebp], ecx

; 562  : 		{	// construct from a related allocator (do nothing)
; 563  : 		}

	mov	eax, DWORD PTR _this$[ebp]
	mov	esp, ebp
	pop	ebp
	ret	4
??$?0PAVValue@Json@@@?$allocator@PAPAVValue@Json@@@std@@QAE@ABV?$allocator@PAVValue@Json@@@1@@Z ENDP ; std::allocator<Json::Value * *>::allocator<Json::Value * *><Json::Value *>
_TEXT	ENDS
; Function compile flags: /Odtp
; File c:\program files (x86)\microsoft visual studio 12.0\vc\include\xmemory0
;	COMDAT ??$?0U?$_Wrap_alloc@V?$allocator@PAVValue@Json@@@std@@@std@@@?$_Wrap_alloc@V?$allocator@PAPAVValue@Json@@@std@@@std@@QAE@ABU?$_Wrap_alloc@V?$allocator@PAVValue@Json@@@std@@@1@@Z
_TEXT	SEGMENT
_this$ = -4						; size = 4
__Right$ = 8						; size = 4
??$?0U?$_Wrap_alloc@V?$allocator@PAVValue@Json@@@std@@@std@@@?$_Wrap_alloc@V?$allocator@PAPAVValue@Json@@@std@@@std@@QAE@ABU?$_Wrap_alloc@V?$allocator@PAVValue@Json@@@std@@@1@@Z PROC ; std::_Wrap_alloc<std::allocator<Json::Value * *> >::_Wrap_alloc<std::allocator<Json::Value * *> ><std::_Wrap_alloc<std::allocator<Json::Value *> > >, COMDAT
; _this$ = ecx

; 817  : 		{	// construct from a related allocator

	push	ebp
	mov	ebp, esp
	push	ecx
	mov	DWORD PTR _this$[ebp], ecx
	mov	eax, DWORD PTR __Right$[ebp]
	push	eax
	mov	ecx, DWORD PTR _this$[ebp]
	call	??$?0PAVValue@Json@@@?$allocator@PAPAVValue@Json@@@std@@QAE@ABV?$allocator@PAVValue@Json@@@1@@Z ; std::allocator<Json::Value * *>::allocator<Json::Value * *><Json::Value *>

; 818  : 		}

	mov	eax, DWORD PTR _this$[ebp]
	mov	esp, ebp
	pop	ebp
	ret	4
??$?0U?$_Wrap_alloc@V?$allocator@PAVValue@Json@@@std@@@std@@@?$_Wrap_alloc@V?$allocator@PAPAVValue@Json@@@std@@@std@@QAE@ABU?$_Wrap_alloc@V?$allocator@PAVValue@Json@@@std@@@1@@Z ENDP ; std::_Wrap_alloc<std::allocator<Json::Value * *> >::_Wrap_alloc<std::allocator<Json::Value * *> ><std::_Wrap_alloc<std::allocator<Json::Value *> > >
_TEXT	ENDS
; Function compile flags: /Odtp
; File c:\program files (x86)\microsoft visual studio 12.0\vc\include\xmemory0
;	COMDAT ??$destroy@PAVValue@Json@@@?$_Wrap_alloc@V?$allocator@PAVValue@Json@@@std@@@std@@QAEXPAPAVValue@Json@@@Z
_TEXT	SEGMENT
_this$ = -4						; size = 4
__Ptr$ = 8						; size = 4
??$destroy@PAVValue@Json@@@?$_Wrap_alloc@V?$allocator@PAVValue@Json@@@std@@@std@@QAEXPAPAVValue@Json@@@Z PROC ; std::_Wrap_alloc<std::allocator<Json::Value *> >::destroy<Json::Value *>, COMDAT
; _this$ = ecx

; 877  : 		void destroy(_Ty *_Ptr)

	push	ebp
	mov	ebp, esp
	push	ecx
	mov	DWORD PTR _this$[ebp], ecx

; 878  : 		{	// destroy object at _Ptr
; 879  : 		_Mytraits::destroy(*this, _Ptr);

	mov	eax, DWORD PTR __Ptr$[ebp]
	push	eax
	mov	ecx, DWORD PTR _this$[ebp]
	push	ecx
	call	??$destroy@PAVValue@Json@@@?$allocator_traits@V?$allocator@PAVValue@Json@@@std@@@std@@SAXAAV?$allocator@PAVValue@Json@@@1@PAPAVValue@Json@@@Z ; std::allocator_traits<std::allocator<Json::Value *> >::destroy<Json::Value *>
	add	esp, 8

; 880  : 		}

	mov	esp, ebp
	pop	ebp
	ret	4
??$destroy@PAVValue@Json@@@?$_Wrap_alloc@V?$allocator@PAVValue@Json@@@std@@@std@@QAEXPAPAVValue@Json@@@Z ENDP ; std::_Wrap_alloc<std::allocator<Json::Value *> >::destroy<Json::Value *>
_TEXT	ENDS
; Function compile flags: /Odtp
;	COMDAT ??0?$_Deque_iterator@V?$_Deque_val@U?$_Deque_simple_types@PAVValue@Json@@@std@@@std@@@std@@QAE@ABV01@@Z
_TEXT	SEGMENT
_this$ = -4						; size = 4
___that$ = 8						; size = 4
??0?$_Deque_iterator@V?$_Deque_val@U?$_Deque_simple_types@PAVValue@Json@@@std@@@std@@@std@@QAE@ABV01@@Z PROC ; std::_Deque_iterator<std::_Deque_val<std::_Deque_simple_types<Json::Value *> > >::_Deque_iterator<std::_Deque_val<std::_Deque_simple_types<Json::Value *> > >, COMDAT
; _this$ = ecx
	push	ebp
	mov	ebp, esp
	push	ecx
	mov	DWORD PTR _this$[ebp], ecx
	mov	eax, DWORD PTR ___that$[ebp]
	push	eax
	mov	ecx, DWORD PTR _this$[ebp]
	call	??0?$_Deque_const_iterator@V?$_Deque_val@U?$_Deque_simple_types@PAVValue@Json@@@std@@@std@@@std@@QAE@ABV01@@Z
	mov	eax, DWORD PTR _this$[ebp]
	mov	esp, ebp
	pop	ebp
	ret	4
??0?$_Deque_iterator@V?$_Deque_val@U?$_Deque_simple_types@PAVValue@Json@@@std@@@std@@@std@@QAE@ABV01@@Z ENDP ; std::_Deque_iterator<std::_Deque_val<std::_Deque_simple_types<Json::Value *> > >::_Deque_iterator<std::_Deque_val<std::_Deque_simple_types<Json::Value *> > >
_TEXT	ENDS
; Function compile flags: /Odtp
;	COMDAT ??1?$_Deque_iterator@V?$_Deque_val@U?$_Deque_simple_types@PAVValue@Json@@@std@@@std@@@std@@QAE@XZ
_TEXT	SEGMENT
_this$ = -4						; size = 4
??1?$_Deque_iterator@V?$_Deque_val@U?$_Deque_simple_types@PAVValue@Json@@@std@@@std@@@std@@QAE@XZ PROC ; std::_Deque_iterator<std::_Deque_val<std::_Deque_simple_types<Json::Value *> > >::~_Deque_iterator<std::_Deque_val<std::_Deque_simple_types<Json::Value *> > >, COMDAT
; _this$ = ecx
	push	ebp
	mov	ebp, esp
	push	ecx
	mov	DWORD PTR _this$[ebp], ecx
	mov	ecx, DWORD PTR _this$[ebp]
	call	??1?$_Deque_const_iterator@V?$_Deque_val@U?$_Deque_simple_types@PAVValue@Json@@@std@@@std@@@std@@QAE@XZ
	mov	esp, ebp
	pop	ebp
	ret	0
??1?$_Deque_iterator@V?$_Deque_val@U?$_Deque_simple_types@PAVValue@Json@@@std@@@std@@@std@@QAE@XZ ENDP ; std::_Deque_iterator<std::_Deque_val<std::_Deque_simple_types<Json::Value *> > >::~_Deque_iterator<std::_Deque_val<std::_Deque_simple_types<Json::Value *> > >
_TEXT	ENDS
; Function compile flags: /Odtp
; File c:\program files (x86)\microsoft visual studio 12.0\vc\include\deque
;	COMDAT ??G?$_Deque_iterator@V?$_Deque_val@U?$_Deque_simple_types@PAVValue@Json@@@std@@@std@@@std@@QBE?AV01@H@Z
_TEXT	SEGMENT
__Tmp$ = -32						; size = 12
_this$ = -20						; size = 4
$T2 = -16						; size = 4
__$EHRec$ = -12						; size = 12
___$ReturnUdt$ = 8					; size = 4
__Off$ = 12						; size = 4
??G?$_Deque_iterator@V?$_Deque_val@U?$_Deque_simple_types@PAVValue@Json@@@std@@@std@@@std@@QBE?AV01@H@Z PROC ; std::_Deque_iterator<std::_Deque_val<std::_Deque_simple_types<Json::Value *> > >::operator-, COMDAT
; _this$ = ecx

; 655  : 		{	// return this - integer

	push	ebp
	mov	ebp, esp
	push	-1
	push	__ehhandler$??G?$_Deque_iterator@V?$_Deque_val@U?$_Deque_simple_types@PAVValue@Json@@@std@@@std@@@std@@QBE?AV01@H@Z
	mov	eax, DWORD PTR fs:0
	push	eax
	sub	esp, 20					; 00000014H
	mov	eax, DWORD PTR ___security_cookie
	xor	eax, ebp
	push	eax
	lea	eax, DWORD PTR __$EHRec$[ebp]
	mov	DWORD PTR fs:0, eax
	mov	DWORD PTR _this$[ebp], ecx
	mov	DWORD PTR $T2[ebp], 0

; 656  : 		_Myiter _Tmp = *this;

	mov	eax, DWORD PTR _this$[ebp]
	push	eax
	lea	ecx, DWORD PTR __Tmp$[ebp]
	call	??0?$_Deque_iterator@V?$_Deque_val@U?$_Deque_simple_types@PAVValue@Json@@@std@@@std@@@std@@QAE@ABV01@@Z
	mov	DWORD PTR __$EHRec$[ebp+8], 0

; 657  : 		return (_Tmp -= _Off);

	mov	ecx, DWORD PTR __Off$[ebp]
	push	ecx
	lea	ecx, DWORD PTR __Tmp$[ebp]
	call	??Z?$_Deque_iterator@V?$_Deque_val@U?$_Deque_simple_types@PAVValue@Json@@@std@@@std@@@std@@QAEAAV01@H@Z ; std::_Deque_iterator<std::_Deque_val<std::_Deque_simple_types<Json::Value *> > >::operator-=
	push	eax
	mov	ecx, DWORD PTR ___$ReturnUdt$[ebp]
	call	??0?$_Deque_iterator@V?$_Deque_val@U?$_Deque_simple_types@PAVValue@Json@@@std@@@std@@@std@@QAE@ABV01@@Z
	mov	edx, DWORD PTR $T2[ebp]
	or	edx, 1
	mov	DWORD PTR $T2[ebp], edx
	mov	DWORD PTR __$EHRec$[ebp+8], -1
	lea	ecx, DWORD PTR __Tmp$[ebp]
	call	??1?$_Deque_iterator@V?$_Deque_val@U?$_Deque_simple_types@PAVValue@Json@@@std@@@std@@@std@@QAE@XZ
	mov	eax, DWORD PTR ___$ReturnUdt$[ebp]

; 658  : 		}

	mov	ecx, DWORD PTR __$EHRec$[ebp]
	mov	DWORD PTR fs:0, ecx
	pop	ecx
	mov	esp, ebp
	pop	ebp
	ret	8
_TEXT	ENDS
;	COMDAT text$x
text$x	SEGMENT
__unwindfunclet$??G?$_Deque_iterator@V?$_Deque_val@U?$_Deque_simple_types@PAVValue@Json@@@std@@@std@@@std@@QBE?AV01@H@Z$0:
	lea	ecx, DWORD PTR __Tmp$[ebp]
	jmp	??1?$_Deque_iterator@V?$_Deque_val@U?$_Deque_simple_types@PAVValue@Json@@@std@@@std@@@std@@QAE@XZ
__ehhandler$??G?$_Deque_iterator@V?$_Deque_val@U?$_Deque_simple_types@PAVValue@Json@@@std@@@std@@@std@@QBE?AV01@H@Z:
	mov	edx, DWORD PTR [esp+8]
	lea	eax, DWORD PTR [edx+12]
	mov	ecx, DWORD PTR [edx-24]
	xor	ecx, eax
	call	@__security_check_cookie@4
	mov	eax, OFFSET __ehfuncinfo$??G?$_Deque_iterator@V?$_Deque_val@U?$_Deque_simple_types@PAVValue@Json@@@std@@@std@@@std@@QBE?AV01@H@Z
	jmp	___CxxFrameHandler3
text$x	ENDS
??G?$_Deque_iterator@V?$_Deque_val@U?$_Deque_simple_types@PAVValue@Json@@@std@@@std@@@std@@QBE?AV01@H@Z ENDP ; std::_Deque_iterator<std::_Deque_val<std::_Deque_simple_types<Json::Value *> > >::operator-
; Function compile flags: /Odtp
; File c:\program files (x86)\microsoft visual studio 12.0\vc\include\deque
;	COMDAT ??Z?$_Deque_iterator@V?$_Deque_val@U?$_Deque_simple_types@PAVValue@Json@@@std@@@std@@@std@@QAEAAV01@H@Z
_TEXT	SEGMENT
_this$ = -4						; size = 4
__Off$ = 8						; size = 4
??Z?$_Deque_iterator@V?$_Deque_val@U?$_Deque_simple_types@PAVValue@Json@@@std@@@std@@@std@@QAEAAV01@H@Z PROC ; std::_Deque_iterator<std::_Deque_val<std::_Deque_simple_types<Json::Value *> > >::operator-=, COMDAT
; _this$ = ecx

; 650  : 		{	// decrement by integer

	push	ebp
	mov	ebp, esp
	push	ecx
	mov	DWORD PTR _this$[ebp], ecx

; 651  : 		return (*this += -_Off);

	mov	eax, DWORD PTR __Off$[ebp]
	neg	eax
	push	eax
	mov	ecx, DWORD PTR _this$[ebp]
	call	??Y?$_Deque_iterator@V?$_Deque_val@U?$_Deque_simple_types@PAVValue@Json@@@std@@@std@@@std@@QAEAAV01@H@Z ; std::_Deque_iterator<std::_Deque_val<std::_Deque_simple_types<Json::Value *> > >::operator+=

; 652  : 		}

	mov	esp, ebp
	pop	ebp
	ret	4
??Z?$_Deque_iterator@V?$_Deque_val@U?$_Deque_simple_types@PAVValue@Json@@@std@@@std@@@std@@QAEAAV01@H@Z ENDP ; std::_Deque_iterator<std::_Deque_val<std::_Deque_simple_types<Json::Value *> > >::operator-=
_TEXT	ENDS
; Function compile flags: /Odtp
; File c:\program files (x86)\microsoft visual studio 12.0\vc\include\deque
;	COMDAT ??Y?$_Deque_iterator@V?$_Deque_val@U?$_Deque_simple_types@PAVValue@Json@@@std@@@std@@@std@@QAEAAV01@H@Z
_TEXT	SEGMENT
_this$ = -4						; size = 4
__Off$ = 8						; size = 4
??Y?$_Deque_iterator@V?$_Deque_val@U?$_Deque_simple_types@PAVValue@Json@@@std@@@std@@@std@@QAEAAV01@H@Z PROC ; std::_Deque_iterator<std::_Deque_val<std::_Deque_simple_types<Json::Value *> > >::operator+=, COMDAT
; _this$ = ecx

; 638  : 		{	// increment by integer

	push	ebp
	mov	ebp, esp
	push	ecx
	mov	DWORD PTR _this$[ebp], ecx

; 639  : 		this->_Myoff += _Off;

	mov	eax, DWORD PTR _this$[ebp]
	mov	ecx, DWORD PTR [eax+8]
	add	ecx, DWORD PTR __Off$[ebp]
	mov	edx, DWORD PTR _this$[ebp]
	mov	DWORD PTR [edx+8], ecx

; 640  : 		return (*this);

	mov	eax, DWORD PTR _this$[ebp]

; 641  : 		}

	mov	esp, ebp
	pop	ebp
	ret	4
??Y?$_Deque_iterator@V?$_Deque_val@U?$_Deque_simple_types@PAVValue@Json@@@std@@@std@@@std@@QAEAAV01@H@Z ENDP ; std::_Deque_iterator<std::_Deque_val<std::_Deque_simple_types<Json::Value *> > >::operator+=
_TEXT	ENDS
; Function compile flags: /Odtp
; File c:\program files (x86)\microsoft visual studio 12.0\vc\include\deque
;	COMDAT ??D?$_Deque_iterator@V?$_Deque_val@U?$_Deque_simple_types@PAVValue@Json@@@std@@@std@@@std@@QBEAAPAVValue@Json@@XZ
_TEXT	SEGMENT
_this$ = -4						; size = 4
??D?$_Deque_iterator@V?$_Deque_val@U?$_Deque_simple_types@PAVValue@Json@@@std@@@std@@@std@@QBEAAPAVValue@Json@@XZ PROC ; std::_Deque_iterator<std::_Deque_val<std::_Deque_simple_types<Json::Value *> > >::operator*, COMDAT
; _this$ = ecx

; 602  : 		{	// return designated object

	push	ebp
	mov	ebp, esp
	push	ecx
	mov	DWORD PTR _this$[ebp], ecx

; 603  : 		return ((reference)**(_Mybase *)this);

	mov	ecx, DWORD PTR _this$[ebp]
	call	??D?$_Deque_const_iterator@V?$_Deque_val@U?$_Deque_simple_types@PAVValue@Json@@@std@@@std@@@std@@QBEABQAVValue@Json@@XZ ; std::_Deque_const_iterator<std::_Deque_val<std::_Deque_simple_types<Json::Value *> > >::operator*

; 604  : 		}

	mov	esp, ebp
	pop	ebp
	ret	0
??D?$_Deque_iterator@V?$_Deque_val@U?$_Deque_simple_types@PAVValue@Json@@@std@@@std@@@std@@QBEAAPAVValue@Json@@XZ ENDP ; std::_Deque_iterator<std::_Deque_val<std::_Deque_simple_types<Json::Value *> > >::operator*
_TEXT	ENDS
; Function compile flags: /Odtp
; File c:\program files (x86)\microsoft visual studio 12.0\vc\include\deque
;	COMDAT ??0?$_Deque_iterator@V?$_Deque_val@U?$_Deque_simple_types@PAVValue@Json@@@std@@@std@@@std@@QAE@IPBU_Container_base12@1@@Z
_TEXT	SEGMENT
_this$ = -4						; size = 4
__Off$ = 8						; size = 4
__Pdeque$ = 12						; size = 4
??0?$_Deque_iterator@V?$_Deque_val@U?$_Deque_simple_types@PAVValue@Json@@@std@@@std@@@std@@QAE@IPBU_Container_base12@1@@Z PROC ; std::_Deque_iterator<std::_Deque_val<std::_Deque_simple_types<Json::Value *> > >::_Deque_iterator<std::_Deque_val<std::_Deque_simple_types<Json::Value *> > >, COMDAT
; _this$ = ecx

; 585  : 		{	// construct with offset _Off in *_Pdeque

	push	ebp
	mov	ebp, esp
	push	ecx
	mov	DWORD PTR _this$[ebp], ecx
	mov	eax, DWORD PTR __Pdeque$[ebp]
	push	eax
	mov	ecx, DWORD PTR __Off$[ebp]
	push	ecx
	mov	ecx, DWORD PTR _this$[ebp]
	call	??0?$_Deque_const_iterator@V?$_Deque_val@U?$_Deque_simple_types@PAVValue@Json@@@std@@@std@@@std@@QAE@IPBU_Container_base12@1@@Z ; std::_Deque_const_iterator<std::_Deque_val<std::_Deque_simple_types<Json::Value *> > >::_Deque_const_iterator<std::_Deque_val<std::_Deque_simple_types<Json::Value *> > >

; 586  : 		}

	mov	eax, DWORD PTR _this$[ebp]
	mov	esp, ebp
	pop	ebp
	ret	8
??0?$_Deque_iterator@V?$_Deque_val@U?$_Deque_simple_types@PAVValue@Json@@@std@@@std@@@std@@QAE@IPBU_Container_base12@1@@Z ENDP ; std::_Deque_iterator<std::_Deque_val<std::_Deque_simple_types<Json::Value *> > >::_Deque_iterator<std::_Deque_val<std::_Deque_simple_types<Json::Value *> > >
_TEXT	ENDS
; Function compile flags: /Odtp
;	COMDAT ??0?$_Deque_const_iterator@V?$_Deque_val@U?$_Deque_simple_types@PAVValue@Json@@@std@@@std@@@std@@QAE@ABV01@@Z
_TEXT	SEGMENT
_this$ = -4						; size = 4
___that$ = 8						; size = 4
??0?$_Deque_const_iterator@V?$_Deque_val@U?$_Deque_simple_types@PAVValue@Json@@@std@@@std@@@std@@QAE@ABV01@@Z PROC ; std::_Deque_const_iterator<std::_Deque_val<std::_Deque_simple_types<Json::Value *> > >::_Deque_const_iterator<std::_Deque_val<std::_Deque_simple_types<Json::Value *> > >, COMDAT
; _this$ = ecx
	push	ebp
	mov	ebp, esp
	push	ecx
	mov	DWORD PTR _this$[ebp], ecx
	mov	eax, DWORD PTR ___that$[ebp]
	push	eax
	mov	ecx, DWORD PTR _this$[ebp]
	call	??0_Iterator_base12@std@@QAE@ABU01@@Z	; std::_Iterator_base12::_Iterator_base12
	mov	ecx, DWORD PTR _this$[ebp]
	mov	edx, DWORD PTR ___that$[ebp]
	mov	eax, DWORD PTR [edx+8]
	mov	DWORD PTR [ecx+8], eax
	mov	eax, DWORD PTR _this$[ebp]
	mov	esp, ebp
	pop	ebp
	ret	4
??0?$_Deque_const_iterator@V?$_Deque_val@U?$_Deque_simple_types@PAVValue@Json@@@std@@@std@@@std@@QAE@ABV01@@Z ENDP ; std::_Deque_const_iterator<std::_Deque_val<std::_Deque_simple_types<Json::Value *> > >::_Deque_const_iterator<std::_Deque_val<std::_Deque_simple_types<Json::Value *> > >
_TEXT	ENDS
; Function compile flags: /Odtp
;	COMDAT ??1?$_Deque_const_iterator@V?$_Deque_val@U?$_Deque_simple_types@PAVValue@Json@@@std@@@std@@@std@@QAE@XZ
_TEXT	SEGMENT
_this$ = -4						; size = 4
??1?$_Deque_const_iterator@V?$_Deque_val@U?$_Deque_simple_types@PAVValue@Json@@@std@@@std@@@std@@QAE@XZ PROC ; std::_Deque_const_iterator<std::_Deque_val<std::_Deque_simple_types<Json::Value *> > >::~_Deque_const_iterator<std::_Deque_val<std::_Deque_simple_types<Json::Value *> > >, COMDAT
; _this$ = ecx
	push	ebp
	mov	ebp, esp
	push	ecx
	mov	DWORD PTR _this$[ebp], ecx
	mov	ecx, DWORD PTR _this$[ebp]
	call	??1_Iterator_base12@std@@QAE@XZ		; std::_Iterator_base12::~_Iterator_base12
	mov	esp, ebp
	pop	ebp
	ret	0
??1?$_Deque_const_iterator@V?$_Deque_val@U?$_Deque_simple_types@PAVValue@Json@@@std@@@std@@@std@@QAE@XZ ENDP ; std::_Deque_const_iterator<std::_Deque_val<std::_Deque_simple_types<Json::Value *> > >::~_Deque_const_iterator<std::_Deque_val<std::_Deque_simple_types<Json::Value *> > >
_TEXT	ENDS
; Function compile flags: /Odtp
; File c:\program files (x86)\microsoft visual studio 12.0\vc\include\deque
;	COMDAT ?_Setcont@?$_Deque_const_iterator@V?$_Deque_val@U?$_Deque_simple_types@PAVValue@Json@@@std@@@std@@@std@@QAEXPBV?$_Deque_val@U?$_Deque_simple_types@PAVValue@Json@@@std@@@2@@Z
_TEXT	SEGMENT
_this$ = -4						; size = 4
__Pdeque$ = 8						; size = 4
?_Setcont@?$_Deque_const_iterator@V?$_Deque_val@U?$_Deque_simple_types@PAVValue@Json@@@std@@@std@@@std@@QAEXPBV?$_Deque_val@U?$_Deque_simple_types@PAVValue@Json@@@std@@@2@@Z PROC ; std::_Deque_const_iterator<std::_Deque_val<std::_Deque_simple_types<Json::Value *> > >::_Setcont, COMDAT
; _this$ = ecx

; 530  : 		{	// set container pointer

	push	ebp
	mov	ebp, esp
	push	ecx
	mov	DWORD PTR _this$[ebp], ecx

; 531  : 		this->_Adopt(_Pdeque);

	mov	eax, DWORD PTR __Pdeque$[ebp]
	push	eax
	mov	ecx, DWORD PTR _this$[ebp]
	call	?_Adopt@_Iterator_base12@std@@QAEXPBU_Container_base12@2@@Z ; std::_Iterator_base12::_Adopt

; 532  : 		}

	mov	esp, ebp
	pop	ebp
	ret	4
?_Setcont@?$_Deque_const_iterator@V?$_Deque_val@U?$_Deque_simple_types@PAVValue@Json@@@std@@@std@@@std@@QAEXPBV?$_Deque_val@U?$_Deque_simple_types@PAVValue@Json@@@std@@@2@@Z ENDP ; std::_Deque_const_iterator<std::_Deque_val<std::_Deque_simple_types<Json::Value *> > >::_Setcont
_TEXT	ENDS
; Function compile flags: /Odtp
; File c:\program files (x86)\microsoft visual studio 12.0\vc\include\deque
;	COMDAT ??D?$_Deque_const_iterator@V?$_Deque_val@U?$_Deque_simple_types@PAVValue@Json@@@std@@@std@@@std@@QBEABQAVValue@Json@@XZ
_TEXT	SEGMENT
__Off$ = -16						; size = 4
__Block$ = -12						; size = 4
__Mycont$ = -8						; size = 4
_this$ = -4						; size = 4
??D?$_Deque_const_iterator@V?$_Deque_val@U?$_Deque_simple_types@PAVValue@Json@@@std@@@std@@@std@@QBEABQAVValue@Json@@XZ PROC ; std::_Deque_const_iterator<std::_Deque_val<std::_Deque_simple_types<Json::Value *> > >::operator*, COMDAT
; _this$ = ecx

; 322  : 		{	// return designated object

	push	ebp
	mov	ebp, esp
	sub	esp, 16					; 00000010H
	mov	DWORD PTR _this$[ebp], ecx

; 323  : 		_Mydeque *_Mycont = ((_Mydeque *)this->_Getcont());

	mov	ecx, DWORD PTR _this$[ebp]
	call	?_Getcont@_Iterator_base12@std@@QBEPBU_Container_base12@2@XZ ; std::_Iterator_base12::_Getcont
	mov	DWORD PTR __Mycont$[ebp], eax

; 324  : 
; 325  :  #if _ITERATOR_DEBUG_LEVEL == 2
; 326  : 		if (_Mycont == 0
; 327  : 			|| this->_Myoff < _Mycont->_Myoff
; 328  : 			|| _Mycont->_Myoff + _Mycont->_Mysize <= this->_Myoff)
; 329  : 		{	// report error
; 330  : 		_DEBUG_ERROR("deque iterator not dereferencable");
; 331  : 		_SCL_SECURE_OUT_OF_RANGE;
; 332  : 		}
; 333  : 
; 334  :  #elif _ITERATOR_DEBUG_LEVEL == 1
; 335  : 		_SCL_SECURE_VALIDATE(_Mycont != 0);
; 336  : 		_SCL_SECURE_VALIDATE_RANGE(_Mycont->_Myoff <= this->_Myoff
; 337  : 			&& this->_Myoff < _Mycont->_Myoff + _Mycont->_Mysize);
; 338  :  #endif /* _ITERATOR_DEBUG_LEVEL */
; 339  : 
; 340  : 		_Analysis_assume_(_Mycont != 0);
; 341  : 
; 342  : 		size_type _Block = _Mycont->_Getblock(_Myoff);

	mov	eax, DWORD PTR _this$[ebp]
	mov	ecx, DWORD PTR [eax+8]
	push	ecx
	mov	ecx, DWORD PTR __Mycont$[ebp]
	call	?_Getblock@?$_Deque_val@U?$_Deque_simple_types@PAVValue@Json@@@std@@@std@@QBEII@Z ; std::_Deque_val<std::_Deque_simple_types<Json::Value *> >::_Getblock
	mov	DWORD PTR __Block$[ebp], eax

; 343  : 		size_type _Off = _Myoff % _DEQUESIZ;

	mov	edx, DWORD PTR _this$[ebp]
	mov	eax, DWORD PTR [edx+8]
	xor	edx, edx
	mov	ecx, 4
	div	ecx
	mov	DWORD PTR __Off$[ebp], edx

; 344  : 		return (_Mycont->_Map[_Block][_Off]);

	mov	edx, DWORD PTR __Mycont$[ebp]
	mov	eax, DWORD PTR [edx+4]
	mov	ecx, DWORD PTR __Block$[ebp]
	mov	edx, DWORD PTR [eax+ecx*4]
	mov	eax, DWORD PTR __Off$[ebp]
	lea	eax, DWORD PTR [edx+eax*4]

; 345  : 		}

	mov	esp, ebp
	pop	ebp
	ret	0
??D?$_Deque_const_iterator@V?$_Deque_val@U?$_Deque_simple_types@PAVValue@Json@@@std@@@std@@@std@@QBEABQAVValue@Json@@XZ ENDP ; std::_Deque_const_iterator<std::_Deque_val<std::_Deque_simple_types<Json::Value *> > >::operator*
_TEXT	ENDS
; Function compile flags: /Odtp
; File c:\program files (x86)\microsoft visual studio 12.0\vc\include\deque
;	COMDAT ??0?$_Deque_const_iterator@V?$_Deque_val@U?$_Deque_simple_types@PAVValue@Json@@@std@@@std@@@std@@QAE@IPBU_Container_base12@1@@Z
_TEXT	SEGMENT
_this$ = -16						; size = 4
__$EHRec$ = -12						; size = 12
__Off$ = 8						; size = 4
__Pdeque$ = 12						; size = 4
??0?$_Deque_const_iterator@V?$_Deque_val@U?$_Deque_simple_types@PAVValue@Json@@@std@@@std@@@std@@QAE@IPBU_Container_base12@1@@Z PROC ; std::_Deque_const_iterator<std::_Deque_val<std::_Deque_simple_types<Json::Value *> > >::_Deque_const_iterator<std::_Deque_val<std::_Deque_simple_types<Json::Value *> > >, COMDAT
; _this$ = ecx

; 302  : 	_Deque_const_iterator(size_type _Off, const _Container_base12 *_Pdeque)

	push	ebp
	mov	ebp, esp
	push	-1
	push	__ehhandler$??0?$_Deque_const_iterator@V?$_Deque_val@U?$_Deque_simple_types@PAVValue@Json@@@std@@@std@@@std@@QAE@IPBU_Container_base12@1@@Z
	mov	eax, DWORD PTR fs:0
	push	eax
	push	ecx
	mov	eax, DWORD PTR ___security_cookie
	xor	eax, ebp
	push	eax
	lea	eax, DWORD PTR __$EHRec$[ebp]
	mov	DWORD PTR fs:0, eax
	mov	DWORD PTR _this$[ebp], ecx
	mov	ecx, DWORD PTR _this$[ebp]
	call	??0_Iterator_base12@std@@QAE@XZ		; std::_Iterator_base12::_Iterator_base12
	mov	DWORD PTR __$EHRec$[ebp+8], 0

; 303  : 		{	// construct with offset _Off in *_Pdeque
; 304  : 		_Setcont((_Mydeque *)_Pdeque);

	mov	eax, DWORD PTR __Pdeque$[ebp]
	push	eax
	mov	ecx, DWORD PTR _this$[ebp]
	call	?_Setcont@?$_Deque_const_iterator@V?$_Deque_val@U?$_Deque_simple_types@PAVValue@Json@@@std@@@std@@@std@@QAEXPBV?$_Deque_val@U?$_Deque_simple_types@PAVValue@Json@@@std@@@2@@Z ; std::_Deque_const_iterator<std::_Deque_val<std::_Deque_simple_types<Json::Value *> > >::_Setcont

; 305  : 		_Myoff = _Off;

	mov	ecx, DWORD PTR _this$[ebp]
	mov	edx, DWORD PTR __Off$[ebp]
	mov	DWORD PTR [ecx+8], edx

; 306  : 		}

	mov	DWORD PTR __$EHRec$[ebp+8], -1
	mov	eax, DWORD PTR _this$[ebp]
	mov	ecx, DWORD PTR __$EHRec$[ebp]
	mov	DWORD PTR fs:0, ecx
	pop	ecx
	mov	esp, ebp
	pop	ebp
	ret	8
_TEXT	ENDS
;	COMDAT text$x
text$x	SEGMENT
__unwindfunclet$??0?$_Deque_const_iterator@V?$_Deque_val@U?$_Deque_simple_types@PAVValue@Json@@@std@@@std@@@std@@QAE@IPBU_Container_base12@1@@Z$0:
	mov	ecx, DWORD PTR _this$[ebp]
	jmp	??1_Iterator_base12@std@@QAE@XZ		; std::_Iterator_base12::~_Iterator_base12
__ehhandler$??0?$_Deque_const_iterator@V?$_Deque_val@U?$_Deque_simple_types@PAVValue@Json@@@std@@@std@@@std@@QAE@IPBU_Container_base12@1@@Z:
	mov	edx, DWORD PTR [esp+8]
	lea	eax, DWORD PTR [edx+12]
	mov	ecx, DWORD PTR [edx-8]
	xor	ecx, eax
	call	@__security_check_cookie@4
	mov	eax, OFFSET __ehfuncinfo$??0?$_Deque_const_iterator@V?$_Deque_val@U?$_Deque_simple_types@PAVValue@Json@@@std@@@std@@@std@@QAE@IPBU_Container_base12@1@@Z
	jmp	___CxxFrameHandler3
text$x	ENDS
??0?$_Deque_const_iterator@V?$_Deque_val@U?$_Deque_simple_types@PAVValue@Json@@@std@@@std@@@std@@QAE@IPBU_Container_base12@1@@Z ENDP ; std::_Deque_const_iterator<std::_Deque_val<std::_Deque_simple_types<Json::Value *> > >::_Deque_const_iterator<std::_Deque_val<std::_Deque_simple_types<Json::Value *> > >
; Function compile flags: /Odtp
; File c:\program files (x86)\microsoft visual studio 12.0\vc\include\xmemory0
;	COMDAT ??$construct@PAVValue@Json@@PAV12@@?$_Wrap_alloc@V?$allocator@PAVValue@Json@@@std@@@std@@QAEXPAPAVValue@Json@@$$QAPAV23@@Z
_TEXT	SEGMENT
_this$ = -4						; size = 4
__Ptr$ = 8						; size = 4
_<_Args_0>$ = 12					; size = 4
??$construct@PAVValue@Json@@PAV12@@?$_Wrap_alloc@V?$allocator@PAVValue@Json@@@std@@@std@@QAEXPAPAVValue@Json@@$$QAPAV23@@Z PROC ; std::_Wrap_alloc<std::allocator<Json::Value *> >::construct<Json::Value *,Json::Value *>, COMDAT
; _this$ = ecx

; 868  : 		void construct(_Ty *_Ptr,

	push	ebp
	mov	ebp, esp
	push	ecx
	mov	DWORD PTR _this$[ebp], ecx

; 869  : 			_Types&&... _Args)
; 870  : 		{	// construct _Ty(_Types...) at _Ptr
; 871  : 		_Mytraits::construct(*this, _Ptr,
; 872  : 			_STD forward<_Types>(_Args)...);

	mov	eax, DWORD PTR _<_Args_0>$[ebp]
	push	eax
	call	??$forward@PAVValue@Json@@@std@@YA$$QAPAVValue@Json@@AAPAV12@@Z ; std::forward<Json::Value *>
	add	esp, 4
	push	eax
	mov	ecx, DWORD PTR __Ptr$[ebp]
	push	ecx
	mov	edx, DWORD PTR _this$[ebp]
	push	edx
	call	??$construct@PAVValue@Json@@PAV12@@?$allocator_traits@V?$allocator@PAVValue@Json@@@std@@@std@@SAXAAV?$allocator@PAVValue@Json@@@1@PAPAVValue@Json@@$$QAPAV34@@Z ; std::allocator_traits<std::allocator<Json::Value *> >::construct<Json::Value *,Json::Value *>
	add	esp, 12					; 0000000cH

; 873  : 		}

	mov	esp, ebp
	pop	ebp
	ret	8
??$construct@PAVValue@Json@@PAV12@@?$_Wrap_alloc@V?$allocator@PAVValue@Json@@@std@@@std@@QAEXPAPAVValue@Json@@$$QAPAV23@@Z ENDP ; std::_Wrap_alloc<std::allocator<Json::Value *> >::construct<Json::Value *,Json::Value *>
_TEXT	ENDS
; Function compile flags: /Odtp
; File c:\program files (x86)\microsoft visual studio 12.0\vc\include\type_traits
;	COMDAT ??$forward@PAVValue@Json@@@std@@YA$$QAPAVValue@Json@@AAPAV12@@Z
_TEXT	SEGMENT
__Arg$ = 8						; size = 4
??$forward@PAVValue@Json@@@std@@YA$$QAPAVValue@Json@@AAPAV12@@Z PROC ; std::forward<Json::Value *>, COMDAT

; 1504 : 	{	// forward an lvalue

	push	ebp
	mov	ebp, esp

; 1505 : 	return (static_cast<_Ty&&>(_Arg));

	mov	eax, DWORD PTR __Arg$[ebp]

; 1506 : 	}

	pop	ebp
	ret	0
??$forward@PAVValue@Json@@@std@@YA$$QAPAVValue@Json@@AAPAV12@@Z ENDP ; std::forward<Json::Value *>
_TEXT	ENDS
; Function compile flags: /Odtp
; File c:\program files (x86)\microsoft visual studio 12.0\vc\include\xstddef
;	COMDAT ??$addressof@D@std@@YAPADAAD@Z
_TEXT	SEGMENT
__Val$ = 8						; size = 4
??$addressof@D@std@@YAPADAAD@Z PROC			; std::addressof<char>, COMDAT

; 92   : 	{	// return address of _Val

	push	ebp
	mov	ebp, esp

; 93   : 	return (reinterpret_cast<_Ty *>(
; 94   : 		(&const_cast<char&>(
; 95   : 		reinterpret_cast<const volatile char&>(_Val)))));

	mov	eax, DWORD PTR __Val$[ebp]

; 96   : 	}

	pop	ebp
	ret	0
??$addressof@D@std@@YAPADAAD@Z ENDP			; std::addressof<char>
_TEXT	ENDS
; Function compile flags: /Odtp
; File c:\program files (x86)\microsoft visual studio 12.0\vc\include\xmemory0
;	COMDAT ??$destroy@PAD@?$_Wrap_alloc@V?$allocator@D@std@@@std@@QAEXPAPAD@Z
_TEXT	SEGMENT
_this$ = -4						; size = 4
__Ptr$ = 8						; size = 4
??$destroy@PAD@?$_Wrap_alloc@V?$allocator@D@std@@@std@@QAEXPAPAD@Z PROC ; std::_Wrap_alloc<std::allocator<char> >::destroy<char *>, COMDAT
; _this$ = ecx

; 877  : 		void destroy(_Ty *_Ptr)

	push	ebp
	mov	ebp, esp
	push	ecx
	mov	DWORD PTR _this$[ebp], ecx

; 878  : 		{	// destroy object at _Ptr
; 879  : 		_Mytraits::destroy(*this, _Ptr);

	mov	eax, DWORD PTR __Ptr$[ebp]
	push	eax
	mov	ecx, DWORD PTR _this$[ebp]
	push	ecx
	call	??$destroy@PAD@?$allocator_traits@V?$allocator@D@std@@@std@@SAXAAV?$allocator@D@1@PAPAD@Z ; std::allocator_traits<std::allocator<char> >::destroy<char *>
	add	esp, 8

; 880  : 		}

	mov	esp, ebp
	pop	ebp
	ret	4
??$destroy@PAD@?$_Wrap_alloc@V?$allocator@D@std@@@std@@QAEXPAPAD@Z ENDP ; std::_Wrap_alloc<std::allocator<char> >::destroy<char *>
_TEXT	ENDS
; Function compile flags: /Odtp
; File c:\program files (x86)\microsoft visual studio 12.0\vc\include\xmemory0
;	COMDAT ??$construct@PADAAPAD@?$_Wrap_alloc@V?$allocator@D@std@@@std@@QAEXPAPADAAPAD@Z
_TEXT	SEGMENT
_this$ = -4						; size = 4
__Ptr$ = 8						; size = 4
_<_Args_0>$ = 12					; size = 4
??$construct@PADAAPAD@?$_Wrap_alloc@V?$allocator@D@std@@@std@@QAEXPAPADAAPAD@Z PROC ; std::_Wrap_alloc<std::allocator<char> >::construct<char *,char * &>, COMDAT
; _this$ = ecx

; 868  : 		void construct(_Ty *_Ptr,

	push	ebp
	mov	ebp, esp
	push	ecx
	mov	DWORD PTR _this$[ebp], ecx

; 869  : 			_Types&&... _Args)
; 870  : 		{	// construct _Ty(_Types...) at _Ptr
; 871  : 		_Mytraits::construct(*this, _Ptr,
; 872  : 			_STD forward<_Types>(_Args)...);

	mov	eax, DWORD PTR _<_Args_0>$[ebp]
	push	eax
	call	??$forward@AAPAD@std@@YAAAPADAAPAD@Z	; std::forward<char * &>
	add	esp, 4
	push	eax
	mov	ecx, DWORD PTR __Ptr$[ebp]
	push	ecx
	mov	edx, DWORD PTR _this$[ebp]
	push	edx
	call	??$construct@PADAAPAD@?$allocator_traits@V?$allocator@D@std@@@std@@SAXAAV?$allocator@D@1@PAPADAAPAD@Z ; std::allocator_traits<std::allocator<char> >::construct<char *,char * &>
	add	esp, 12					; 0000000cH

; 873  : 		}

	mov	esp, ebp
	pop	ebp
	ret	8
??$construct@PADAAPAD@?$_Wrap_alloc@V?$allocator@D@std@@@std@@QAEXPAPADAAPAD@Z ENDP ; std::_Wrap_alloc<std::allocator<char> >::construct<char *,char * &>
_TEXT	ENDS
; Function compile flags: /Odtp
; File c:\program files (x86)\microsoft visual studio 12.0\vc\include\xmemory0
;	COMDAT ??$construct@VErrorInfo@Reader@Json@@ABV123@@?$_Wrap_alloc@V?$allocator@VErrorInfo@Reader@Json@@@std@@@std@@QAEXPAVErrorInfo@Reader@Json@@ABV234@@Z
_TEXT	SEGMENT
_this$ = -4						; size = 4
__Ptr$ = 8						; size = 4
_<_Args_0>$ = 12					; size = 4
??$construct@VErrorInfo@Reader@Json@@ABV123@@?$_Wrap_alloc@V?$allocator@VErrorInfo@Reader@Json@@@std@@@std@@QAEXPAVErrorInfo@Reader@Json@@ABV234@@Z PROC ; std::_Wrap_alloc<std::allocator<Json::Reader::ErrorInfo> >::construct<Json::Reader::ErrorInfo,Json::Reader::ErrorInfo const &>, COMDAT
; _this$ = ecx

; 868  : 		void construct(_Ty *_Ptr,

	push	ebp
	mov	ebp, esp
	push	ecx
	mov	DWORD PTR _this$[ebp], ecx

; 869  : 			_Types&&... _Args)
; 870  : 		{	// construct _Ty(_Types...) at _Ptr
; 871  : 		_Mytraits::construct(*this, _Ptr,
; 872  : 			_STD forward<_Types>(_Args)...);

	mov	eax, DWORD PTR _<_Args_0>$[ebp]
	push	eax
	call	??$forward@ABVErrorInfo@Reader@Json@@@std@@YAABVErrorInfo@Reader@Json@@ABV123@@Z ; std::forward<Json::Reader::ErrorInfo const &>
	add	esp, 4
	push	eax
	mov	ecx, DWORD PTR __Ptr$[ebp]
	push	ecx
	mov	edx, DWORD PTR _this$[ebp]
	push	edx
	call	??$construct@VErrorInfo@Reader@Json@@ABV123@@?$allocator_traits@V?$allocator@VErrorInfo@Reader@Json@@@std@@@std@@SAXAAV?$allocator@VErrorInfo@Reader@Json@@@1@PAVErrorInfo@Reader@Json@@ABV345@@Z ; std::allocator_traits<std::allocator<Json::Reader::ErrorInfo> >::construct<Json::Reader::ErrorInfo,Json::Reader::ErrorInfo const &>
	add	esp, 12					; 0000000cH

; 873  : 		}

	mov	esp, ebp
	pop	ebp
	ret	8
??$construct@VErrorInfo@Reader@Json@@ABV123@@?$_Wrap_alloc@V?$allocator@VErrorInfo@Reader@Json@@@std@@@std@@QAEXPAVErrorInfo@Reader@Json@@ABV234@@Z ENDP ; std::_Wrap_alloc<std::allocator<Json::Reader::ErrorInfo> >::construct<Json::Reader::ErrorInfo,Json::Reader::ErrorInfo const &>
_TEXT	ENDS
; Function compile flags: /Odtp
; File c:\program files (x86)\microsoft visual studio 12.0\vc\include\deque
;	COMDAT ??$emplace_back@$$$V@?$deque@VErrorInfo@Reader@Json@@V?$allocator@VErrorInfo@Reader@Json@@@std@@@std@@QAEXXZ
_TEXT	SEGMENT
__Newoff$ = -16						; size = 4
__Block$ = -12						; size = 4
_this$ = -8						; size = 4
$T1 = -2						; size = 1
$T2 = -1						; size = 1
??$emplace_back@$$$V@?$deque@VErrorInfo@Reader@Json@@V?$allocator@VErrorInfo@Reader@Json@@@std@@@std@@QAEXXZ PROC ; std::deque<Json::Reader::ErrorInfo,std::allocator<Json::Reader::ErrorInfo> >::emplace_back<>, COMDAT
; _this$ = ecx

; 1155 : 		void emplace_back(_Valty&&... _Val)

	push	ebp
	mov	ebp, esp
	sub	esp, 16					; 00000010H
	push	esi
	mov	DWORD PTR _this$[ebp], ecx

; 1156 : 		{	// insert element at end
; 1157 : 		this->_Orphan_all();

	mov	ecx, DWORD PTR _this$[ebp]
	call	DWORD PTR __imp_?_Orphan_all@_Container_base12@std@@QAEXXZ

; 1158 : 		_PUSH_BACK_BEGIN;

	mov	eax, DWORD PTR _this$[ebp]
	mov	eax, DWORD PTR [eax+12]
	mov	ecx, DWORD PTR _this$[ebp]
	add	eax, DWORD PTR [ecx+16]
	xor	edx, edx
	mov	ecx, 1
	div	ecx
	test	edx, edx
	jne	SHORT $LN2@emplace_ba
	mov	edx, DWORD PTR _this$[ebp]
	mov	eax, DWORD PTR [edx+16]
	add	eax, 1
	mov	ecx, DWORD PTR _this$[ebp]
	cmp	DWORD PTR [ecx+8], eax
	ja	SHORT $LN2@emplace_ba
	push	1
	mov	ecx, DWORD PTR _this$[ebp]
	call	?_Growmap@?$deque@VErrorInfo@Reader@Json@@V?$allocator@VErrorInfo@Reader@Json@@@std@@@std@@IAEXI@Z ; std::deque<Json::Reader::ErrorInfo,std::allocator<Json::Reader::ErrorInfo> >::_Growmap
$LN2@emplace_ba:
	mov	edx, DWORD PTR _this$[ebp]
	mov	eax, DWORD PTR [edx+8]
	sub	eax, 1
	mov	ecx, DWORD PTR _this$[ebp]
	and	eax, DWORD PTR [ecx+12]
	mov	edx, DWORD PTR _this$[ebp]
	mov	DWORD PTR [edx+12], eax
	mov	eax, DWORD PTR _this$[ebp]
	mov	ecx, DWORD PTR [eax+12]
	mov	edx, DWORD PTR _this$[ebp]
	add	ecx, DWORD PTR [edx+16]
	mov	DWORD PTR __Newoff$[ebp], ecx
	mov	eax, DWORD PTR __Newoff$[ebp]
	push	eax
	mov	ecx, DWORD PTR _this$[ebp]
	call	?_Getblock@?$_Deque_val@U?$_Deque_simple_types@VErrorInfo@Reader@Json@@@std@@@std@@QBEII@Z ; std::_Deque_val<std::_Deque_simple_types<Json::Reader::ErrorInfo> >::_Getblock
	mov	DWORD PTR __Block$[ebp], eax
	mov	ecx, DWORD PTR _this$[ebp]
	mov	edx, DWORD PTR [ecx+4]
	mov	eax, DWORD PTR __Block$[ebp]
	cmp	DWORD PTR [edx+eax*4], 0
	jne	SHORT $LN1@emplace_ba
	push	1
	lea	ecx, DWORD PTR $T2[ebp]
	push	ecx
	mov	ecx, DWORD PTR _this$[ebp]
	call	?_Getal@?$_Deque_alloc@$0A@U?$_Deque_base_types@VErrorInfo@Reader@Json@@V?$allocator@VErrorInfo@Reader@Json@@@std@@@std@@@std@@QBE?AU?$_Wrap_alloc@V?$allocator@VErrorInfo@Reader@Json@@@std@@@2@XZ ; std::_Deque_alloc<0,std::_Deque_base_types<Json::Reader::ErrorInfo,std::allocator<Json::Reader::ErrorInfo> > >::_Getal
	mov	ecx, eax
	call	?allocate@?$_Wrap_alloc@V?$allocator@VErrorInfo@Reader@Json@@@std@@@std@@QAEPAVErrorInfo@Reader@Json@@I@Z ; std::_Wrap_alloc<std::allocator<Json::Reader::ErrorInfo> >::allocate
	mov	edx, DWORD PTR _this$[ebp]
	mov	ecx, DWORD PTR [edx+4]
	mov	edx, DWORD PTR __Block$[ebp]
	mov	DWORD PTR [ecx+edx*4], eax
$LN1@emplace_ba:

; 1159 : 		this->_Getal().construct(
; 1160 : 			this->_Map[_Block] + _Newoff % _DEQUESIZ,
; 1161 : 			_STD forward<_Valty>(_Val)...);

	mov	eax, DWORD PTR _this$[ebp]
	mov	ecx, DWORD PTR [eax+4]
	mov	eax, DWORD PTR __Newoff$[ebp]
	xor	edx, edx
	mov	esi, 1
	div	esi
	imul	edx, edx, 40
	mov	eax, DWORD PTR __Block$[ebp]
	add	edx, DWORD PTR [ecx+eax*4]
	push	edx
	lea	ecx, DWORD PTR $T1[ebp]
	push	ecx
	mov	ecx, DWORD PTR _this$[ebp]
	call	?_Getal@?$_Deque_alloc@$0A@U?$_Deque_base_types@VErrorInfo@Reader@Json@@V?$allocator@VErrorInfo@Reader@Json@@@std@@@std@@@std@@QBE?AU?$_Wrap_alloc@V?$allocator@VErrorInfo@Reader@Json@@@std@@@2@XZ ; std::_Deque_alloc<0,std::_Deque_base_types<Json::Reader::ErrorInfo,std::allocator<Json::Reader::ErrorInfo> > >::_Getal
	mov	ecx, eax
	call	?construct@?$_Wrap_alloc@V?$allocator@VErrorInfo@Reader@Json@@@std@@@std@@QAEXPAVErrorInfo@Reader@Json@@@Z ; std::_Wrap_alloc<std::allocator<Json::Reader::ErrorInfo> >::construct

; 1162 : 		_PUSH_BACK_END;

	mov	edx, DWORD PTR _this$[ebp]
	mov	eax, DWORD PTR [edx+16]
	add	eax, 1
	mov	ecx, DWORD PTR _this$[ebp]
	mov	DWORD PTR [ecx+16], eax

; 1163 : 		}

	pop	esi
	mov	esp, ebp
	pop	ebp
	ret	0
??$emplace_back@$$$V@?$deque@VErrorInfo@Reader@Json@@V?$allocator@VErrorInfo@Reader@Json@@@std@@@std@@QAEXXZ ENDP ; std::deque<Json::Reader::ErrorInfo,std::allocator<Json::Reader::ErrorInfo> >::emplace_back<>
_TEXT	ENDS
; Function compile flags: /Odtp
; File c:\program files (x86)\microsoft visual studio 12.0\vc\include\type_traits
;	COMDAT ??$move@AAPAVValue@Json@@@std@@YA$$QAPAVValue@Json@@AAPAV12@@Z
_TEXT	SEGMENT
__Arg$ = 8						; size = 4
??$move@AAPAVValue@Json@@@std@@YA$$QAPAVValue@Json@@AAPAV12@@Z PROC ; std::move<Json::Value * &>, COMDAT

; 1519 : 	{	// forward _Arg as movable

	push	ebp
	mov	ebp, esp

; 1520 : 	return ((typename remove_reference<_Ty>::type&&)_Arg);

	mov	eax, DWORD PTR __Arg$[ebp]

; 1521 : 	}

	pop	ebp
	ret	0
??$move@AAPAVValue@Json@@@std@@YA$$QAPAVValue@Json@@AAPAV12@@Z ENDP ; std::move<Json::Value * &>
_TEXT	ENDS
; Function compile flags: /Odtp
; File c:\program files (x86)\microsoft visual studio 12.0\vc\include\xmemory0
;	COMDAT ??$?9V?$allocator@D@std@@V01@@std@@YA_NABU?$_Wrap_alloc@V?$allocator@D@std@@@0@0@Z
_TEXT	SEGMENT
tv69 = -4						; size = 4
__Left$ = 8						; size = 4
__Right$ = 12						; size = 4
??$?9V?$allocator@D@std@@V01@@std@@YA_NABU?$_Wrap_alloc@V?$allocator@D@std@@@0@0@Z PROC ; std::operator!=<std::allocator<char>,std::allocator<char> >, COMDAT

; 900  : 	{	// test for allocator inequality

	push	ebp
	mov	ebp, esp
	push	ecx

; 901  : 	return (!(_Left == _Right));

	mov	eax, DWORD PTR __Right$[ebp]
	push	eax
	mov	ecx, DWORD PTR __Left$[ebp]
	push	ecx
	call	??$?8V?$allocator@D@std@@V01@@std@@YA_NABU?$_Wrap_alloc@V?$allocator@D@std@@@0@0@Z ; std::operator==<std::allocator<char>,std::allocator<char> >
	add	esp, 8
	movzx	edx, al
	test	edx, edx
	jne	SHORT $LN3@operator
	mov	DWORD PTR tv69[ebp], 1
	jmp	SHORT $LN4@operator
$LN3@operator:
	mov	DWORD PTR tv69[ebp], 0
$LN4@operator:
	mov	al, BYTE PTR tv69[ebp]

; 902  : 	}

	mov	esp, ebp
	pop	ebp
	ret	0
??$?9V?$allocator@D@std@@V01@@std@@YA_NABU?$_Wrap_alloc@V?$allocator@D@std@@@0@0@Z ENDP ; std::operator!=<std::allocator<char>,std::allocator<char> >
_TEXT	ENDS
; Function compile flags: /Odtp
; File c:\program files (x86)\microsoft visual studio 12.0\vc\include\type_traits
;	COMDAT ??$forward@V?$basic_string@DU?$char_traits@D@std@@V?$allocator@D@2@@std@@@std@@YA$$QAV?$basic_string@DU?$char_traits@D@std@@V?$allocator@D@2@@0@AAV10@@Z
_TEXT	SEGMENT
__Arg$ = 8						; size = 4
??$forward@V?$basic_string@DU?$char_traits@D@std@@V?$allocator@D@2@@std@@@std@@YA$$QAV?$basic_string@DU?$char_traits@D@std@@V?$allocator@D@2@@0@AAV10@@Z PROC ; std::forward<std::basic_string<char,std::char_traits<char>,std::allocator<char> > >, COMDAT

; 1504 : 	{	// forward an lvalue

	push	ebp
	mov	ebp, esp

; 1505 : 	return (static_cast<_Ty&&>(_Arg));

	mov	eax, DWORD PTR __Arg$[ebp]

; 1506 : 	}

	pop	ebp
	ret	0
??$forward@V?$basic_string@DU?$char_traits@D@std@@V?$allocator@D@2@@std@@@std@@YA$$QAV?$basic_string@DU?$char_traits@D@std@@V?$allocator@D@2@@0@AAV10@@Z ENDP ; std::forward<std::basic_string<char,std::char_traits<char>,std::allocator<char> > >
_TEXT	ENDS
; Function compile flags: /Odtp
;	COMDAT ??1?$_Deque_const_iterator@V?$_Deque_val@U?$_Deque_simple_types@VErrorInfo@Reader@Json@@@std@@@std@@@std@@QAE@XZ
_TEXT	SEGMENT
_this$ = -4						; size = 4
??1?$_Deque_const_iterator@V?$_Deque_val@U?$_Deque_simple_types@VErrorInfo@Reader@Json@@@std@@@std@@@std@@QAE@XZ PROC ; std::_Deque_const_iterator<std::_Deque_val<std::_Deque_simple_types<Json::Reader::ErrorInfo> > >::~_Deque_const_iterator<std::_Deque_val<std::_Deque_simple_types<Json::Reader::ErrorInfo> > >, COMDAT
; _this$ = ecx
	push	ebp
	mov	ebp, esp
	push	ecx
	mov	DWORD PTR _this$[ebp], ecx
	mov	ecx, DWORD PTR _this$[ebp]
	call	??1_Iterator_base12@std@@QAE@XZ		; std::_Iterator_base12::~_Iterator_base12
	mov	esp, ebp
	pop	ebp
	ret	0
??1?$_Deque_const_iterator@V?$_Deque_val@U?$_Deque_simple_types@VErrorInfo@Reader@Json@@@std@@@std@@@std@@QAE@XZ ENDP ; std::_Deque_const_iterator<std::_Deque_val<std::_Deque_simple_types<Json::Reader::ErrorInfo> > >::~_Deque_const_iterator<std::_Deque_val<std::_Deque_simple_types<Json::Reader::ErrorInfo> > >
_TEXT	ENDS
; Function compile flags: /Odtp
; File c:\program files (x86)\microsoft visual studio 12.0\vc\include\deque
;	COMDAT ?_Setcont@?$_Deque_const_iterator@V?$_Deque_val@U?$_Deque_simple_types@VErrorInfo@Reader@Json@@@std@@@std@@@std@@QAEXPBV?$_Deque_val@U?$_Deque_simple_types@VErrorInfo@Reader@Json@@@std@@@2@@Z
_TEXT	SEGMENT
_this$ = -4						; size = 4
__Pdeque$ = 8						; size = 4
?_Setcont@?$_Deque_const_iterator@V?$_Deque_val@U?$_Deque_simple_types@VErrorInfo@Reader@Json@@@std@@@std@@@std@@QAEXPBV?$_Deque_val@U?$_Deque_simple_types@VErrorInfo@Reader@Json@@@std@@@2@@Z PROC ; std::_Deque_const_iterator<std::_Deque_val<std::_Deque_simple_types<Json::Reader::ErrorInfo> > >::_Setcont, COMDAT
; _this$ = ecx

; 530  : 		{	// set container pointer

	push	ebp
	mov	ebp, esp
	push	ecx
	mov	DWORD PTR _this$[ebp], ecx

; 531  : 		this->_Adopt(_Pdeque);

	mov	eax, DWORD PTR __Pdeque$[ebp]
	push	eax
	mov	ecx, DWORD PTR _this$[ebp]
	call	?_Adopt@_Iterator_base12@std@@QAEXPBU_Container_base12@2@@Z ; std::_Iterator_base12::_Adopt

; 532  : 		}

	mov	esp, ebp
	pop	ebp
	ret	4
?_Setcont@?$_Deque_const_iterator@V?$_Deque_val@U?$_Deque_simple_types@VErrorInfo@Reader@Json@@@std@@@std@@@std@@QAEXPBV?$_Deque_val@U?$_Deque_simple_types@VErrorInfo@Reader@Json@@@std@@@2@@Z ENDP ; std::_Deque_const_iterator<std::_Deque_val<std::_Deque_simple_types<Json::Reader::ErrorInfo> > >::_Setcont
_TEXT	ENDS
; Function compile flags: /Odtp
; File c:\program files (x86)\microsoft visual studio 12.0\vc\include\deque
;	COMDAT ?_Compat@?$_Deque_const_iterator@V?$_Deque_val@U?$_Deque_simple_types@VErrorInfo@Reader@Json@@@std@@@std@@@std@@QBEXABV12@@Z
_TEXT	SEGMENT
_this$ = -4						; size = 4
___formal$ = 8						; size = 4
?_Compat@?$_Deque_const_iterator@V?$_Deque_val@U?$_Deque_simple_types@VErrorInfo@Reader@Json@@@std@@@std@@@std@@QBEXABV12@@Z PROC ; std::_Deque_const_iterator<std::_Deque_val<std::_Deque_simple_types<Json::Reader::ErrorInfo> > >::_Compat, COMDAT
; _this$ = ecx

; 526  : 		{	// test for compatible iterator pair

	push	ebp
	mov	ebp, esp
	push	ecx
	mov	DWORD PTR _this$[ebp], ecx

; 527  : 		}

	mov	esp, ebp
	pop	ebp
	ret	4
?_Compat@?$_Deque_const_iterator@V?$_Deque_val@U?$_Deque_simple_types@VErrorInfo@Reader@Json@@@std@@@std@@@std@@QBEXABV12@@Z ENDP ; std::_Deque_const_iterator<std::_Deque_val<std::_Deque_simple_types<Json::Reader::ErrorInfo> > >::_Compat
_TEXT	ENDS
; Function compile flags: /Odtp
; File c:\program files (x86)\microsoft visual studio 12.0\vc\include\deque
;	COMDAT ??9?$_Deque_const_iterator@V?$_Deque_val@U?$_Deque_simple_types@VErrorInfo@Reader@Json@@@std@@@std@@@std@@QBE_NABV01@@Z
_TEXT	SEGMENT
_this$ = -8						; size = 4
tv69 = -4						; size = 4
__Right$ = 8						; size = 4
??9?$_Deque_const_iterator@V?$_Deque_val@U?$_Deque_simple_types@VErrorInfo@Reader@Json@@@std@@@std@@@std@@QBE_NABV01@@Z PROC ; std::_Deque_const_iterator<std::_Deque_val<std::_Deque_simple_types<Json::Reader::ErrorInfo> > >::operator!=, COMDAT
; _this$ = ecx

; 469  : 		{	// test for iterator inequality

	push	ebp
	mov	ebp, esp
	sub	esp, 8
	mov	DWORD PTR _this$[ebp], ecx

; 470  : 		return (!(*this == _Right));

	mov	eax, DWORD PTR __Right$[ebp]
	push	eax
	mov	ecx, DWORD PTR _this$[ebp]
	call	??8?$_Deque_const_iterator@V?$_Deque_val@U?$_Deque_simple_types@VErrorInfo@Reader@Json@@@std@@@std@@@std@@QBE_NABV01@@Z ; std::_Deque_const_iterator<std::_Deque_val<std::_Deque_simple_types<Json::Reader::ErrorInfo> > >::operator==
	movzx	ecx, al
	test	ecx, ecx
	jne	SHORT $LN3@operator
	mov	DWORD PTR tv69[ebp], 1
	jmp	SHORT $LN4@operator
$LN3@operator:
	mov	DWORD PTR tv69[ebp], 0
$LN4@operator:
	mov	al, BYTE PTR tv69[ebp]

; 471  : 		}

	mov	esp, ebp
	pop	ebp
	ret	4
??9?$_Deque_const_iterator@V?$_Deque_val@U?$_Deque_simple_types@VErrorInfo@Reader@Json@@@std@@@std@@@std@@QBE_NABV01@@Z ENDP ; std::_Deque_const_iterator<std::_Deque_val<std::_Deque_simple_types<Json::Reader::ErrorInfo> > >::operator!=
_TEXT	ENDS
; Function compile flags: /Odtp
; File c:\program files (x86)\microsoft visual studio 12.0\vc\include\deque
;	COMDAT ??8?$_Deque_const_iterator@V?$_Deque_val@U?$_Deque_simple_types@VErrorInfo@Reader@Json@@@std@@@std@@@std@@QBE_NABV01@@Z
_TEXT	SEGMENT
tv69 = -8						; size = 4
_this$ = -4						; size = 4
__Right$ = 8						; size = 4
??8?$_Deque_const_iterator@V?$_Deque_val@U?$_Deque_simple_types@VErrorInfo@Reader@Json@@@std@@@std@@@std@@QBE_NABV01@@Z PROC ; std::_Deque_const_iterator<std::_Deque_val<std::_Deque_simple_types<Json::Reader::ErrorInfo> > >::operator==, COMDAT
; _this$ = ecx

; 463  : 		{	// test for iterator equality

	push	ebp
	mov	ebp, esp
	sub	esp, 8
	mov	DWORD PTR _this$[ebp], ecx

; 464  : 		_Compat(_Right);

	mov	eax, DWORD PTR __Right$[ebp]
	push	eax
	mov	ecx, DWORD PTR _this$[ebp]
	call	?_Compat@?$_Deque_const_iterator@V?$_Deque_val@U?$_Deque_simple_types@VErrorInfo@Reader@Json@@@std@@@std@@@std@@QBEXABV12@@Z ; std::_Deque_const_iterator<std::_Deque_val<std::_Deque_simple_types<Json::Reader::ErrorInfo> > >::_Compat

; 465  : 		return (this->_Myoff == _Right._Myoff);

	mov	ecx, DWORD PTR _this$[ebp]
	mov	edx, DWORD PTR __Right$[ebp]
	mov	eax, DWORD PTR [ecx+8]
	cmp	eax, DWORD PTR [edx+8]
	jne	SHORT $LN3@operator
	mov	DWORD PTR tv69[ebp], 1
	jmp	SHORT $LN4@operator
$LN3@operator:
	mov	DWORD PTR tv69[ebp], 0
$LN4@operator:
	mov	al, BYTE PTR tv69[ebp]

; 466  : 		}

	mov	esp, ebp
	pop	ebp
	ret	4
??8?$_Deque_const_iterator@V?$_Deque_val@U?$_Deque_simple_types@VErrorInfo@Reader@Json@@@std@@@std@@@std@@QBE_NABV01@@Z ENDP ; std::_Deque_const_iterator<std::_Deque_val<std::_Deque_simple_types<Json::Reader::ErrorInfo> > >::operator==
_TEXT	ENDS
; Function compile flags: /Odtp
; File c:\program files (x86)\microsoft visual studio 12.0\vc\include\deque
;	COMDAT ??E?$_Deque_const_iterator@V?$_Deque_val@U?$_Deque_simple_types@VErrorInfo@Reader@Json@@@std@@@std@@@std@@QAEAAV01@XZ
_TEXT	SEGMENT
_this$ = -4						; size = 4
??E?$_Deque_const_iterator@V?$_Deque_val@U?$_Deque_simple_types@VErrorInfo@Reader@Json@@@std@@@std@@@std@@QAEAAV01@XZ PROC ; std::_Deque_const_iterator<std::_Deque_val<std::_Deque_simple_types<Json::Reader::ErrorInfo> > >::operator++, COMDAT
; _this$ = ecx

; 353  : 		{	// preincrement

	push	ebp
	mov	ebp, esp
	push	ecx
	mov	DWORD PTR _this$[ebp], ecx

; 354  :  #if _ITERATOR_DEBUG_LEVEL == 2
; 355  : 		_Mydeque *_Mycont = ((_Mydeque *)this->_Getcont());
; 356  : 		if (_Mycont == 0
; 357  : 			|| _Mycont->_Myoff + _Mycont->_Mysize <= this->_Myoff)
; 358  : 		{	// report error
; 359  : 		_DEBUG_ERROR("deque iterator not incrementable");
; 360  : 		_SCL_SECURE_OUT_OF_RANGE;
; 361  : 		}
; 362  : 
; 363  :  #elif _ITERATOR_DEBUG_LEVEL == 1
; 364  : 		_Mydeque *_Mycont = ((_Mydeque *)this->_Getcont());
; 365  : 		_SCL_SECURE_VALIDATE(_Mycont != 0);
; 366  : 		_SCL_SECURE_VALIDATE_RANGE(
; 367  : 			this->_Myoff < _Mycont->_Myoff + _Mycont->_Mysize);
; 368  :  #endif /* _ITERATOR_DEBUG_LEVEL */
; 369  : 
; 370  : 		++_Myoff;

	mov	eax, DWORD PTR _this$[ebp]
	mov	ecx, DWORD PTR [eax+8]
	add	ecx, 1
	mov	edx, DWORD PTR _this$[ebp]
	mov	DWORD PTR [edx+8], ecx

; 371  : 		return (*this);

	mov	eax, DWORD PTR _this$[ebp]

; 372  : 		}

	mov	esp, ebp
	pop	ebp
	ret	0
??E?$_Deque_const_iterator@V?$_Deque_val@U?$_Deque_simple_types@VErrorInfo@Reader@Json@@@std@@@std@@@std@@QAEAAV01@XZ ENDP ; std::_Deque_const_iterator<std::_Deque_val<std::_Deque_simple_types<Json::Reader::ErrorInfo> > >::operator++
_TEXT	ENDS
; Function compile flags: /Odtp
; File c:\program files (x86)\microsoft visual studio 12.0\vc\include\deque
;	COMDAT ??D?$_Deque_const_iterator@V?$_Deque_val@U?$_Deque_simple_types@VErrorInfo@Reader@Json@@@std@@@std@@@std@@QBEABVErrorInfo@Reader@Json@@XZ
_TEXT	SEGMENT
__Block$ = -16						; size = 4
__Off$ = -12						; size = 4
__Mycont$ = -8						; size = 4
_this$ = -4						; size = 4
??D?$_Deque_const_iterator@V?$_Deque_val@U?$_Deque_simple_types@VErrorInfo@Reader@Json@@@std@@@std@@@std@@QBEABVErrorInfo@Reader@Json@@XZ PROC ; std::_Deque_const_iterator<std::_Deque_val<std::_Deque_simple_types<Json::Reader::ErrorInfo> > >::operator*, COMDAT
; _this$ = ecx

; 322  : 		{	// return designated object

	push	ebp
	mov	ebp, esp
	sub	esp, 16					; 00000010H
	mov	DWORD PTR _this$[ebp], ecx

; 323  : 		_Mydeque *_Mycont = ((_Mydeque *)this->_Getcont());

	mov	ecx, DWORD PTR _this$[ebp]
	call	?_Getcont@_Iterator_base12@std@@QBEPBU_Container_base12@2@XZ ; std::_Iterator_base12::_Getcont
	mov	DWORD PTR __Mycont$[ebp], eax

; 324  : 
; 325  :  #if _ITERATOR_DEBUG_LEVEL == 2
; 326  : 		if (_Mycont == 0
; 327  : 			|| this->_Myoff < _Mycont->_Myoff
; 328  : 			|| _Mycont->_Myoff + _Mycont->_Mysize <= this->_Myoff)
; 329  : 		{	// report error
; 330  : 		_DEBUG_ERROR("deque iterator not dereferencable");
; 331  : 		_SCL_SECURE_OUT_OF_RANGE;
; 332  : 		}
; 333  : 
; 334  :  #elif _ITERATOR_DEBUG_LEVEL == 1
; 335  : 		_SCL_SECURE_VALIDATE(_Mycont != 0);
; 336  : 		_SCL_SECURE_VALIDATE_RANGE(_Mycont->_Myoff <= this->_Myoff
; 337  : 			&& this->_Myoff < _Mycont->_Myoff + _Mycont->_Mysize);
; 338  :  #endif /* _ITERATOR_DEBUG_LEVEL */
; 339  : 
; 340  : 		_Analysis_assume_(_Mycont != 0);
; 341  : 
; 342  : 		size_type _Block = _Mycont->_Getblock(_Myoff);

	mov	eax, DWORD PTR _this$[ebp]
	mov	ecx, DWORD PTR [eax+8]
	push	ecx
	mov	ecx, DWORD PTR __Mycont$[ebp]
	call	?_Getblock@?$_Deque_val@U?$_Deque_simple_types@VErrorInfo@Reader@Json@@@std@@@std@@QBEII@Z ; std::_Deque_val<std::_Deque_simple_types<Json::Reader::ErrorInfo> >::_Getblock
	mov	DWORD PTR __Block$[ebp], eax

; 343  : 		size_type _Off = _Myoff % _DEQUESIZ;

	mov	edx, DWORD PTR _this$[ebp]
	mov	eax, DWORD PTR [edx+8]
	xor	edx, edx
	mov	ecx, 1
	div	ecx
	mov	DWORD PTR __Off$[ebp], edx

; 344  : 		return (_Mycont->_Map[_Block][_Off]);

	mov	edx, DWORD PTR __Mycont$[ebp]
	mov	eax, DWORD PTR [edx+4]
	imul	ecx, DWORD PTR __Off$[ebp], 40
	mov	edx, DWORD PTR __Block$[ebp]
	add	ecx, DWORD PTR [eax+edx*4]
	mov	eax, ecx

; 345  : 		}

	mov	esp, ebp
	pop	ebp
	ret	0
??D?$_Deque_const_iterator@V?$_Deque_val@U?$_Deque_simple_types@VErrorInfo@Reader@Json@@@std@@@std@@@std@@QBEABVErrorInfo@Reader@Json@@XZ ENDP ; std::_Deque_const_iterator<std::_Deque_val<std::_Deque_simple_types<Json::Reader::ErrorInfo> > >::operator*
_TEXT	ENDS
; Function compile flags: /Odtp
; File c:\program files (x86)\microsoft visual studio 12.0\vc\include\deque
;	COMDAT ??0?$_Deque_const_iterator@V?$_Deque_val@U?$_Deque_simple_types@VErrorInfo@Reader@Json@@@std@@@std@@@std@@QAE@IPBU_Container_base12@1@@Z
_TEXT	SEGMENT
_this$ = -16						; size = 4
__$EHRec$ = -12						; size = 12
__Off$ = 8						; size = 4
__Pdeque$ = 12						; size = 4
??0?$_Deque_const_iterator@V?$_Deque_val@U?$_Deque_simple_types@VErrorInfo@Reader@Json@@@std@@@std@@@std@@QAE@IPBU_Container_base12@1@@Z PROC ; std::_Deque_const_iterator<std::_Deque_val<std::_Deque_simple_types<Json::Reader::ErrorInfo> > >::_Deque_const_iterator<std::_Deque_val<std::_Deque_simple_types<Json::Reader::ErrorInfo> > >, COMDAT
; _this$ = ecx

; 302  : 	_Deque_const_iterator(size_type _Off, const _Container_base12 *_Pdeque)

	push	ebp
	mov	ebp, esp
	push	-1
	push	__ehhandler$??0?$_Deque_const_iterator@V?$_Deque_val@U?$_Deque_simple_types@VErrorInfo@Reader@Json@@@std@@@std@@@std@@QAE@IPBU_Container_base12@1@@Z
	mov	eax, DWORD PTR fs:0
	push	eax
	push	ecx
	mov	eax, DWORD PTR ___security_cookie
	xor	eax, ebp
	push	eax
	lea	eax, DWORD PTR __$EHRec$[ebp]
	mov	DWORD PTR fs:0, eax
	mov	DWORD PTR _this$[ebp], ecx
	mov	ecx, DWORD PTR _this$[ebp]
	call	??0_Iterator_base12@std@@QAE@XZ		; std::_Iterator_base12::_Iterator_base12
	mov	DWORD PTR __$EHRec$[ebp+8], 0

; 303  : 		{	// construct with offset _Off in *_Pdeque
; 304  : 		_Setcont((_Mydeque *)_Pdeque);

	mov	eax, DWORD PTR __Pdeque$[ebp]
	push	eax
	mov	ecx, DWORD PTR _this$[ebp]
	call	?_Setcont@?$_Deque_const_iterator@V?$_Deque_val@U?$_Deque_simple_types@VErrorInfo@Reader@Json@@@std@@@std@@@std@@QAEXPBV?$_Deque_val@U?$_Deque_simple_types@VErrorInfo@Reader@Json@@@std@@@2@@Z ; std::_Deque_const_iterator<std::_Deque_val<std::_Deque_simple_types<Json::Reader::ErrorInfo> > >::_Setcont

; 305  : 		_Myoff = _Off;

	mov	ecx, DWORD PTR _this$[ebp]
	mov	edx, DWORD PTR __Off$[ebp]
	mov	DWORD PTR [ecx+8], edx

; 306  : 		}

	mov	DWORD PTR __$EHRec$[ebp+8], -1
	mov	eax, DWORD PTR _this$[ebp]
	mov	ecx, DWORD PTR __$EHRec$[ebp]
	mov	DWORD PTR fs:0, ecx
	pop	ecx
	mov	esp, ebp
	pop	ebp
	ret	8
_TEXT	ENDS
;	COMDAT text$x
text$x	SEGMENT
__unwindfunclet$??0?$_Deque_const_iterator@V?$_Deque_val@U?$_Deque_simple_types@VErrorInfo@Reader@Json@@@std@@@std@@@std@@QAE@IPBU_Container_base12@1@@Z$0:
	mov	ecx, DWORD PTR _this$[ebp]
	jmp	??1_Iterator_base12@std@@QAE@XZ		; std::_Iterator_base12::~_Iterator_base12
__ehhandler$??0?$_Deque_const_iterator@V?$_Deque_val@U?$_Deque_simple_types@VErrorInfo@Reader@Json@@@std@@@std@@@std@@QAE@IPBU_Container_base12@1@@Z:
	mov	edx, DWORD PTR [esp+8]
	lea	eax, DWORD PTR [edx+12]
	mov	ecx, DWORD PTR [edx-8]
	xor	ecx, eax
	call	@__security_check_cookie@4
	mov	eax, OFFSET __ehfuncinfo$??0?$_Deque_const_iterator@V?$_Deque_val@U?$_Deque_simple_types@VErrorInfo@Reader@Json@@@std@@@std@@@std@@QAE@IPBU_Container_base12@1@@Z
	jmp	___CxxFrameHandler3
text$x	ENDS
??0?$_Deque_const_iterator@V?$_Deque_val@U?$_Deque_simple_types@VErrorInfo@Reader@Json@@@std@@@std@@@std@@QAE@IPBU_Container_base12@1@@Z ENDP ; std::_Deque_const_iterator<std::_Deque_val<std::_Deque_simple_types<Json::Reader::ErrorInfo> > >::_Deque_const_iterator<std::_Deque_val<std::_Deque_simple_types<Json::Reader::ErrorInfo> > >
; Function compile flags: /Odtp
; File c:\program files (x86)\microsoft visual studio 12.0\vc\include\xstring
;	COMDAT ??$?HDU?$char_traits@D@std@@V?$allocator@D@1@@std@@YA?AV?$basic_string@DU?$char_traits@D@std@@V?$allocator@D@2@@0@$$QAV10@PBD@Z
_TEXT	SEGMENT
$T1 = -4						; size = 4
___$ReturnUdt$ = 8					; size = 4
__Left$ = 12						; size = 4
__Right$ = 16						; size = 4
??$?HDU?$char_traits@D@std@@V?$allocator@D@1@@std@@YA?AV?$basic_string@DU?$char_traits@D@std@@V?$allocator@D@2@@0@$$QAV10@PBD@Z PROC ; std::operator+<char,std::char_traits<char>,std::allocator<char> >, COMDAT

; 2448 : 	{	// return string + NTCS

	push	ebp
	mov	ebp, esp
	push	ecx
	mov	DWORD PTR $T1[ebp], 0

; 2449 : 	return (_STD move(_Left.append(_Right)));

	mov	eax, DWORD PTR __Right$[ebp]
	push	eax
	mov	ecx, DWORD PTR __Left$[ebp]
	call	?append@?$basic_string@DU?$char_traits@D@std@@V?$allocator@D@2@@std@@QAEAAV12@PBD@Z ; std::basic_string<char,std::char_traits<char>,std::allocator<char> >::append
	push	eax
	call	??$move@AAV?$basic_string@DU?$char_traits@D@std@@V?$allocator@D@2@@std@@@std@@YA$$QAV?$basic_string@DU?$char_traits@D@std@@V?$allocator@D@2@@0@AAV10@@Z ; std::move<std::basic_string<char,std::char_traits<char>,std::allocator<char> > &>
	add	esp, 4
	push	eax
	mov	ecx, DWORD PTR ___$ReturnUdt$[ebp]
	call	??0?$basic_string@DU?$char_traits@D@std@@V?$allocator@D@2@@std@@QAE@$$QAV01@@Z ; std::basic_string<char,std::char_traits<char>,std::allocator<char> >::basic_string<char,std::char_traits<char>,std::allocator<char> >
	mov	ecx, DWORD PTR $T1[ebp]
	or	ecx, 1
	mov	DWORD PTR $T1[ebp], ecx
	mov	eax, DWORD PTR ___$ReturnUdt$[ebp]

; 2450 : 	}

	mov	esp, ebp
	pop	ebp
	ret	0
??$?HDU?$char_traits@D@std@@V?$allocator@D@1@@std@@YA?AV?$basic_string@DU?$char_traits@D@std@@V?$allocator@D@2@@0@$$QAV10@PBD@Z ENDP ; std::operator+<char,std::char_traits<char>,std::allocator<char> >
_TEXT	ENDS
; Function compile flags: /Odtp
; File c:\program files (x86)\microsoft visual studio 12.0\vc\include\xstring
;	COMDAT ??$?HDU?$char_traits@D@std@@V?$allocator@D@1@@std@@YA?AV?$basic_string@DU?$char_traits@D@std@@V?$allocator@D@2@@0@PBD$$QAV10@@Z
_TEXT	SEGMENT
$T1 = -4						; size = 4
___$ReturnUdt$ = 8					; size = 4
__Left$ = 12						; size = 4
__Right$ = 16						; size = 4
??$?HDU?$char_traits@D@std@@V?$allocator@D@1@@std@@YA?AV?$basic_string@DU?$char_traits@D@std@@V?$allocator@D@2@@0@PBD$$QAV10@@Z PROC ; std::operator+<char,std::char_traits<char>,std::allocator<char> >, COMDAT

; 2428 : 	{	// return NTCS + string

	push	ebp
	mov	ebp, esp
	push	ecx
	mov	DWORD PTR $T1[ebp], 0

; 2429 : 	return (_STD move(_Right.insert(0, _Left)));

	mov	eax, DWORD PTR __Left$[ebp]
	push	eax
	push	0
	mov	ecx, DWORD PTR __Right$[ebp]
	call	?insert@?$basic_string@DU?$char_traits@D@std@@V?$allocator@D@2@@std@@QAEAAV12@IPBD@Z ; std::basic_string<char,std::char_traits<char>,std::allocator<char> >::insert
	push	eax
	call	??$move@AAV?$basic_string@DU?$char_traits@D@std@@V?$allocator@D@2@@std@@@std@@YA$$QAV?$basic_string@DU?$char_traits@D@std@@V?$allocator@D@2@@0@AAV10@@Z ; std::move<std::basic_string<char,std::char_traits<char>,std::allocator<char> > &>
	add	esp, 4
	push	eax
	mov	ecx, DWORD PTR ___$ReturnUdt$[ebp]
	call	??0?$basic_string@DU?$char_traits@D@std@@V?$allocator@D@2@@std@@QAE@$$QAV01@@Z ; std::basic_string<char,std::char_traits<char>,std::allocator<char> >::basic_string<char,std::char_traits<char>,std::allocator<char> >
	mov	ecx, DWORD PTR $T1[ebp]
	or	ecx, 1
	mov	DWORD PTR $T1[ebp], ecx
	mov	eax, DWORD PTR ___$ReturnUdt$[ebp]

; 2430 : 	}

	mov	esp, ebp
	pop	ebp
	ret	0
??$?HDU?$char_traits@D@std@@V?$allocator@D@1@@std@@YA?AV?$basic_string@DU?$char_traits@D@std@@V?$allocator@D@2@@0@PBD$$QAV10@@Z ENDP ; std::operator+<char,std::char_traits<char>,std::allocator<char> >
_TEXT	ENDS
; Function compile flags: /Odtp
; File c:\program files (x86)\microsoft visual studio 12.0\vc\include\xstring
;	COMDAT ??$?HDU?$char_traits@D@std@@V?$allocator@D@1@@std@@YA?AV?$basic_string@DU?$char_traits@D@std@@V?$allocator@D@2@@0@PBDABV10@@Z
_TEXT	SEGMENT
$T2 = -44						; size = 4
__Ans$ = -40						; size = 24
__$ArrayPad$ = -16					; size = 4
__$EHRec$ = -12						; size = 12
___$ReturnUdt$ = 8					; size = 4
__Left$ = 12						; size = 4
__Right$ = 16						; size = 4
??$?HDU?$char_traits@D@std@@V?$allocator@D@1@@std@@YA?AV?$basic_string@DU?$char_traits@D@std@@V?$allocator@D@2@@0@PBDABV10@@Z PROC ; std::operator+<char,std::char_traits<char>,std::allocator<char> >, COMDAT

; 2338 : 	{	// return NTCS + string

	push	ebp
	mov	ebp, esp
	push	-1
	push	__ehhandler$??$?HDU?$char_traits@D@std@@V?$allocator@D@1@@std@@YA?AV?$basic_string@DU?$char_traits@D@std@@V?$allocator@D@2@@0@PBDABV10@@Z
	mov	eax, DWORD PTR fs:0
	push	eax
	sub	esp, 32					; 00000020H
	mov	eax, DWORD PTR ___security_cookie
	xor	eax, ebp
	mov	DWORD PTR __$ArrayPad$[ebp], eax
	push	esi
	push	eax
	lea	eax, DWORD PTR __$EHRec$[ebp]
	mov	DWORD PTR fs:0, eax
	mov	DWORD PTR $T2[ebp], 0

; 2339 : 	basic_string<_Elem, _Traits, _Alloc> _Ans;

	lea	ecx, DWORD PTR __Ans$[ebp]
	call	??0?$basic_string@DU?$char_traits@D@std@@V?$allocator@D@2@@std@@QAE@XZ ; std::basic_string<char,std::char_traits<char>,std::allocator<char> >::basic_string<char,std::char_traits<char>,std::allocator<char> >
	mov	DWORD PTR __$EHRec$[ebp+8], 0

; 2340 : 	_Ans.reserve(_Traits::length(_Left) + _Right.size());

	mov	eax, DWORD PTR __Left$[ebp]
	push	eax
	call	?length@?$char_traits@D@std@@SAIPBD@Z	; std::char_traits<char>::length
	add	esp, 4
	mov	esi, eax
	mov	ecx, DWORD PTR __Right$[ebp]
	call	?size@?$basic_string@DU?$char_traits@D@std@@V?$allocator@D@2@@std@@QBEIXZ ; std::basic_string<char,std::char_traits<char>,std::allocator<char> >::size
	add	esi, eax
	push	esi
	lea	ecx, DWORD PTR __Ans$[ebp]
	call	?reserve@?$basic_string@DU?$char_traits@D@std@@V?$allocator@D@2@@std@@QAEXI@Z ; std::basic_string<char,std::char_traits<char>,std::allocator<char> >::reserve

; 2341 : 	_Ans += _Left;

	mov	ecx, DWORD PTR __Left$[ebp]
	push	ecx
	lea	ecx, DWORD PTR __Ans$[ebp]
	call	??Y?$basic_string@DU?$char_traits@D@std@@V?$allocator@D@2@@std@@QAEAAV01@PBD@Z ; std::basic_string<char,std::char_traits<char>,std::allocator<char> >::operator+=

; 2342 : 	_Ans += _Right;

	mov	edx, DWORD PTR __Right$[ebp]
	push	edx
	lea	ecx, DWORD PTR __Ans$[ebp]
	call	??Y?$basic_string@DU?$char_traits@D@std@@V?$allocator@D@2@@std@@QAEAAV01@ABV01@@Z ; std::basic_string<char,std::char_traits<char>,std::allocator<char> >::operator+=

; 2343 : 	return (_Ans);

	lea	eax, DWORD PTR __Ans$[ebp]
	push	eax
	mov	ecx, DWORD PTR ___$ReturnUdt$[ebp]
	call	??0?$basic_string@DU?$char_traits@D@std@@V?$allocator@D@2@@std@@QAE@$$QAV01@@Z ; std::basic_string<char,std::char_traits<char>,std::allocator<char> >::basic_string<char,std::char_traits<char>,std::allocator<char> >
	mov	ecx, DWORD PTR $T2[ebp]
	or	ecx, 1
	mov	DWORD PTR $T2[ebp], ecx
	mov	DWORD PTR __$EHRec$[ebp+8], -1
	lea	ecx, DWORD PTR __Ans$[ebp]
	call	??1?$basic_string@DU?$char_traits@D@std@@V?$allocator@D@2@@std@@QAE@XZ ; std::basic_string<char,std::char_traits<char>,std::allocator<char> >::~basic_string<char,std::char_traits<char>,std::allocator<char> >
	mov	eax, DWORD PTR ___$ReturnUdt$[ebp]

; 2344 : 	}

	mov	ecx, DWORD PTR __$EHRec$[ebp]
	mov	DWORD PTR fs:0, ecx
	pop	ecx
	pop	esi
	mov	ecx, DWORD PTR __$ArrayPad$[ebp]
	xor	ecx, ebp
	call	@__security_check_cookie@4
	mov	esp, ebp
	pop	ebp
	ret	0
_TEXT	ENDS
;	COMDAT text$x
text$x	SEGMENT
__unwindfunclet$??$?HDU?$char_traits@D@std@@V?$allocator@D@1@@std@@YA?AV?$basic_string@DU?$char_traits@D@std@@V?$allocator@D@2@@0@PBDABV10@@Z$0:
	lea	ecx, DWORD PTR __Ans$[ebp]
	jmp	??1?$basic_string@DU?$char_traits@D@std@@V?$allocator@D@2@@std@@QAE@XZ ; std::basic_string<char,std::char_traits<char>,std::allocator<char> >::~basic_string<char,std::char_traits<char>,std::allocator<char> >
__ehhandler$??$?HDU?$char_traits@D@std@@V?$allocator@D@1@@std@@YA?AV?$basic_string@DU?$char_traits@D@std@@V?$allocator@D@2@@0@PBDABV10@@Z:
	mov	edx, DWORD PTR [esp+8]
	lea	eax, DWORD PTR [edx+12]
	mov	ecx, DWORD PTR [edx-40]
	xor	ecx, eax
	call	@__security_check_cookie@4
	mov	ecx, DWORD PTR [edx-4]
	xor	ecx, eax
	call	@__security_check_cookie@4
	mov	eax, OFFSET __ehfuncinfo$??$?HDU?$char_traits@D@std@@V?$allocator@D@1@@std@@YA?AV?$basic_string@DU?$char_traits@D@std@@V?$allocator@D@2@@0@PBDABV10@@Z
	jmp	___CxxFrameHandler3
text$x	ENDS
??$?HDU?$char_traits@D@std@@V?$allocator@D@1@@std@@YA?AV?$basic_string@DU?$char_traits@D@std@@V?$allocator@D@2@@0@PBDABV10@@Z ENDP ; std::operator+<char,std::char_traits<char>,std::allocator<char> >
; Function compile flags: /Odtp
; File c:\program files (x86)\microsoft visual studio 12.0\vc\include\string
;	COMDAT ??$getline@DU?$char_traits@D@std@@V?$allocator@D@2@@std@@YAAAV?$basic_istream@DU?$char_traits@D@std@@@0@$$QAV10@AAV?$basic_string@DU?$char_traits@D@std@@V?$allocator@D@2@@0@D@Z
_TEXT	SEGMENT
__Ok$ = -68						; size = 8
$T2 = -60						; size = 4
tv202 = -56						; size = 4
__Metadelim$3 = -52					; size = 4
$T4 = -48						; size = 4
tv201 = -44						; size = 4
tv200 = -40						; size = 4
tv199 = -36						; size = 4
tv65 = -32						; size = 4
__Meta$5 = -28						; size = 4
__State$ = -24						; size = 4
__Changed$ = -17					; size = 1
__$EHRec$ = -16						; size = 16
__Istr$ = 8						; size = 4
__Str$ = 12						; size = 4
__Delim$ = 16						; size = 1
??$getline@DU?$char_traits@D@std@@V?$allocator@D@2@@std@@YAAAV?$basic_istream@DU?$char_traits@D@std@@@0@$$QAV10@AAV?$basic_string@DU?$char_traits@D@std@@V?$allocator@D@2@@0@D@Z PROC ; std::getline<char,std::char_traits<char>,std::allocator<char> >, COMDAT

; 76   : 	{	// get characters into string, discard delimiter

	push	ebp
	mov	ebp, esp
	push	-1
	push	__ehhandler$??$getline@DU?$char_traits@D@std@@V?$allocator@D@2@@std@@YAAAV?$basic_istream@DU?$char_traits@D@std@@@0@$$QAV10@AAV?$basic_string@DU?$char_traits@D@std@@V?$allocator@D@2@@0@D@Z
	mov	eax, DWORD PTR fs:0
	push	eax
	push	ecx
	sub	esp, 52					; 00000034H
	push	ebx
	push	esi
	push	edi
	mov	eax, DWORD PTR ___security_cookie
	xor	eax, ebp
	push	eax
	lea	eax, DWORD PTR __$EHRec$[ebp+4]
	mov	DWORD PTR fs:0, eax
	mov	DWORD PTR __$EHRec$[ebp], esp

; 77   : 	typedef basic_istream<_Elem, _Traits> _Myis;
; 78   : 
; 79   : 	ios_base::iostate _State = ios_base::goodbit;

	mov	DWORD PTR __State$[ebp], 0

; 80   : 	bool _Changed = false;

	mov	BYTE PTR __Changed$[ebp], 0

; 81   : 	const typename _Myis::sentry _Ok(_Istr, true);

	push	1
	mov	eax, DWORD PTR __Istr$[ebp]
	push	eax
	lea	ecx, DWORD PTR __Ok$[ebp]
	call	??0sentry@?$basic_istream@DU?$char_traits@D@std@@@std@@QAE@AAV12@_N@Z ; std::basic_istream<char,std::char_traits<char> >::sentry::sentry
	mov	DWORD PTR __$EHRec$[ebp+12], 0

; 82   : 
; 83   : 	if (_Ok)

	lea	ecx, DWORD PTR __Ok$[ebp]
	call	??Bsentry@?$basic_istream@DU?$char_traits@D@std@@@std@@QBE_NXZ ; std::basic_istream<char,std::char_traits<char> >::sentry::operator bool
	movzx	ecx, al
	test	ecx, ecx
	je	$LN12@getline

; 84   : 		{	// state okay, extract characters
; 85   : 		_TRY_IO_BEGIN

	mov	BYTE PTR __$EHRec$[ebp+12], 1

; 86   : 		_Str.erase();

	push	0
	mov	ecx, DWORD PTR __Str$[ebp]
	call	?erase@?$basic_string@DU?$char_traits@D@std@@V?$allocator@D@2@@std@@QAEAAV12@I@Z ; std::basic_string<char,std::char_traits<char>,std::allocator<char> >::erase

; 87   : 		const typename _Traits::int_type _Metadelim =
; 88   : 			_Traits::to_int_type(_Delim);

	lea	edx, DWORD PTR __Delim$[ebp]
	push	edx
	call	?to_int_type@?$char_traits@D@std@@SAHABD@Z ; std::char_traits<char>::to_int_type
	add	esp, 4
	mov	DWORD PTR __Metadelim$3[ebp], eax

; 89   : 		typename _Traits::int_type _Meta = _Istr.rdbuf()->sgetc();

	mov	eax, DWORD PTR __Istr$[ebp]
	mov	ecx, DWORD PTR [eax]
	mov	edx, DWORD PTR __Istr$[ebp]
	add	edx, DWORD PTR [ecx+4]
	mov	ecx, edx
	call	DWORD PTR __imp_?rdbuf@?$basic_ios@DU?$char_traits@D@std@@@std@@QBEPAV?$basic_streambuf@DU?$char_traits@D@std@@@2@XZ
	mov	DWORD PTR tv65[ebp], eax
	mov	ecx, DWORD PTR tv65[ebp]
	call	DWORD PTR __imp_?sgetc@?$basic_streambuf@DU?$char_traits@D@std@@@std@@QAEHXZ
	mov	DWORD PTR tv199[ebp], eax
	mov	eax, DWORD PTR tv199[ebp]
	mov	DWORD PTR __Meta$5[ebp], eax
	jmp	SHORT $LN10@getline
$LN9@getline:

; 90   : 
; 91   : 		for (; ; _Meta = _Istr.rdbuf()->snextc())

	mov	ecx, DWORD PTR __Istr$[ebp]
	mov	edx, DWORD PTR [ecx]
	mov	ecx, DWORD PTR __Istr$[ebp]
	add	ecx, DWORD PTR [edx+4]
	call	DWORD PTR __imp_?rdbuf@?$basic_ios@DU?$char_traits@D@std@@@std@@QBEPAV?$basic_streambuf@DU?$char_traits@D@std@@@2@XZ
	mov	DWORD PTR tv200[ebp], eax
	mov	ecx, DWORD PTR tv200[ebp]
	call	DWORD PTR __imp_?snextc@?$basic_streambuf@DU?$char_traits@D@std@@@std@@QAEHXZ
	mov	DWORD PTR tv201[ebp], eax
	mov	eax, DWORD PTR tv201[ebp]
	mov	DWORD PTR __Meta$5[ebp], eax
$LN10@getline:

; 92   : 			if (_Traits::eq_int_type(_Traits::eof(), _Meta))

	call	?eof@?$char_traits@D@std@@SAHXZ		; std::char_traits<char>::eof
	mov	DWORD PTR $T4[ebp], eax
	lea	ecx, DWORD PTR __Meta$5[ebp]
	push	ecx
	lea	edx, DWORD PTR $T4[ebp]
	push	edx
	call	?eq_int_type@?$char_traits@D@std@@SA_NABH0@Z ; std::char_traits<char>::eq_int_type
	add	esp, 8
	movzx	eax, al
	test	eax, eax
	je	SHORT $LN7@getline

; 93   : 				{	// end of file, quit
; 94   : 				_State |= ios_base::eofbit;

	mov	ecx, DWORD PTR __State$[ebp]
	or	ecx, 1
	mov	DWORD PTR __State$[ebp], ecx

; 95   : 				break;

	jmp	$LN8@getline
	jmp	SHORT $LN6@getline
$LN7@getline:

; 96   : 				}
; 97   : 			else if (_Traits::eq_int_type(_Meta, _Metadelim))

	lea	edx, DWORD PTR __Metadelim$3[ebp]
	push	edx
	lea	eax, DWORD PTR __Meta$5[ebp]
	push	eax
	call	?eq_int_type@?$char_traits@D@std@@SA_NABH0@Z ; std::char_traits<char>::eq_int_type
	add	esp, 8
	movzx	ecx, al
	test	ecx, ecx
	je	SHORT $LN5@getline

; 98   : 				{	// got a delimiter, discard it and quit
; 99   : 				_Changed = true;

	mov	BYTE PTR __Changed$[ebp], 1

; 100  : 				_Istr.rdbuf()->sbumpc();

	mov	edx, DWORD PTR __Istr$[ebp]
	mov	eax, DWORD PTR [edx]
	mov	ecx, DWORD PTR __Istr$[ebp]
	add	ecx, DWORD PTR [eax+4]
	call	DWORD PTR __imp_?rdbuf@?$basic_ios@DU?$char_traits@D@std@@@std@@QBEPAV?$basic_streambuf@DU?$char_traits@D@std@@@2@XZ
	mov	DWORD PTR tv202[ebp], eax
	mov	ecx, DWORD PTR tv202[ebp]
	call	DWORD PTR __imp_?sbumpc@?$basic_streambuf@DU?$char_traits@D@std@@@std@@QAEHXZ

; 101  : 				break;

	jmp	SHORT $LN8@getline
	jmp	SHORT $LN6@getline
$LN5@getline:

; 102  : 				}
; 103  : 			else if (_Str.max_size() <= _Str.size())

	mov	ecx, DWORD PTR __Str$[ebp]
	call	?size@?$basic_string@DU?$char_traits@D@std@@V?$allocator@D@2@@std@@QBEIXZ ; std::basic_string<char,std::char_traits<char>,std::allocator<char> >::size
	mov	esi, eax
	mov	ecx, DWORD PTR __Str$[ebp]
	call	?max_size@?$basic_string@DU?$char_traits@D@std@@V?$allocator@D@2@@std@@QBEIXZ ; std::basic_string<char,std::char_traits<char>,std::allocator<char> >::max_size
	cmp	eax, esi
	ja	SHORT $LN3@getline

; 104  : 				{	// string too large, quit
; 105  : 				_State |= ios_base::failbit;

	mov	ecx, DWORD PTR __State$[ebp]
	or	ecx, 2
	mov	DWORD PTR __State$[ebp], ecx

; 106  : 				break;

	jmp	SHORT $LN8@getline

; 107  : 				}
; 108  : 			else

	jmp	SHORT $LN6@getline
$LN3@getline:

; 109  : 				{	// got a character, add it to string
; 110  : 				_Str += _Traits::to_char_type(_Meta);

	lea	edx, DWORD PTR __Meta$5[ebp]
	push	edx
	call	?to_char_type@?$char_traits@D@std@@SADABH@Z ; std::char_traits<char>::to_char_type
	add	esp, 4
	movzx	eax, al
	push	eax
	mov	ecx, DWORD PTR __Str$[ebp]
	call	??Y?$basic_string@DU?$char_traits@D@std@@V?$allocator@D@2@@std@@QAEAAV01@D@Z ; std::basic_string<char,std::char_traits<char>,std::allocator<char> >::operator+=

; 111  : 				_Changed = true;

	mov	BYTE PTR __Changed$[ebp], 1
$LN6@getline:

; 112  : 				}

	jmp	$LN9@getline
$LN8@getline:
	jmp	SHORT $LN15@getline
__catch$??$getline@DU?$char_traits@D@std@@V?$allocator@D@2@@std@@YAAAV?$basic_istream@DU?$char_traits@D@std@@@0@$$QAV10@AAV?$basic_string@DU?$char_traits@D@std@@V?$allocator@D@2@@0@D@Z$0:

; 113  : 		_CATCH_IO_(_Istr)

	push	1
	push	4
	mov	ecx, DWORD PTR __Istr$[ebp]
	mov	edx, DWORD PTR [ecx]
	mov	ecx, DWORD PTR __Istr$[ebp]
	add	ecx, DWORD PTR [edx+4]
	call	DWORD PTR __imp_?setstate@?$basic_ios@DU?$char_traits@D@std@@@std@@QAEXH_N@Z
	mov	eax, $LN19@getline
	ret	0
$LN15@getline:
	mov	DWORD PTR __$EHRec$[ebp+12], 0
	jmp	SHORT $LN12@getline
$LN19@getline:
	mov	DWORD PTR __$EHRec$[ebp+12], 0
$LN12@getline:

; 114  : 		}
; 115  : 
; 116  : 	if (!_Changed)

	movzx	eax, BYTE PTR __Changed$[ebp]
	test	eax, eax
	jne	SHORT $LN1@getline

; 117  : 		_State |= ios_base::failbit;

	mov	ecx, DWORD PTR __State$[ebp]
	or	ecx, 2
	mov	DWORD PTR __State$[ebp], ecx
$LN1@getline:

; 118  : 	_Istr.setstate(_State);

	push	0
	mov	edx, DWORD PTR __State$[ebp]
	push	edx
	mov	eax, DWORD PTR __Istr$[ebp]
	mov	ecx, DWORD PTR [eax]
	mov	edx, DWORD PTR __Istr$[ebp]
	add	edx, DWORD PTR [ecx+4]
	mov	ecx, edx
	call	DWORD PTR __imp_?setstate@?$basic_ios@DU?$char_traits@D@std@@@std@@QAEXH_N@Z

; 119  : 	return (_Istr);

	mov	eax, DWORD PTR __Istr$[ebp]
	mov	DWORD PTR $T2[ebp], eax
	mov	DWORD PTR __$EHRec$[ebp+12], -1
	lea	ecx, DWORD PTR __Ok$[ebp]
	call	??1sentry@?$basic_istream@DU?$char_traits@D@std@@@std@@QAE@XZ
	mov	eax, DWORD PTR $T2[ebp]

; 120  : 	}

	mov	ecx, DWORD PTR __$EHRec$[ebp+4]
	mov	DWORD PTR fs:0, ecx
	pop	ecx
	pop	edi
	pop	esi
	pop	ebx
	mov	esp, ebp
	pop	ebp
	ret	0
_TEXT	ENDS
;	COMDAT text$x
text$x	SEGMENT
__unwindfunclet$??$getline@DU?$char_traits@D@std@@V?$allocator@D@2@@std@@YAAAV?$basic_istream@DU?$char_traits@D@std@@@0@$$QAV10@AAV?$basic_string@DU?$char_traits@D@std@@V?$allocator@D@2@@0@D@Z$2:
	lea	ecx, DWORD PTR __Ok$[ebp]
	jmp	??1sentry@?$basic_istream@DU?$char_traits@D@std@@@std@@QAE@XZ
__ehhandler$??$getline@DU?$char_traits@D@std@@V?$allocator@D@2@@std@@YAAAV?$basic_istream@DU?$char_traits@D@std@@@0@$$QAV10@AAV?$basic_string@DU?$char_traits@D@std@@V?$allocator@D@2@@0@D@Z:
	mov	edx, DWORD PTR [esp+8]
	lea	eax, DWORD PTR [edx+12]
	mov	ecx, DWORD PTR [edx-72]
	xor	ecx, eax
	call	@__security_check_cookie@4
	mov	eax, OFFSET __ehfuncinfo$??$getline@DU?$char_traits@D@std@@V?$allocator@D@2@@std@@YAAAV?$basic_istream@DU?$char_traits@D@std@@@0@$$QAV10@AAV?$basic_string@DU?$char_traits@D@std@@V?$allocator@D@2@@0@D@Z
	jmp	___CxxFrameHandler3
text$x	ENDS
??$getline@DU?$char_traits@D@std@@V?$allocator@D@2@@std@@YAAAV?$basic_istream@DU?$char_traits@D@std@@@0@$$QAV10@AAV?$basic_string@DU?$char_traits@D@std@@V?$allocator@D@2@@0@D@Z ENDP ; std::getline<char,std::char_traits<char>,std::allocator<char> >
; Function compile flags: /Odtp
; File c:\program files (x86)\microsoft visual studio 12.0\vc\include\string
;	COMDAT ??$getline@DU?$char_traits@D@std@@V?$allocator@D@2@@std@@YAAAV?$basic_istream@DU?$char_traits@D@std@@@0@AAV10@AAV?$basic_string@DU?$char_traits@D@std@@V?$allocator@D@2@@0@D@Z
_TEXT	SEGMENT
__Istr$ = 8						; size = 4
__Str$ = 12						; size = 4
__Delim$ = 16						; size = 1
??$getline@DU?$char_traits@D@std@@V?$allocator@D@2@@std@@YAAAV?$basic_istream@DU?$char_traits@D@std@@@0@AAV10@AAV?$basic_string@DU?$char_traits@D@std@@V?$allocator@D@2@@0@D@Z PROC ; std::getline<char,std::char_traits<char>,std::allocator<char> >, COMDAT

; 149  : 	{	// get characters into string, discard delimiter

	push	ebp
	mov	ebp, esp

; 150  : 	return (getline(_STD move(_Istr), _Str, _Delim));

	movzx	eax, BYTE PTR __Delim$[ebp]
	push	eax
	mov	ecx, DWORD PTR __Str$[ebp]
	push	ecx
	mov	edx, DWORD PTR __Istr$[ebp]
	push	edx
	call	??$move@AAV?$basic_istream@DU?$char_traits@D@std@@@std@@@std@@YA$$QAV?$basic_istream@DU?$char_traits@D@std@@@0@AAV10@@Z ; std::move<std::basic_istream<char,std::char_traits<char> > &>
	add	esp, 4
	push	eax
	call	??$getline@DU?$char_traits@D@std@@V?$allocator@D@2@@std@@YAAAV?$basic_istream@DU?$char_traits@D@std@@@0@$$QAV10@AAV?$basic_string@DU?$char_traits@D@std@@V?$allocator@D@2@@0@D@Z ; std::getline<char,std::char_traits<char>,std::allocator<char> >
	add	esp, 12					; 0000000cH

; 151  : 	}

	pop	ebp
	ret	0
??$getline@DU?$char_traits@D@std@@V?$allocator@D@2@@std@@YAAAV?$basic_istream@DU?$char_traits@D@std@@@0@AAV10@AAV?$basic_string@DU?$char_traits@D@std@@V?$allocator@D@2@@0@D@Z ENDP ; std::getline<char,std::char_traits<char>,std::allocator<char> >
_TEXT	ENDS
; Function compile flags: /Odtp
; File h:\source\hg\client\code_core\jsoncpp-src-0.5.0\src\lib_json\json_reader.cpp
;	COMDAT ?codePointToUTF8@Json@@YA?AV?$basic_string@DU?$char_traits@D@std@@V?$allocator@D@2@@std@@I@Z
_TEXT	SEGMENT
$T2 = -44						; size = 4
_result$ = -40						; size = 24
__$ArrayPad$ = -16					; size = 4
__$EHRec$ = -12						; size = 12
___$ReturnUdt$ = 8					; size = 4
_cp$ = 12						; size = 4
?codePointToUTF8@Json@@YA?AV?$basic_string@DU?$char_traits@D@std@@V?$allocator@D@2@@std@@I@Z PROC ; Json::codePointToUTF8, COMDAT

; 70   : {

	push	ebp
	mov	ebp, esp
	push	-1
	push	__ehhandler$?codePointToUTF8@Json@@YA?AV?$basic_string@DU?$char_traits@D@std@@V?$allocator@D@2@@std@@I@Z
	mov	eax, DWORD PTR fs:0
	push	eax
	sub	esp, 32					; 00000020H
	mov	eax, DWORD PTR ___security_cookie
	xor	eax, ebp
	mov	DWORD PTR __$ArrayPad$[ebp], eax
	push	ebx
	push	eax
	lea	eax, DWORD PTR __$EHRec$[ebp]
	mov	DWORD PTR fs:0, eax
	mov	DWORD PTR $T2[ebp], 0

; 71   :    std::string result;

	lea	ecx, DWORD PTR _result$[ebp]
	call	??0?$basic_string@DU?$char_traits@D@std@@V?$allocator@D@2@@std@@QAE@XZ ; std::basic_string<char,std::char_traits<char>,std::allocator<char> >::basic_string<char,std::char_traits<char>,std::allocator<char> >
	mov	DWORD PTR __$EHRec$[ebp+8], 0

; 72   :    
; 73   :    // based on description from http://en.wikipedia.org/wiki/UTF-8
; 74   : 
; 75   :    if (cp <= 0x7f) 

	cmp	DWORD PTR _cp$[ebp], 127		; 0000007fH
	ja	SHORT $LN7@codePointT

; 76   :    {
; 77   :       result.resize(1);

	push	1
	lea	ecx, DWORD PTR _result$[ebp]
	call	?resize@?$basic_string@DU?$char_traits@D@std@@V?$allocator@D@2@@std@@QAEXI@Z ; std::basic_string<char,std::char_traits<char>,std::allocator<char> >::resize

; 78   :       result[0] = static_cast<char>(cp);

	push	0
	lea	ecx, DWORD PTR _result$[ebp]
	call	??A?$basic_string@DU?$char_traits@D@std@@V?$allocator@D@2@@std@@QAEAADI@Z ; std::basic_string<char,std::char_traits<char>,std::allocator<char> >::operator[]
	mov	cl, BYTE PTR _cp$[ebp]
	mov	BYTE PTR [eax], cl
	jmp	$LN6@codePointT
$LN7@codePointT:

; 79   :    } 
; 80   :    else if (cp <= 0x7FF) 

	cmp	DWORD PTR _cp$[ebp], 2047		; 000007ffH
	ja	SHORT $LN5@codePointT

; 81   :    {
; 82   :       result.resize(2);

	push	2
	lea	ecx, DWORD PTR _result$[ebp]
	call	?resize@?$basic_string@DU?$char_traits@D@std@@V?$allocator@D@2@@std@@QAEXI@Z ; std::basic_string<char,std::char_traits<char>,std::allocator<char> >::resize

; 83   :       result[1] = static_cast<char>(0x80 | (0x3f & cp));

	mov	ebx, DWORD PTR _cp$[ebp]
	and	ebx, 63					; 0000003fH
	or	ebx, 128				; 00000080H
	push	1
	lea	ecx, DWORD PTR _result$[ebp]
	call	??A?$basic_string@DU?$char_traits@D@std@@V?$allocator@D@2@@std@@QAEAADI@Z ; std::basic_string<char,std::char_traits<char>,std::allocator<char> >::operator[]
	mov	BYTE PTR [eax], bl

; 84   :       result[0] = static_cast<char>(0xC0 | (0x1f & (cp >> 6)));

	mov	ebx, DWORD PTR _cp$[ebp]
	shr	ebx, 6
	and	ebx, 31					; 0000001fH
	or	ebx, 192				; 000000c0H
	push	0
	lea	ecx, DWORD PTR _result$[ebp]
	call	??A?$basic_string@DU?$char_traits@D@std@@V?$allocator@D@2@@std@@QAEAADI@Z ; std::basic_string<char,std::char_traits<char>,std::allocator<char> >::operator[]
	mov	BYTE PTR [eax], bl
	jmp	$LN6@codePointT
$LN5@codePointT:

; 85   :    } 
; 86   :    else if (cp <= 0xFFFF) 

	cmp	DWORD PTR _cp$[ebp], 65535		; 0000ffffH
	ja	SHORT $LN3@codePointT

; 87   :    {
; 88   :       result.resize(3);

	push	3
	lea	ecx, DWORD PTR _result$[ebp]
	call	?resize@?$basic_string@DU?$char_traits@D@std@@V?$allocator@D@2@@std@@QAEXI@Z ; std::basic_string<char,std::char_traits<char>,std::allocator<char> >::resize

; 89   :       result[2] = static_cast<char>(0x80 | (0x3f & cp));

	mov	ebx, DWORD PTR _cp$[ebp]
	and	ebx, 63					; 0000003fH
	or	ebx, 128				; 00000080H
	push	2
	lea	ecx, DWORD PTR _result$[ebp]
	call	??A?$basic_string@DU?$char_traits@D@std@@V?$allocator@D@2@@std@@QAEAADI@Z ; std::basic_string<char,std::char_traits<char>,std::allocator<char> >::operator[]
	mov	BYTE PTR [eax], bl

; 90   :       result[1] = 0x80 | static_cast<char>((0x3f & (cp >> 6)));

	mov	edx, DWORD PTR _cp$[ebp]
	shr	edx, 6
	and	edx, 63					; 0000003fH
	movsx	ebx, dl
	or	ebx, 128				; 00000080H
	push	1
	lea	ecx, DWORD PTR _result$[ebp]
	call	??A?$basic_string@DU?$char_traits@D@std@@V?$allocator@D@2@@std@@QAEAADI@Z ; std::basic_string<char,std::char_traits<char>,std::allocator<char> >::operator[]
	mov	BYTE PTR [eax], bl

; 91   :       result[0] = 0xE0 | static_cast<char>((0xf & (cp >> 12)));

	mov	eax, DWORD PTR _cp$[ebp]
	shr	eax, 12					; 0000000cH
	and	eax, 15					; 0000000fH
	movsx	ebx, al
	or	ebx, 224				; 000000e0H
	push	0
	lea	ecx, DWORD PTR _result$[ebp]
	call	??A?$basic_string@DU?$char_traits@D@std@@V?$allocator@D@2@@std@@QAEAADI@Z ; std::basic_string<char,std::char_traits<char>,std::allocator<char> >::operator[]
	mov	BYTE PTR [eax], bl
	jmp	SHORT $LN6@codePointT
$LN3@codePointT:

; 92   :    }
; 93   :    else if (cp <= 0x10FFFF) 

	cmp	DWORD PTR _cp$[ebp], 1114111		; 0010ffffH
	ja	SHORT $LN6@codePointT

; 94   :    {
; 95   :       result.resize(4);

	push	4
	lea	ecx, DWORD PTR _result$[ebp]
	call	?resize@?$basic_string@DU?$char_traits@D@std@@V?$allocator@D@2@@std@@QAEXI@Z ; std::basic_string<char,std::char_traits<char>,std::allocator<char> >::resize

; 96   :       result[3] = static_cast<char>(0x80 | (0x3f & cp));

	mov	ebx, DWORD PTR _cp$[ebp]
	and	ebx, 63					; 0000003fH
	or	ebx, 128				; 00000080H
	push	3
	lea	ecx, DWORD PTR _result$[ebp]
	call	??A?$basic_string@DU?$char_traits@D@std@@V?$allocator@D@2@@std@@QAEAADI@Z ; std::basic_string<char,std::char_traits<char>,std::allocator<char> >::operator[]
	mov	BYTE PTR [eax], bl

; 97   :       result[2] = static_cast<char>(0x80 | (0x3f & (cp >> 6)));

	mov	ebx, DWORD PTR _cp$[ebp]
	shr	ebx, 6
	and	ebx, 63					; 0000003fH
	or	ebx, 128				; 00000080H
	push	2
	lea	ecx, DWORD PTR _result$[ebp]
	call	??A?$basic_string@DU?$char_traits@D@std@@V?$allocator@D@2@@std@@QAEAADI@Z ; std::basic_string<char,std::char_traits<char>,std::allocator<char> >::operator[]
	mov	BYTE PTR [eax], bl

; 98   :       result[1] = static_cast<char>(0x80 | (0x3f & (cp >> 12)));

	mov	ebx, DWORD PTR _cp$[ebp]
	shr	ebx, 12					; 0000000cH
	and	ebx, 63					; 0000003fH
	or	ebx, 128				; 00000080H
	push	1
	lea	ecx, DWORD PTR _result$[ebp]
	call	??A?$basic_string@DU?$char_traits@D@std@@V?$allocator@D@2@@std@@QAEAADI@Z ; std::basic_string<char,std::char_traits<char>,std::allocator<char> >::operator[]
	mov	BYTE PTR [eax], bl

; 99   :       result[0] = static_cast<char>(0xF0 | (0x7 & (cp >> 18)));

	mov	ebx, DWORD PTR _cp$[ebp]
	shr	ebx, 18					; 00000012H
	and	ebx, 7
	or	ebx, 240				; 000000f0H
	push	0
	lea	ecx, DWORD PTR _result$[ebp]
	call	??A?$basic_string@DU?$char_traits@D@std@@V?$allocator@D@2@@std@@QAEAADI@Z ; std::basic_string<char,std::char_traits<char>,std::allocator<char> >::operator[]
	mov	BYTE PTR [eax], bl
$LN6@codePointT:

; 100  :    }
; 101  : 
; 102  :    return result;

	lea	ecx, DWORD PTR _result$[ebp]
	push	ecx
	mov	ecx, DWORD PTR ___$ReturnUdt$[ebp]
	call	??0?$basic_string@DU?$char_traits@D@std@@V?$allocator@D@2@@std@@QAE@$$QAV01@@Z ; std::basic_string<char,std::char_traits<char>,std::allocator<char> >::basic_string<char,std::char_traits<char>,std::allocator<char> >
	mov	edx, DWORD PTR $T2[ebp]
	or	edx, 1
	mov	DWORD PTR $T2[ebp], edx
	mov	DWORD PTR __$EHRec$[ebp+8], -1
	lea	ecx, DWORD PTR _result$[ebp]
	call	??1?$basic_string@DU?$char_traits@D@std@@V?$allocator@D@2@@std@@QAE@XZ ; std::basic_string<char,std::char_traits<char>,std::allocator<char> >::~basic_string<char,std::char_traits<char>,std::allocator<char> >
	mov	eax, DWORD PTR ___$ReturnUdt$[ebp]

; 103  : }

	mov	ecx, DWORD PTR __$EHRec$[ebp]
	mov	DWORD PTR fs:0, ecx
	pop	ecx
	pop	ebx
	mov	ecx, DWORD PTR __$ArrayPad$[ebp]
	xor	ecx, ebp
	call	@__security_check_cookie@4
	mov	esp, ebp
	pop	ebp
	ret	0
_TEXT	ENDS
;	COMDAT text$x
text$x	SEGMENT
__unwindfunclet$?codePointToUTF8@Json@@YA?AV?$basic_string@DU?$char_traits@D@std@@V?$allocator@D@2@@std@@I@Z$0:
	lea	ecx, DWORD PTR _result$[ebp]
	jmp	??1?$basic_string@DU?$char_traits@D@std@@V?$allocator@D@2@@std@@QAE@XZ ; std::basic_string<char,std::char_traits<char>,std::allocator<char> >::~basic_string<char,std::char_traits<char>,std::allocator<char> >
__ehhandler$?codePointToUTF8@Json@@YA?AV?$basic_string@DU?$char_traits@D@std@@V?$allocator@D@2@@std@@I@Z:
	mov	edx, DWORD PTR [esp+8]
	lea	eax, DWORD PTR [edx+12]
	mov	ecx, DWORD PTR [edx-40]
	xor	ecx, eax
	call	@__security_check_cookie@4
	mov	ecx, DWORD PTR [edx-4]
	xor	ecx, eax
	call	@__security_check_cookie@4
	mov	eax, OFFSET __ehfuncinfo$?codePointToUTF8@Json@@YA?AV?$basic_string@DU?$char_traits@D@std@@V?$allocator@D@2@@std@@I@Z
	jmp	___CxxFrameHandler3
text$x	ENDS
?codePointToUTF8@Json@@YA?AV?$basic_string@DU?$char_traits@D@std@@V?$allocator@D@2@@std@@I@Z ENDP ; Json::codePointToUTF8
; Function compile flags: /Odtp
; File h:\source\hg\client\code_core\jsoncpp-src-0.5.0\src\lib_json\json_reader.cpp
;	COMDAT ?containsNewLine@Json@@YA_NPBD0@Z
_TEXT	SEGMENT
_begin$ = 8						; size = 4
_end$ = 12						; size = 4
?containsNewLine@Json@@YA_NPBD0@Z PROC			; Json::containsNewLine, COMDAT

; 62   : {

	push	ebp
	mov	ebp, esp

; 63   :    for ( ;begin < end; ++begin )

	jmp	SHORT $LN5@containsNe
$LN4@containsNe:
	mov	eax, DWORD PTR _begin$[ebp]
	add	eax, 1
	mov	DWORD PTR _begin$[ebp], eax
$LN5@containsNe:
	mov	ecx, DWORD PTR _begin$[ebp]
	cmp	ecx, DWORD PTR _end$[ebp]
	jae	SHORT $LN3@containsNe

; 64   :       if ( *begin == '\n'  ||  *begin == '\r' )

	mov	edx, DWORD PTR _begin$[ebp]
	movsx	eax, BYTE PTR [edx]
	cmp	eax, 10					; 0000000aH
	je	SHORT $LN1@containsNe
	mov	ecx, DWORD PTR _begin$[ebp]
	movsx	edx, BYTE PTR [ecx]
	cmp	edx, 13					; 0000000dH
	jne	SHORT $LN2@containsNe
$LN1@containsNe:

; 65   :          return true;

	mov	al, 1
	jmp	SHORT $LN6@containsNe
$LN2@containsNe:

; 66   :    return false;

	jmp	SHORT $LN4@containsNe
$LN3@containsNe:
	xor	al, al
$LN6@containsNe:

; 67   : }

	pop	ebp
	ret	0
?containsNewLine@Json@@YA_NPBD0@Z ENDP			; Json::containsNewLine
_TEXT	ENDS
; Function compile flags: /Odtp
; File h:\source\hg\client\code_core\jsoncpp-src-0.5.0\src\lib_json\json_reader.cpp
;	COMDAT ?in@Json@@YA_NDDDDDD@Z
_TEXT	SEGMENT
tv79 = -4						; size = 4
_c$ = 8							; size = 1
_c1$ = 12						; size = 1
_c2$ = 16						; size = 1
_c3$ = 20						; size = 1
_c4$ = 24						; size = 1
_c5$ = 28						; size = 1
?in@Json@@YA_NDDDDDD@Z PROC				; Json::in, COMDAT

; 54   : {

	push	ebp
	mov	ebp, esp
	push	ecx

; 55   :    return c == c1  ||  c == c2  ||  c == c3  ||  c == c4  ||  c == c5;

	movsx	eax, BYTE PTR _c$[ebp]
	movsx	ecx, BYTE PTR _c1$[ebp]
	cmp	eax, ecx
	je	SHORT $LN3@in
	movsx	edx, BYTE PTR _c$[ebp]
	movsx	eax, BYTE PTR _c2$[ebp]
	cmp	edx, eax
	je	SHORT $LN3@in
	movsx	ecx, BYTE PTR _c$[ebp]
	movsx	edx, BYTE PTR _c3$[ebp]
	cmp	ecx, edx
	je	SHORT $LN3@in
	movsx	eax, BYTE PTR _c$[ebp]
	movsx	ecx, BYTE PTR _c4$[ebp]
	cmp	eax, ecx
	je	SHORT $LN3@in
	movsx	edx, BYTE PTR _c$[ebp]
	movsx	eax, BYTE PTR _c5$[ebp]
	cmp	edx, eax
	je	SHORT $LN3@in
	mov	DWORD PTR tv79[ebp], 0
	jmp	SHORT $LN4@in
$LN3@in:
	mov	DWORD PTR tv79[ebp], 1
$LN4@in:
	mov	al, BYTE PTR tv79[ebp]

; 56   : }

	mov	esp, ebp
	pop	ebp
	ret	0
?in@Json@@YA_NDDDDDD@Z ENDP				; Json::in
_TEXT	ENDS
; Function compile flags: /Odtp
; File h:\source\hg\client\code_core\jsoncpp-src-0.5.0\src\lib_json\json_reader.cpp
;	COMDAT ?in@Json@@YA_NDDDDD@Z
_TEXT	SEGMENT
tv76 = -4						; size = 4
_c$ = 8							; size = 1
_c1$ = 12						; size = 1
_c2$ = 16						; size = 1
_c3$ = 20						; size = 1
_c4$ = 24						; size = 1
?in@Json@@YA_NDDDDD@Z PROC				; Json::in, COMDAT

; 48   : {

	push	ebp
	mov	ebp, esp
	push	ecx

; 49   :    return c == c1  ||  c == c2  ||  c == c3  ||  c == c4;

	movsx	eax, BYTE PTR _c$[ebp]
	movsx	ecx, BYTE PTR _c1$[ebp]
	cmp	eax, ecx
	je	SHORT $LN3@in
	movsx	edx, BYTE PTR _c$[ebp]
	movsx	eax, BYTE PTR _c2$[ebp]
	cmp	edx, eax
	je	SHORT $LN3@in
	movsx	ecx, BYTE PTR _c$[ebp]
	movsx	edx, BYTE PTR _c3$[ebp]
	cmp	ecx, edx
	je	SHORT $LN3@in
	movsx	eax, BYTE PTR _c$[ebp]
	movsx	ecx, BYTE PTR _c4$[ebp]
	cmp	eax, ecx
	je	SHORT $LN3@in
	mov	DWORD PTR tv76[ebp], 0
	jmp	SHORT $LN4@in
$LN3@in:
	mov	DWORD PTR tv76[ebp], 1
$LN4@in:
	mov	al, BYTE PTR tv76[ebp]

; 50   : }

	mov	esp, ebp
	pop	ebp
	ret	0
?in@Json@@YA_NDDDDD@Z ENDP				; Json::in
_TEXT	ENDS
; Function compile flags: /Odtp
; File h:\source\hg\client\code_core\jsoncpp-src-0.5.0\src\lib_json\json_reader.cpp
;	COMDAT ??5Json@@YAAAV?$basic_istream@DU?$char_traits@D@std@@@std@@AAV12@AAVValue@0@@Z
_TEXT	SEGMENT
$T2 = -180						; size = 12
tv65 = -168						; size = 4
tv85 = -164						; size = 4
$T3 = -160						; size = 4
_ok$ = -153						; size = 1
_reader$ = -152						; size = 112
$T4 = -40						; size = 24
__$ArrayPad$ = -16					; size = 4
__$EHRec$ = -12						; size = 12
_sin$ = 8						; size = 4
_root$ = 12						; size = 4
??5Json@@YAAAV?$basic_istream@DU?$char_traits@D@std@@@std@@AAV12@AAVValue@0@@Z PROC ; Json::operator>>, COMDAT

; 876  : {

	push	ebp
	mov	ebp, esp
	push	-1
	push	__ehhandler$??5Json@@YAAAV?$basic_istream@DU?$char_traits@D@std@@@std@@AAV12@AAVValue@0@@Z
	mov	eax, DWORD PTR fs:0
	push	eax
	sub	esp, 168				; 000000a8H
	mov	eax, DWORD PTR ___security_cookie
	xor	eax, ebp
	mov	DWORD PTR __$ArrayPad$[ebp], eax
	push	eax
	lea	eax, DWORD PTR __$EHRec$[ebp]
	mov	DWORD PTR fs:0, eax

; 877  :     Json::Reader reader;

	lea	ecx, DWORD PTR _reader$[ebp]
	call	??0Reader@Json@@QAE@XZ			; Json::Reader::Reader
	mov	DWORD PTR __$EHRec$[ebp+8], 0

; 878  :     bool ok = reader.parse(sin, root, true);

	push	1
	mov	eax, DWORD PTR _root$[ebp]
	push	eax
	mov	ecx, DWORD PTR _sin$[ebp]
	push	ecx
	lea	ecx, DWORD PTR _reader$[ebp]
	call	?parse@Reader@Json@@QAE_NAAV?$basic_istream@DU?$char_traits@D@std@@@std@@AAVValue@2@_N@Z ; Json::Reader::parse
	mov	BYTE PTR _ok$[ebp], al

; 879  :     //JSON_ASSERT( ok );
; 880  :     if (!ok) throw std::runtime_error(reader.getFormatedErrorMessages());

	movzx	edx, BYTE PTR _ok$[ebp]
	test	edx, edx
	jne	SHORT $LN1@operator
	lea	eax, DWORD PTR $T4[ebp]
	push	eax
	lea	ecx, DWORD PTR _reader$[ebp]
	call	?getFormatedErrorMessages@Reader@Json@@QBE?AV?$basic_string@DU?$char_traits@D@std@@V?$allocator@D@2@@std@@XZ ; Json::Reader::getFormatedErrorMessages
	mov	DWORD PTR tv65[ebp], eax
	mov	ecx, DWORD PTR tv65[ebp]
	mov	DWORD PTR tv85[ebp], ecx
	mov	BYTE PTR __$EHRec$[ebp+8], 1
	mov	edx, DWORD PTR tv85[ebp]
	push	edx
	lea	ecx, DWORD PTR $T2[ebp]
	call	??0runtime_error@std@@QAE@ABV?$basic_string@DU?$char_traits@D@std@@V?$allocator@D@2@@1@@Z ; std::runtime_error::runtime_error
	push	OFFSET __TI2?AVruntime_error@std@@
	lea	eax, DWORD PTR $T2[ebp]
	push	eax
	call	__CxxThrowException@8
	mov	BYTE PTR __$EHRec$[ebp+8], 0
	lea	ecx, DWORD PTR $T4[ebp]
	call	??1?$basic_string@DU?$char_traits@D@std@@V?$allocator@D@2@@std@@QAE@XZ ; std::basic_string<char,std::char_traits<char>,std::allocator<char> >::~basic_string<char,std::char_traits<char>,std::allocator<char> >
$LN1@operator:

; 881  :     return sin;

	mov	ecx, DWORD PTR _sin$[ebp]
	mov	DWORD PTR $T3[ebp], ecx
	mov	DWORD PTR __$EHRec$[ebp+8], -1
	lea	ecx, DWORD PTR _reader$[ebp]
	call	??1Reader@Json@@QAE@XZ
	mov	eax, DWORD PTR $T3[ebp]
$LN3@operator:

; 882  : }

	mov	ecx, DWORD PTR __$EHRec$[ebp]
	mov	DWORD PTR fs:0, ecx
	pop	ecx
	mov	ecx, DWORD PTR __$ArrayPad$[ebp]
	xor	ecx, ebp
	call	@__security_check_cookie@4
	mov	esp, ebp
	pop	ebp
	ret	0
_TEXT	ENDS
;	COMDAT text$x
text$x	SEGMENT
__unwindfunclet$??5Json@@YAAAV?$basic_istream@DU?$char_traits@D@std@@@std@@AAV12@AAVValue@0@@Z$0:
	lea	ecx, DWORD PTR _reader$[ebp]
	jmp	??1Reader@Json@@QAE@XZ
__unwindfunclet$??5Json@@YAAAV?$basic_istream@DU?$char_traits@D@std@@@std@@AAV12@AAVValue@0@@Z$1:
	lea	ecx, DWORD PTR $T4[ebp]
	jmp	??1?$basic_string@DU?$char_traits@D@std@@V?$allocator@D@2@@std@@QAE@XZ ; std::basic_string<char,std::char_traits<char>,std::allocator<char> >::~basic_string<char,std::char_traits<char>,std::allocator<char> >
__ehhandler$??5Json@@YAAAV?$basic_istream@DU?$char_traits@D@std@@@std@@AAV12@AAVValue@0@@Z:
	mov	edx, DWORD PTR [esp+8]
	lea	eax, DWORD PTR [edx+12]
	mov	ecx, DWORD PTR [edx-172]
	xor	ecx, eax
	call	@__security_check_cookie@4
	mov	ecx, DWORD PTR [edx-4]
	xor	ecx, eax
	call	@__security_check_cookie@4
	mov	eax, OFFSET __ehfuncinfo$??5Json@@YAAAV?$basic_istream@DU?$char_traits@D@std@@@std@@AAV12@AAVValue@0@@Z
	jmp	___CxxFrameHandler3
text$x	ENDS
??5Json@@YAAAV?$basic_istream@DU?$char_traits@D@std@@@std@@AAV12@AAVValue@0@@Z ENDP ; Json::operator>>
; Function compile flags: /Odtp
;	COMDAT ??1Reader@Json@@QAE@XZ
_TEXT	SEGMENT
_this$ = -4						; size = 4
??1Reader@Json@@QAE@XZ PROC				; Json::Reader::~Reader, COMDAT
; _this$ = ecx
	push	ebp
	mov	ebp, esp
	push	ecx
	mov	DWORD PTR _this$[ebp], ecx
	mov	ecx, DWORD PTR _this$[ebp]
	add	ecx, 84					; 00000054H
	call	??1?$basic_string@DU?$char_traits@D@std@@V?$allocator@D@2@@std@@QAE@XZ ; std::basic_string<char,std::char_traits<char>,std::allocator<char> >::~basic_string<char,std::char_traits<char>,std::allocator<char> >
	mov	ecx, DWORD PTR _this$[ebp]
	add	ecx, 40					; 00000028H
	call	??1?$basic_string@DU?$char_traits@D@std@@V?$allocator@D@2@@std@@QAE@XZ ; std::basic_string<char,std::char_traits<char>,std::allocator<char> >::~basic_string<char,std::char_traits<char>,std::allocator<char> >
	mov	ecx, DWORD PTR _this$[ebp]
	add	ecx, 20					; 00000014H
	call	??1?$deque@VErrorInfo@Reader@Json@@V?$allocator@VErrorInfo@Reader@Json@@@std@@@std@@QAE@XZ ; std::deque<Json::Reader::ErrorInfo,std::allocator<Json::Reader::ErrorInfo> >::~deque<Json::Reader::ErrorInfo,std::allocator<Json::Reader::ErrorInfo> >
	mov	ecx, DWORD PTR _this$[ebp]
	call	??1?$stack@PAVValue@Json@@V?$deque@PAVValue@Json@@V?$allocator@PAVValue@Json@@@std@@@std@@@std@@QAE@XZ
	mov	esp, ebp
	pop	ebp
	ret	0
??1Reader@Json@@QAE@XZ ENDP				; Json::Reader::~Reader
_TEXT	ENDS
; Function compile flags: /Odtp
; File c:\program files (x86)\microsoft visual studio 12.0\vc\include\deque
;	COMDAT ?_Tidy@?$deque@VErrorInfo@Reader@Json@@V?$allocator@VErrorInfo@Reader@Json@@@std@@@std@@IAEXXZ
_TEXT	SEGMENT
__Block$1 = -12						; size = 4
_this$ = -8						; size = 4
$T2 = -4						; size = 1
$T3 = -3						; size = 1
$T4 = -2						; size = 1
__Almap$ = -1						; size = 1
?_Tidy@?$deque@VErrorInfo@Reader@Json@@V?$allocator@VErrorInfo@Reader@Json@@@std@@@std@@IAEXXZ PROC ; std::deque<Json::Reader::ErrorInfo,std::allocator<Json::Reader::ErrorInfo> >::_Tidy, COMDAT
; _this$ = ecx

; 1827 : 		{	// free all storage

	push	ebp
	mov	ebp, esp
	sub	esp, 12					; 0000000cH
	mov	DWORD PTR _this$[ebp], ecx

; 1828 : 		_Alpty _Almap(this->_Getal());

	lea	eax, DWORD PTR $T4[ebp]
	push	eax
	mov	ecx, DWORD PTR _this$[ebp]
	call	?_Getal@?$_Deque_alloc@$0A@U?$_Deque_base_types@VErrorInfo@Reader@Json@@V?$allocator@VErrorInfo@Reader@Json@@@std@@@std@@@std@@QBE?AU?$_Wrap_alloc@V?$allocator@VErrorInfo@Reader@Json@@@std@@@2@XZ ; std::_Deque_alloc<0,std::_Deque_base_types<Json::Reader::ErrorInfo,std::allocator<Json::Reader::ErrorInfo> > >::_Getal
	push	eax
	lea	ecx, DWORD PTR __Almap$[ebp]
	call	??$?0U?$_Wrap_alloc@V?$allocator@VErrorInfo@Reader@Json@@@std@@@std@@@?$_Wrap_alloc@V?$allocator@PAVErrorInfo@Reader@Json@@@std@@@std@@QAE@ABU?$_Wrap_alloc@V?$allocator@VErrorInfo@Reader@Json@@@std@@@1@@Z ; std::_Wrap_alloc<std::allocator<Json::Reader::ErrorInfo *> >::_Wrap_alloc<std::allocator<Json::Reader::ErrorInfo *> ><std::_Wrap_alloc<std::allocator<Json::Reader::ErrorInfo> > >
$LN6@Tidy:

; 1829 : 		while (!empty())

	mov	ecx, DWORD PTR _this$[ebp]
	call	?empty@?$deque@VErrorInfo@Reader@Json@@V?$allocator@VErrorInfo@Reader@Json@@@std@@@std@@QBE_NXZ ; std::deque<Json::Reader::ErrorInfo,std::allocator<Json::Reader::ErrorInfo> >::empty
	movzx	ecx, al
	test	ecx, ecx
	jne	SHORT $LN5@Tidy

; 1830 : 			pop_back();

	mov	ecx, DWORD PTR _this$[ebp]
	call	?pop_back@?$deque@VErrorInfo@Reader@Json@@V?$allocator@VErrorInfo@Reader@Json@@@std@@@std@@QAEXXZ ; std::deque<Json::Reader::ErrorInfo,std::allocator<Json::Reader::ErrorInfo> >::pop_back
	jmp	SHORT $LN6@Tidy
$LN5@Tidy:

; 1831 : 		for (size_type _Block = this->_Mapsize; 0 < _Block; )

	mov	edx, DWORD PTR _this$[ebp]
	mov	eax, DWORD PTR [edx+8]
	mov	DWORD PTR __Block$1[ebp], eax
$LN4@Tidy:
	cmp	DWORD PTR __Block$1[ebp], 0
	jbe	SHORT $LN3@Tidy

; 1832 : 			{	// free storage for a block and destroy pointer
; 1833 : 			if (this->_Map[--_Block] != pointer())

	mov	ecx, DWORD PTR __Block$1[ebp]
	sub	ecx, 1
	mov	DWORD PTR __Block$1[ebp], ecx
	mov	edx, DWORD PTR _this$[ebp]
	mov	eax, DWORD PTR [edx+4]
	mov	ecx, DWORD PTR __Block$1[ebp]
	cmp	DWORD PTR [eax+ecx*4], 0
	je	SHORT $LN2@Tidy

; 1834 : 				{	// free block and destroy its pointer
; 1835 : 				this->_Getal().deallocate(this->_Map[_Block], _DEQUESIZ);

	push	1
	mov	edx, DWORD PTR _this$[ebp]
	mov	eax, DWORD PTR [edx+4]
	mov	ecx, DWORD PTR __Block$1[ebp]
	mov	edx, DWORD PTR [eax+ecx*4]
	push	edx
	lea	eax, DWORD PTR $T3[ebp]
	push	eax
	mov	ecx, DWORD PTR _this$[ebp]
	call	?_Getal@?$_Deque_alloc@$0A@U?$_Deque_base_types@VErrorInfo@Reader@Json@@V?$allocator@VErrorInfo@Reader@Json@@@std@@@std@@@std@@QBE?AU?$_Wrap_alloc@V?$allocator@VErrorInfo@Reader@Json@@@std@@@2@XZ ; std::_Deque_alloc<0,std::_Deque_base_types<Json::Reader::ErrorInfo,std::allocator<Json::Reader::ErrorInfo> > >::_Getal
	mov	ecx, eax
	call	?deallocate@?$_Wrap_alloc@V?$allocator@VErrorInfo@Reader@Json@@@std@@@std@@QAEXPAVErrorInfo@Reader@Json@@I@Z ; std::_Wrap_alloc<std::allocator<Json::Reader::ErrorInfo> >::deallocate

; 1836 : 				this->_Getal().destroy(&this->_Map[_Block]);

	mov	ecx, DWORD PTR _this$[ebp]
	mov	edx, DWORD PTR [ecx+4]
	mov	eax, DWORD PTR __Block$1[ebp]
	lea	ecx, DWORD PTR [edx+eax*4]
	push	ecx
	lea	edx, DWORD PTR $T2[ebp]
	push	edx
	mov	ecx, DWORD PTR _this$[ebp]
	call	?_Getal@?$_Deque_alloc@$0A@U?$_Deque_base_types@VErrorInfo@Reader@Json@@V?$allocator@VErrorInfo@Reader@Json@@@std@@@std@@@std@@QBE?AU?$_Wrap_alloc@V?$allocator@VErrorInfo@Reader@Json@@@std@@@2@XZ ; std::_Deque_alloc<0,std::_Deque_base_types<Json::Reader::ErrorInfo,std::allocator<Json::Reader::ErrorInfo> > >::_Getal
	mov	ecx, eax
	call	??$destroy@PAVErrorInfo@Reader@Json@@@?$_Wrap_alloc@V?$allocator@VErrorInfo@Reader@Json@@@std@@@std@@QAEXPAPAVErrorInfo@Reader@Json@@@Z ; std::_Wrap_alloc<std::allocator<Json::Reader::ErrorInfo> >::destroy<Json::Reader::ErrorInfo *>
$LN2@Tidy:

; 1837 : 				}
; 1838 : 			}

	jmp	SHORT $LN4@Tidy
$LN3@Tidy:

; 1839 : 
; 1840 : 		if (this->_Map != _Mapptr())

	mov	eax, DWORD PTR _this$[ebp]
	cmp	DWORD PTR [eax+4], 0
	je	SHORT $LN1@Tidy

; 1841 : 			_Almap.deallocate(this->_Map,
; 1842 : 				this->_Mapsize);	// free storage for map

	mov	ecx, DWORD PTR _this$[ebp]
	mov	edx, DWORD PTR [ecx+8]
	push	edx
	mov	eax, DWORD PTR _this$[ebp]
	mov	ecx, DWORD PTR [eax+4]
	push	ecx
	lea	ecx, DWORD PTR __Almap$[ebp]
	call	?deallocate@?$_Wrap_alloc@V?$allocator@PAVErrorInfo@Reader@Json@@@std@@@std@@QAEXPAPAVErrorInfo@Reader@Json@@I@Z ; std::_Wrap_alloc<std::allocator<Json::Reader::ErrorInfo *> >::deallocate
$LN1@Tidy:

; 1843 : 		this->_Mapsize = 0;

	mov	edx, DWORD PTR _this$[ebp]
	mov	DWORD PTR [edx+8], 0

; 1844 : 		this->_Map = _Mapptr();

	mov	eax, DWORD PTR _this$[ebp]
	mov	DWORD PTR [eax+4], 0

; 1845 : 		}

	mov	esp, ebp
	pop	ebp
	ret	0
?_Tidy@?$deque@VErrorInfo@Reader@Json@@V?$allocator@VErrorInfo@Reader@Json@@@std@@@std@@IAEXXZ ENDP ; std::deque<Json::Reader::ErrorInfo,std::allocator<Json::Reader::ErrorInfo> >::_Tidy
_TEXT	ENDS
; Function compile flags: /Odtp
; File c:\program files (x86)\microsoft visual studio 12.0\vc\include\deque
;	COMDAT ?_Growmap@?$deque@VErrorInfo@Reader@Json@@V?$allocator@VErrorInfo@Reader@Json@@@std@@@std@@IAEXI@Z
_TEXT	SEGMENT
tv84 = -28						; size = 4
__Newmap$ = -24						; size = 4
__Newsize$ = -20					; size = 4
__Myboff$ = -16						; size = 4
__Myptr$ = -12						; size = 4
_this$ = -8						; size = 4
$T1 = -2						; size = 1
__Almap$ = -1						; size = 1
__Count$ = 8						; size = 4
?_Growmap@?$deque@VErrorInfo@Reader@Json@@V?$allocator@VErrorInfo@Reader@Json@@@std@@@std@@IAEXI@Z PROC ; std::deque<Json::Reader::ErrorInfo,std::allocator<Json::Reader::ErrorInfo> >::_Growmap, COMDAT
; _this$ = ecx

; 1772 : 		{	// grow map by at least _Count pointers, _Mapsize a power of 2

	push	ebp
	mov	ebp, esp
	sub	esp, 28					; 0000001cH
	mov	DWORD PTR _this$[ebp], ecx

; 1773 : 		static_assert(1 < _DEQUEMAPSIZ,
; 1774 : 			"The _Xlen() test should always be performed.");
; 1775 : 
; 1776 : 		typedef typename _Alpty::pointer _Blockptr;
; 1777 : 		_Alpty _Almap(this->_Getal());

	lea	eax, DWORD PTR $T1[ebp]
	push	eax
	mov	ecx, DWORD PTR _this$[ebp]
	call	?_Getal@?$_Deque_alloc@$0A@U?$_Deque_base_types@VErrorInfo@Reader@Json@@V?$allocator@VErrorInfo@Reader@Json@@@std@@@std@@@std@@QBE?AU?$_Wrap_alloc@V?$allocator@VErrorInfo@Reader@Json@@@std@@@2@XZ ; std::_Deque_alloc<0,std::_Deque_base_types<Json::Reader::ErrorInfo,std::allocator<Json::Reader::ErrorInfo> > >::_Getal
	push	eax
	lea	ecx, DWORD PTR __Almap$[ebp]
	call	??$?0U?$_Wrap_alloc@V?$allocator@VErrorInfo@Reader@Json@@@std@@@std@@@?$_Wrap_alloc@V?$allocator@PAVErrorInfo@Reader@Json@@@std@@@std@@QAE@ABU?$_Wrap_alloc@V?$allocator@VErrorInfo@Reader@Json@@@std@@@1@@Z ; std::_Wrap_alloc<std::allocator<Json::Reader::ErrorInfo *> >::_Wrap_alloc<std::allocator<Json::Reader::ErrorInfo *> ><std::_Wrap_alloc<std::allocator<Json::Reader::ErrorInfo> > >

; 1778 : 		size_type _Newsize = 0 < this->_Mapsize ? this->_Mapsize : 1;

	mov	ecx, DWORD PTR _this$[ebp]
	cmp	DWORD PTR [ecx+8], 0
	jbe	SHORT $LN10@Growmap
	mov	edx, DWORD PTR _this$[ebp]
	mov	eax, DWORD PTR [edx+8]
	mov	DWORD PTR tv84[ebp], eax
	jmp	SHORT $LN11@Growmap
$LN10@Growmap:
	mov	DWORD PTR tv84[ebp], 1
$LN11@Growmap:
	mov	ecx, DWORD PTR tv84[ebp]
	mov	DWORD PTR __Newsize$[ebp], ecx
$LN7@Growmap:

; 1779 : 		while (_Newsize - this->_Mapsize < _Count || _Newsize < _DEQUEMAPSIZ)

	mov	edx, DWORD PTR _this$[ebp]
	mov	eax, DWORD PTR __Newsize$[ebp]
	sub	eax, DWORD PTR [edx+8]
	cmp	eax, DWORD PTR __Count$[ebp]
	jb	SHORT $LN5@Growmap
	cmp	DWORD PTR __Newsize$[ebp], 8
	jae	SHORT $LN6@Growmap
$LN5@Growmap:

; 1780 : 			{	// scale _Newsize to 2^N >= _Mapsize + _Count
; 1781 : 			if (max_size() / _DEQUESIZ - _Newsize < _Newsize)

	mov	ecx, DWORD PTR _this$[ebp]
	call	?max_size@?$deque@VErrorInfo@Reader@Json@@V?$allocator@VErrorInfo@Reader@Json@@@std@@@std@@QBEIXZ ; std::deque<Json::Reader::ErrorInfo,std::allocator<Json::Reader::ErrorInfo> >::max_size
	sub	eax, DWORD PTR __Newsize$[ebp]
	cmp	eax, DWORD PTR __Newsize$[ebp]
	jae	SHORT $LN4@Growmap

; 1782 : 				_Xlen();	// result too long

	mov	ecx, DWORD PTR _this$[ebp]
	call	?_Xlen@?$deque@VErrorInfo@Reader@Json@@V?$allocator@VErrorInfo@Reader@Json@@@std@@@std@@IBEXXZ ; std::deque<Json::Reader::ErrorInfo,std::allocator<Json::Reader::ErrorInfo> >::_Xlen
$LN4@Growmap:

; 1783 : 			_Newsize *= 2;

	mov	ecx, DWORD PTR __Newsize$[ebp]
	shl	ecx, 1
	mov	DWORD PTR __Newsize$[ebp], ecx

; 1784 : 			}

	jmp	SHORT $LN7@Growmap
$LN6@Growmap:

; 1785 : 		_Count = _Newsize - this->_Mapsize;

	mov	edx, DWORD PTR _this$[ebp]
	mov	eax, DWORD PTR __Newsize$[ebp]
	sub	eax, DWORD PTR [edx+8]
	mov	DWORD PTR __Count$[ebp], eax

; 1786 : 
; 1787 : 		size_type _Myboff = this->_Myoff / _DEQUESIZ;

	mov	ecx, DWORD PTR _this$[ebp]
	mov	edx, DWORD PTR [ecx+12]
	mov	DWORD PTR __Myboff$[ebp], edx

; 1788 : 		_Mapptr _Newmap = _Almap.allocate(this->_Mapsize + _Count);

	mov	eax, DWORD PTR _this$[ebp]
	mov	ecx, DWORD PTR [eax+8]
	add	ecx, DWORD PTR __Count$[ebp]
	push	ecx
	lea	ecx, DWORD PTR __Almap$[ebp]
	call	?allocate@?$_Wrap_alloc@V?$allocator@PAVErrorInfo@Reader@Json@@@std@@@std@@QAEPAPAVErrorInfo@Reader@Json@@I@Z ; std::_Wrap_alloc<std::allocator<Json::Reader::ErrorInfo *> >::allocate
	mov	DWORD PTR __Newmap$[ebp], eax

; 1789 : 		_Mapptr _Myptr = _Newmap + _Myboff;

	mov	edx, DWORD PTR __Myboff$[ebp]
	mov	eax, DWORD PTR __Newmap$[ebp]
	lea	ecx, DWORD PTR [eax+edx*4]
	mov	DWORD PTR __Myptr$[ebp], ecx

; 1790 : 
; 1791 : 		_Myptr = _Uninitialized_copy(this->_Map + _Myboff,
; 1792 : 			this->_Map + this->_Mapsize,
; 1793 : 			_Myptr, _Almap);	// copy initial to end

	lea	edx, DWORD PTR __Almap$[ebp]
	push	edx
	mov	eax, DWORD PTR __Myptr$[ebp]
	push	eax
	mov	ecx, DWORD PTR _this$[ebp]
	mov	edx, DWORD PTR [ecx+8]
	mov	eax, DWORD PTR _this$[ebp]
	mov	ecx, DWORD PTR [eax+4]
	lea	edx, DWORD PTR [ecx+edx*4]
	push	edx
	mov	eax, DWORD PTR _this$[ebp]
	mov	ecx, DWORD PTR [eax+4]
	mov	edx, DWORD PTR __Myboff$[ebp]
	lea	eax, DWORD PTR [ecx+edx*4]
	push	eax
	call	??$_Uninitialized_copy@PAPAVErrorInfo@Reader@Json@@PAPAV123@U?$_Wrap_alloc@V?$allocator@PAVErrorInfo@Reader@Json@@@std@@@std@@@std@@YAPAPAVErrorInfo@Reader@Json@@PAPAV123@00AAU?$_Wrap_alloc@V?$allocator@PAVErrorInfo@Reader@Json@@@std@@@0@@Z ; std::_Uninitialized_copy<Json::Reader::ErrorInfo * *,Json::Reader::ErrorInfo * *,std::_Wrap_alloc<std::allocator<Json::Reader::ErrorInfo *> > >
	add	esp, 16					; 00000010H
	mov	DWORD PTR __Myptr$[ebp], eax

; 1794 : 		if (_Myboff <= _Count)

	mov	ecx, DWORD PTR __Myboff$[ebp]
	cmp	ecx, DWORD PTR __Count$[ebp]
	ja	SHORT $LN3@Growmap

; 1795 : 			{	// increment greater than offset of initial block
; 1796 : 			_Myptr = _Uninitialized_copy(this->_Map,
; 1797 : 				this->_Map + _Myboff,
; 1798 : 				_Myptr, _Almap);	// copy rest of old

	lea	edx, DWORD PTR __Almap$[ebp]
	push	edx
	mov	eax, DWORD PTR __Myptr$[ebp]
	push	eax
	mov	ecx, DWORD PTR _this$[ebp]
	mov	edx, DWORD PTR [ecx+4]
	mov	eax, DWORD PTR __Myboff$[ebp]
	lea	ecx, DWORD PTR [edx+eax*4]
	push	ecx
	mov	edx, DWORD PTR _this$[ebp]
	mov	eax, DWORD PTR [edx+4]
	push	eax
	call	??$_Uninitialized_copy@PAPAVErrorInfo@Reader@Json@@PAPAV123@U?$_Wrap_alloc@V?$allocator@PAVErrorInfo@Reader@Json@@@std@@@std@@@std@@YAPAPAVErrorInfo@Reader@Json@@PAPAV123@00AAU?$_Wrap_alloc@V?$allocator@PAVErrorInfo@Reader@Json@@@std@@@0@@Z ; std::_Uninitialized_copy<Json::Reader::ErrorInfo * *,Json::Reader::ErrorInfo * *,std::_Wrap_alloc<std::allocator<Json::Reader::ErrorInfo *> > >
	add	esp, 16					; 00000010H
	mov	DWORD PTR __Myptr$[ebp], eax

; 1799 : 			_Uninitialized_default_fill_n(_Myptr, _Count - _Myboff,
; 1800 : 				_Almap);	// clear suffix of new

	lea	ecx, DWORD PTR __Almap$[ebp]
	push	ecx
	mov	edx, DWORD PTR __Count$[ebp]
	sub	edx, DWORD PTR __Myboff$[ebp]
	push	edx
	mov	eax, DWORD PTR __Myptr$[ebp]
	push	eax
	call	??$_Uninitialized_default_fill_n@PAPAVErrorInfo@Reader@Json@@IU?$_Wrap_alloc@V?$allocator@PAVErrorInfo@Reader@Json@@@std@@@std@@@std@@YAXPAPAVErrorInfo@Reader@Json@@IAAU?$_Wrap_alloc@V?$allocator@PAVErrorInfo@Reader@Json@@@std@@@0@@Z ; std::_Uninitialized_default_fill_n<Json::Reader::ErrorInfo * *,unsigned int,std::_Wrap_alloc<std::allocator<Json::Reader::ErrorInfo *> > >
	add	esp, 12					; 0000000cH

; 1801 : 			_Uninitialized_default_fill_n(_Newmap, _Myboff,
; 1802 : 				_Almap);	// clear prefix of new

	lea	ecx, DWORD PTR __Almap$[ebp]
	push	ecx
	mov	edx, DWORD PTR __Myboff$[ebp]
	push	edx
	mov	eax, DWORD PTR __Newmap$[ebp]
	push	eax
	call	??$_Uninitialized_default_fill_n@PAPAVErrorInfo@Reader@Json@@IU?$_Wrap_alloc@V?$allocator@PAVErrorInfo@Reader@Json@@@std@@@std@@@std@@YAXPAPAVErrorInfo@Reader@Json@@IAAU?$_Wrap_alloc@V?$allocator@PAVErrorInfo@Reader@Json@@@std@@@0@@Z ; std::_Uninitialized_default_fill_n<Json::Reader::ErrorInfo * *,unsigned int,std::_Wrap_alloc<std::allocator<Json::Reader::ErrorInfo *> > >
	add	esp, 12					; 0000000cH

; 1803 : 			}
; 1804 : 		else

	jmp	SHORT $LN2@Growmap
$LN3@Growmap:

; 1805 : 			{	// increment not greater than offset of initial block
; 1806 : 			_Uninitialized_copy(this->_Map,
; 1807 : 				this->_Map + _Count,
; 1808 : 				_Myptr, _Almap);	// copy more old

	lea	ecx, DWORD PTR __Almap$[ebp]
	push	ecx
	mov	edx, DWORD PTR __Myptr$[ebp]
	push	edx
	mov	eax, DWORD PTR _this$[ebp]
	mov	ecx, DWORD PTR [eax+4]
	mov	edx, DWORD PTR __Count$[ebp]
	lea	eax, DWORD PTR [ecx+edx*4]
	push	eax
	mov	ecx, DWORD PTR _this$[ebp]
	mov	edx, DWORD PTR [ecx+4]
	push	edx
	call	??$_Uninitialized_copy@PAPAVErrorInfo@Reader@Json@@PAPAV123@U?$_Wrap_alloc@V?$allocator@PAVErrorInfo@Reader@Json@@@std@@@std@@@std@@YAPAPAVErrorInfo@Reader@Json@@PAPAV123@00AAU?$_Wrap_alloc@V?$allocator@PAVErrorInfo@Reader@Json@@@std@@@0@@Z ; std::_Uninitialized_copy<Json::Reader::ErrorInfo * *,Json::Reader::ErrorInfo * *,std::_Wrap_alloc<std::allocator<Json::Reader::ErrorInfo *> > >
	add	esp, 16					; 00000010H

; 1809 : 			_Myptr = _Uninitialized_copy(this->_Map + _Count,
; 1810 : 				this->_Map + _Myboff,
; 1811 : 				_Newmap, _Almap);	// copy rest of old

	lea	eax, DWORD PTR __Almap$[ebp]
	push	eax
	mov	ecx, DWORD PTR __Newmap$[ebp]
	push	ecx
	mov	edx, DWORD PTR _this$[ebp]
	mov	eax, DWORD PTR [edx+4]
	mov	ecx, DWORD PTR __Myboff$[ebp]
	lea	edx, DWORD PTR [eax+ecx*4]
	push	edx
	mov	eax, DWORD PTR _this$[ebp]
	mov	ecx, DWORD PTR [eax+4]
	mov	edx, DWORD PTR __Count$[ebp]
	lea	eax, DWORD PTR [ecx+edx*4]
	push	eax
	call	??$_Uninitialized_copy@PAPAVErrorInfo@Reader@Json@@PAPAV123@U?$_Wrap_alloc@V?$allocator@PAVErrorInfo@Reader@Json@@@std@@@std@@@std@@YAPAPAVErrorInfo@Reader@Json@@PAPAV123@00AAU?$_Wrap_alloc@V?$allocator@PAVErrorInfo@Reader@Json@@@std@@@0@@Z ; std::_Uninitialized_copy<Json::Reader::ErrorInfo * *,Json::Reader::ErrorInfo * *,std::_Wrap_alloc<std::allocator<Json::Reader::ErrorInfo *> > >
	add	esp, 16					; 00000010H
	mov	DWORD PTR __Myptr$[ebp], eax

; 1812 : 			_Uninitialized_default_fill_n(_Myptr, _Count,
; 1813 : 				_Almap);	// clear rest to initial block

	lea	ecx, DWORD PTR __Almap$[ebp]
	push	ecx
	mov	edx, DWORD PTR __Count$[ebp]
	push	edx
	mov	eax, DWORD PTR __Myptr$[ebp]
	push	eax
	call	??$_Uninitialized_default_fill_n@PAPAVErrorInfo@Reader@Json@@IU?$_Wrap_alloc@V?$allocator@PAVErrorInfo@Reader@Json@@@std@@@std@@@std@@YAXPAPAVErrorInfo@Reader@Json@@IAAU?$_Wrap_alloc@V?$allocator@PAVErrorInfo@Reader@Json@@@std@@@0@@Z ; std::_Uninitialized_default_fill_n<Json::Reader::ErrorInfo * *,unsigned int,std::_Wrap_alloc<std::allocator<Json::Reader::ErrorInfo *> > >
	add	esp, 12					; 0000000cH
$LN2@Growmap:

; 1814 : 			}
; 1815 : 
; 1816 : 		_Destroy_range(this->_Map + _Myboff, this->_Map + this->_Mapsize,
; 1817 : 			_Almap);

	lea	ecx, DWORD PTR __Almap$[ebp]
	push	ecx
	mov	edx, DWORD PTR _this$[ebp]
	mov	eax, DWORD PTR [edx+8]
	mov	ecx, DWORD PTR _this$[ebp]
	mov	edx, DWORD PTR [ecx+4]
	lea	eax, DWORD PTR [edx+eax*4]
	push	eax
	mov	ecx, DWORD PTR _this$[ebp]
	mov	edx, DWORD PTR [ecx+4]
	mov	eax, DWORD PTR __Myboff$[ebp]
	lea	ecx, DWORD PTR [edx+eax*4]
	push	ecx
	call	??$_Destroy_range@U?$_Wrap_alloc@V?$allocator@PAVErrorInfo@Reader@Json@@@std@@@std@@@std@@YAXPAPAVErrorInfo@Reader@Json@@0AAU?$_Wrap_alloc@V?$allocator@PAVErrorInfo@Reader@Json@@@std@@@0@@Z ; std::_Destroy_range<std::_Wrap_alloc<std::allocator<Json::Reader::ErrorInfo *> > >
	add	esp, 12					; 0000000cH

; 1818 : 		if (this->_Map != _Mapptr())

	mov	edx, DWORD PTR _this$[ebp]
	cmp	DWORD PTR [edx+4], 0
	je	SHORT $LN1@Growmap

; 1819 : 			_Almap.deallocate(this->_Map,
; 1820 : 				this->_Mapsize);	// free storage for old

	mov	eax, DWORD PTR _this$[ebp]
	mov	ecx, DWORD PTR [eax+8]
	push	ecx
	mov	edx, DWORD PTR _this$[ebp]
	mov	eax, DWORD PTR [edx+4]
	push	eax
	lea	ecx, DWORD PTR __Almap$[ebp]
	call	?deallocate@?$_Wrap_alloc@V?$allocator@PAVErrorInfo@Reader@Json@@@std@@@std@@QAEXPAPAVErrorInfo@Reader@Json@@I@Z ; std::_Wrap_alloc<std::allocator<Json::Reader::ErrorInfo *> >::deallocate
$LN1@Growmap:

; 1821 : 
; 1822 : 		this->_Map = _Newmap;	// point at new

	mov	ecx, DWORD PTR _this$[ebp]
	mov	edx, DWORD PTR __Newmap$[ebp]
	mov	DWORD PTR [ecx+4], edx

; 1823 : 		this->_Mapsize += _Count;

	mov	eax, DWORD PTR _this$[ebp]
	mov	ecx, DWORD PTR [eax+8]
	add	ecx, DWORD PTR __Count$[ebp]
	mov	edx, DWORD PTR _this$[ebp]
	mov	DWORD PTR [edx+8], ecx
$LN9@Growmap:

; 1824 : 		}

	mov	esp, ebp
	pop	ebp
	ret	4
?_Growmap@?$deque@VErrorInfo@Reader@Json@@V?$allocator@VErrorInfo@Reader@Json@@@std@@@std@@IAEXI@Z ENDP ; std::deque<Json::Reader::ErrorInfo,std::allocator<Json::Reader::ErrorInfo> >::_Growmap
_TEXT	ENDS
; Function compile flags: /Odtp
; File c:\program files (x86)\microsoft visual studio 12.0\vc\include\deque
;	COMDAT ?_Xlen@?$deque@VErrorInfo@Reader@Json@@V?$allocator@VErrorInfo@Reader@Json@@@std@@@std@@IBEXXZ
_TEXT	SEGMENT
_this$ = -4						; size = 4
?_Xlen@?$deque@VErrorInfo@Reader@Json@@V?$allocator@VErrorInfo@Reader@Json@@@std@@@std@@IBEXXZ PROC ; std::deque<Json::Reader::ErrorInfo,std::allocator<Json::Reader::ErrorInfo> >::_Xlen, COMDAT
; _this$ = ecx

; 1762 : 		{	// report a length_error

	push	ebp
	mov	ebp, esp
	push	ecx
	mov	DWORD PTR _this$[ebp], ecx

; 1763 : 		_Xlength_error("deque<T> too long");

	push	OFFSET ??_C@_0BC@KBDMBKEH@deque?$DMT?$DO?5too?5long?$AA@
	call	DWORD PTR __imp_?_Xlength_error@std@@YAXPBD@Z
$LN2@Xlen:

; 1764 : 		}

	mov	esp, ebp
	pop	ebp
	ret	0
?_Xlen@?$deque@VErrorInfo@Reader@Json@@V?$allocator@VErrorInfo@Reader@Json@@@std@@@std@@IBEXXZ ENDP ; std::deque<Json::Reader::ErrorInfo,std::allocator<Json::Reader::ErrorInfo> >::_Xlen
_TEXT	ENDS
; Function compile flags: /Odtp
; File c:\program files (x86)\microsoft visual studio 12.0\vc\include\deque
;	COMDAT ?clear@?$deque@VErrorInfo@Reader@Json@@V?$allocator@VErrorInfo@Reader@Json@@@std@@@std@@QAEXXZ
_TEXT	SEGMENT
_this$ = -4						; size = 4
?clear@?$deque@VErrorInfo@Reader@Json@@V?$allocator@VErrorInfo@Reader@Json@@@std@@@std@@QAEXXZ PROC ; std::deque<Json::Reader::ErrorInfo,std::allocator<Json::Reader::ErrorInfo> >::clear, COMDAT
; _this$ = ecx

; 1642 : 		{	// erase all

	push	ebp
	mov	ebp, esp
	push	ecx
	mov	DWORD PTR _this$[ebp], ecx

; 1643 : 		_Tidy();

	mov	ecx, DWORD PTR _this$[ebp]
	call	?_Tidy@?$deque@VErrorInfo@Reader@Json@@V?$allocator@VErrorInfo@Reader@Json@@@std@@@std@@IAEXXZ ; std::deque<Json::Reader::ErrorInfo,std::allocator<Json::Reader::ErrorInfo> >::_Tidy

; 1644 : 		}

	mov	esp, ebp
	pop	ebp
	ret	0
?clear@?$deque@VErrorInfo@Reader@Json@@V?$allocator@VErrorInfo@Reader@Json@@@std@@@std@@QAEXXZ ENDP ; std::deque<Json::Reader::ErrorInfo,std::allocator<Json::Reader::ErrorInfo> >::clear
_TEXT	ENDS
; Function compile flags: /Odtp
; File c:\program files (x86)\microsoft visual studio 12.0\vc\include\deque
;	COMDAT ?pop_back@?$deque@VErrorInfo@Reader@Json@@V?$allocator@VErrorInfo@Reader@Json@@@std@@@std@@QAEXXZ
_TEXT	SEGMENT
__Block$ = -20						; size = 4
tv140 = -16						; size = 4
__Newoff$ = -12						; size = 4
_this$ = -8						; size = 4
$T1 = -1						; size = 1
?pop_back@?$deque@VErrorInfo@Reader@Json@@V?$allocator@VErrorInfo@Reader@Json@@@std@@@std@@QAEXXZ PROC ; std::deque<Json::Reader::ErrorInfo,std::allocator<Json::Reader::ErrorInfo> >::pop_back, COMDAT
; _this$ = ecx

; 1471 : 		{	// erase element at end

	push	ebp
	mov	ebp, esp
	sub	esp, 20					; 00000014H
	push	esi
	mov	DWORD PTR _this$[ebp], ecx

; 1472 :  #if _ITERATOR_DEBUG_LEVEL == 2
; 1473 : 		if (empty())
; 1474 : 			_DEBUG_ERROR("deque empty before pop");
; 1475 : 		else
; 1476 : 			{	// something to erase, do it
; 1477 : 			size_type _Newoff = this->_Myoff + this->_Mysize - 1;
; 1478 : 			_Orphan_off(_Newoff);
; 1479 : 			size_type _Block = this->_Getblock(_Newoff);
; 1480 : 			this->_Getal().destroy(
; 1481 : 				this->_Map[_Block] + _Newoff % _DEQUESIZ);
; 1482 : 			if (--this->_Mysize == 0)
; 1483 : 				this->_Myoff = 0;
; 1484 : 			}
; 1485 : 
; 1486 :  #else /* _ITERATOR_DEBUG_LEVEL == 2 */
; 1487 : 		size_type _Newoff = this->_Myoff + this->_Mysize - 1;

	mov	eax, DWORD PTR _this$[ebp]
	mov	ecx, DWORD PTR [eax+12]
	mov	edx, DWORD PTR _this$[ebp]
	mov	eax, DWORD PTR [edx+16]
	lea	ecx, DWORD PTR [ecx+eax-1]
	mov	DWORD PTR __Newoff$[ebp], ecx

; 1488 : 		size_type _Block = this->_Getblock(_Newoff);

	mov	edx, DWORD PTR __Newoff$[ebp]
	push	edx
	mov	ecx, DWORD PTR _this$[ebp]
	call	?_Getblock@?$_Deque_val@U?$_Deque_simple_types@VErrorInfo@Reader@Json@@@std@@@std@@QBEII@Z ; std::_Deque_val<std::_Deque_simple_types<Json::Reader::ErrorInfo> >::_Getblock
	mov	DWORD PTR __Block$[ebp], eax

; 1489 : 		this->_Getal().destroy(
; 1490 : 			this->_Map[_Block] + _Newoff % _DEQUESIZ);

	mov	eax, DWORD PTR _this$[ebp]
	mov	ecx, DWORD PTR [eax+4]
	mov	eax, DWORD PTR __Newoff$[ebp]
	xor	edx, edx
	mov	esi, 1
	div	esi
	imul	edx, edx, 40
	mov	eax, DWORD PTR __Block$[ebp]
	add	edx, DWORD PTR [ecx+eax*4]
	push	edx
	lea	ecx, DWORD PTR $T1[ebp]
	push	ecx
	mov	ecx, DWORD PTR _this$[ebp]
	call	?_Getal@?$_Deque_alloc@$0A@U?$_Deque_base_types@VErrorInfo@Reader@Json@@V?$allocator@VErrorInfo@Reader@Json@@@std@@@std@@@std@@QBE?AU?$_Wrap_alloc@V?$allocator@VErrorInfo@Reader@Json@@@std@@@2@XZ ; std::_Deque_alloc<0,std::_Deque_base_types<Json::Reader::ErrorInfo,std::allocator<Json::Reader::ErrorInfo> > >::_Getal
	mov	ecx, eax
	call	??$destroy@VErrorInfo@Reader@Json@@@?$_Wrap_alloc@V?$allocator@VErrorInfo@Reader@Json@@@std@@@std@@QAEXPAVErrorInfo@Reader@Json@@@Z ; std::_Wrap_alloc<std::allocator<Json::Reader::ErrorInfo> >::destroy<Json::Reader::ErrorInfo>

; 1491 : 		if (--this->_Mysize == 0)

	mov	edx, DWORD PTR _this$[ebp]
	mov	eax, DWORD PTR [edx+16]
	sub	eax, 1
	mov	DWORD PTR tv140[ebp], eax
	mov	ecx, DWORD PTR _this$[ebp]
	mov	edx, DWORD PTR tv140[ebp]
	mov	DWORD PTR [ecx+16], edx
	cmp	DWORD PTR tv140[ebp], 0
	jne	SHORT $LN2@pop_back

; 1492 : 			this->_Myoff = 0;

	mov	eax, DWORD PTR _this$[ebp]
	mov	DWORD PTR [eax+12], 0
$LN2@pop_back:

; 1493 :  #endif /* _ITERATOR_DEBUG_LEVEL == 2 */
; 1494 : 		}

	pop	esi
	mov	esp, ebp
	pop	ebp
	ret	0
?pop_back@?$deque@VErrorInfo@Reader@Json@@V?$allocator@VErrorInfo@Reader@Json@@@std@@@std@@QAEXXZ ENDP ; std::deque<Json::Reader::ErrorInfo,std::allocator<Json::Reader::ErrorInfo> >::pop_back
_TEXT	ENDS
; Function compile flags: /Odtp
; File c:\program files (x86)\microsoft visual studio 12.0\vc\include\deque
;	COMDAT ?push_back@?$deque@VErrorInfo@Reader@Json@@V?$allocator@VErrorInfo@Reader@Json@@@std@@@std@@QAEXABVErrorInfo@Reader@Json@@@Z
_TEXT	SEGMENT
__Newoff$ = -16						; size = 4
__Block$ = -12						; size = 4
_this$ = -8						; size = 4
$T1 = -2						; size = 1
$T2 = -1						; size = 1
__Val$ = 8						; size = 4
?push_back@?$deque@VErrorInfo@Reader@Json@@V?$allocator@VErrorInfo@Reader@Json@@@std@@@std@@QAEXABVErrorInfo@Reader@Json@@@Z PROC ; std::deque<Json::Reader::ErrorInfo,std::allocator<Json::Reader::ErrorInfo> >::push_back, COMDAT
; _this$ = ecx

; 1462 : 		{	// insert element at end

	push	ebp
	mov	ebp, esp
	sub	esp, 16					; 00000010H
	push	esi
	mov	DWORD PTR _this$[ebp], ecx

; 1463 : 		this->_Orphan_all();

	mov	ecx, DWORD PTR _this$[ebp]
	call	DWORD PTR __imp_?_Orphan_all@_Container_base12@std@@QAEXXZ

; 1464 : 		_PUSH_BACK_BEGIN;

	mov	eax, DWORD PTR _this$[ebp]
	mov	eax, DWORD PTR [eax+12]
	mov	ecx, DWORD PTR _this$[ebp]
	add	eax, DWORD PTR [ecx+16]
	xor	edx, edx
	mov	ecx, 1
	div	ecx
	test	edx, edx
	jne	SHORT $LN2@push_back
	mov	edx, DWORD PTR _this$[ebp]
	mov	eax, DWORD PTR [edx+16]
	add	eax, 1
	mov	ecx, DWORD PTR _this$[ebp]
	cmp	DWORD PTR [ecx+8], eax
	ja	SHORT $LN2@push_back
	push	1
	mov	ecx, DWORD PTR _this$[ebp]
	call	?_Growmap@?$deque@VErrorInfo@Reader@Json@@V?$allocator@VErrorInfo@Reader@Json@@@std@@@std@@IAEXI@Z ; std::deque<Json::Reader::ErrorInfo,std::allocator<Json::Reader::ErrorInfo> >::_Growmap
$LN2@push_back:
	mov	edx, DWORD PTR _this$[ebp]
	mov	eax, DWORD PTR [edx+8]
	sub	eax, 1
	mov	ecx, DWORD PTR _this$[ebp]
	and	eax, DWORD PTR [ecx+12]
	mov	edx, DWORD PTR _this$[ebp]
	mov	DWORD PTR [edx+12], eax
	mov	eax, DWORD PTR _this$[ebp]
	mov	ecx, DWORD PTR [eax+12]
	mov	edx, DWORD PTR _this$[ebp]
	add	ecx, DWORD PTR [edx+16]
	mov	DWORD PTR __Newoff$[ebp], ecx
	mov	eax, DWORD PTR __Newoff$[ebp]
	push	eax
	mov	ecx, DWORD PTR _this$[ebp]
	call	?_Getblock@?$_Deque_val@U?$_Deque_simple_types@VErrorInfo@Reader@Json@@@std@@@std@@QBEII@Z ; std::_Deque_val<std::_Deque_simple_types<Json::Reader::ErrorInfo> >::_Getblock
	mov	DWORD PTR __Block$[ebp], eax
	mov	ecx, DWORD PTR _this$[ebp]
	mov	edx, DWORD PTR [ecx+4]
	mov	eax, DWORD PTR __Block$[ebp]
	cmp	DWORD PTR [edx+eax*4], 0
	jne	SHORT $LN1@push_back
	push	1
	lea	ecx, DWORD PTR $T2[ebp]
	push	ecx
	mov	ecx, DWORD PTR _this$[ebp]
	call	?_Getal@?$_Deque_alloc@$0A@U?$_Deque_base_types@VErrorInfo@Reader@Json@@V?$allocator@VErrorInfo@Reader@Json@@@std@@@std@@@std@@QBE?AU?$_Wrap_alloc@V?$allocator@VErrorInfo@Reader@Json@@@std@@@2@XZ ; std::_Deque_alloc<0,std::_Deque_base_types<Json::Reader::ErrorInfo,std::allocator<Json::Reader::ErrorInfo> > >::_Getal
	mov	ecx, eax
	call	?allocate@?$_Wrap_alloc@V?$allocator@VErrorInfo@Reader@Json@@@std@@@std@@QAEPAVErrorInfo@Reader@Json@@I@Z ; std::_Wrap_alloc<std::allocator<Json::Reader::ErrorInfo> >::allocate
	mov	edx, DWORD PTR _this$[ebp]
	mov	ecx, DWORD PTR [edx+4]
	mov	edx, DWORD PTR __Block$[ebp]
	mov	DWORD PTR [ecx+edx*4], eax
$LN1@push_back:

; 1465 : 		this->_Getal().construct(
; 1466 : 			this->_Map[_Block] + _Newoff % _DEQUESIZ, _Val);

	mov	eax, DWORD PTR __Val$[ebp]
	push	eax
	mov	ecx, DWORD PTR _this$[ebp]
	mov	ecx, DWORD PTR [ecx+4]
	mov	eax, DWORD PTR __Newoff$[ebp]
	xor	edx, edx
	mov	esi, 1
	div	esi
	imul	edx, edx, 40
	mov	eax, DWORD PTR __Block$[ebp]
	add	edx, DWORD PTR [ecx+eax*4]
	push	edx
	lea	ecx, DWORD PTR $T1[ebp]
	push	ecx
	mov	ecx, DWORD PTR _this$[ebp]
	call	?_Getal@?$_Deque_alloc@$0A@U?$_Deque_base_types@VErrorInfo@Reader@Json@@V?$allocator@VErrorInfo@Reader@Json@@@std@@@std@@@std@@QBE?AU?$_Wrap_alloc@V?$allocator@VErrorInfo@Reader@Json@@@std@@@2@XZ ; std::_Deque_alloc<0,std::_Deque_base_types<Json::Reader::ErrorInfo,std::allocator<Json::Reader::ErrorInfo> > >::_Getal
	mov	ecx, eax
	call	??$construct@VErrorInfo@Reader@Json@@ABV123@@?$_Wrap_alloc@V?$allocator@VErrorInfo@Reader@Json@@@std@@@std@@QAEXPAVErrorInfo@Reader@Json@@ABV234@@Z ; std::_Wrap_alloc<std::allocator<Json::Reader::ErrorInfo> >::construct<Json::Reader::ErrorInfo,Json::Reader::ErrorInfo const &>

; 1467 : 		_PUSH_BACK_END;

	mov	edx, DWORD PTR _this$[ebp]
	mov	eax, DWORD PTR [edx+16]
	add	eax, 1
	mov	ecx, DWORD PTR _this$[ebp]
	mov	DWORD PTR [ecx+16], eax

; 1468 : 		}

	pop	esi
	mov	esp, ebp
	pop	ebp
	ret	4
?push_back@?$deque@VErrorInfo@Reader@Json@@V?$allocator@VErrorInfo@Reader@Json@@@std@@@std@@QAEXABVErrorInfo@Reader@Json@@@Z ENDP ; std::deque<Json::Reader::ErrorInfo,std::allocator<Json::Reader::ErrorInfo> >::push_back
_TEXT	ENDS
; Function compile flags: /Odtp
; File c:\program files (x86)\microsoft visual studio 12.0\vc\include\deque
;	COMDAT ?empty@?$deque@VErrorInfo@Reader@Json@@V?$allocator@VErrorInfo@Reader@Json@@@std@@@std@@QBE_NXZ
_TEXT	SEGMENT
_this$ = -8						; size = 4
tv70 = -4						; size = 4
?empty@?$deque@VErrorInfo@Reader@Json@@V?$allocator@VErrorInfo@Reader@Json@@@std@@@std@@QBE_NXZ PROC ; std::deque<Json::Reader::ErrorInfo,std::allocator<Json::Reader::ErrorInfo> >::empty, COMDAT
; _this$ = ecx

; 1361 : 		{	// test if sequence is empty

	push	ebp
	mov	ebp, esp
	sub	esp, 8
	mov	DWORD PTR _this$[ebp], ecx

; 1362 : 		return (this->_Mysize == 0);

	mov	eax, DWORD PTR _this$[ebp]
	cmp	DWORD PTR [eax+16], 0
	jne	SHORT $LN3@empty
	mov	DWORD PTR tv70[ebp], 1
	jmp	SHORT $LN4@empty
$LN3@empty:
	mov	DWORD PTR tv70[ebp], 0
$LN4@empty:
	mov	al, BYTE PTR tv70[ebp]

; 1363 : 		}

	mov	esp, ebp
	pop	ebp
	ret	0
?empty@?$deque@VErrorInfo@Reader@Json@@V?$allocator@VErrorInfo@Reader@Json@@@std@@@std@@QBE_NXZ ENDP ; std::deque<Json::Reader::ErrorInfo,std::allocator<Json::Reader::ErrorInfo> >::empty
_TEXT	ENDS
; Function compile flags: /Odtp
; File c:\program files (x86)\microsoft visual studio 12.0\vc\include\deque
;	COMDAT ?max_size@?$deque@VErrorInfo@Reader@Json@@V?$allocator@VErrorInfo@Reader@Json@@@std@@@std@@QBEIXZ
_TEXT	SEGMENT
_this$ = -8						; size = 4
$T1 = -1						; size = 1
?max_size@?$deque@VErrorInfo@Reader@Json@@V?$allocator@VErrorInfo@Reader@Json@@@std@@@std@@QBEIXZ PROC ; std::deque<Json::Reader::ErrorInfo,std::allocator<Json::Reader::ErrorInfo> >::max_size, COMDAT
; _this$ = ecx

; 1356 : 		{	// return maximum possible length of sequence

	push	ebp
	mov	ebp, esp
	sub	esp, 8
	mov	DWORD PTR _this$[ebp], ecx

; 1357 : 		return (this->_Getal().max_size());

	lea	eax, DWORD PTR $T1[ebp]
	push	eax
	mov	ecx, DWORD PTR _this$[ebp]
	call	?_Getal@?$_Deque_alloc@$0A@U?$_Deque_base_types@VErrorInfo@Reader@Json@@V?$allocator@VErrorInfo@Reader@Json@@@std@@@std@@@std@@QBE?AU?$_Wrap_alloc@V?$allocator@VErrorInfo@Reader@Json@@@std@@@2@XZ ; std::_Deque_alloc<0,std::_Deque_base_types<Json::Reader::ErrorInfo,std::allocator<Json::Reader::ErrorInfo> > >::_Getal
	mov	ecx, eax
	call	?max_size@?$_Wrap_alloc@V?$allocator@VErrorInfo@Reader@Json@@@std@@@std@@QBEIXZ ; std::_Wrap_alloc<std::allocator<Json::Reader::ErrorInfo> >::max_size

; 1358 : 		}

	mov	esp, ebp
	pop	ebp
	ret	0
?max_size@?$deque@VErrorInfo@Reader@Json@@V?$allocator@VErrorInfo@Reader@Json@@@std@@@std@@QBEIXZ ENDP ; std::deque<Json::Reader::ErrorInfo,std::allocator<Json::Reader::ErrorInfo> >::max_size
_TEXT	ENDS
; Function compile flags: /Odtp
; File c:\program files (x86)\microsoft visual studio 12.0\vc\include\deque
;	COMDAT ?size@?$deque@VErrorInfo@Reader@Json@@V?$allocator@VErrorInfo@Reader@Json@@@std@@@std@@QBEIXZ
_TEXT	SEGMENT
_this$ = -4						; size = 4
?size@?$deque@VErrorInfo@Reader@Json@@V?$allocator@VErrorInfo@Reader@Json@@@std@@@std@@QBEIXZ PROC ; std::deque<Json::Reader::ErrorInfo,std::allocator<Json::Reader::ErrorInfo> >::size, COMDAT
; _this$ = ecx

; 1351 : 		{	// return length of sequence

	push	ebp
	mov	ebp, esp
	push	ecx
	mov	DWORD PTR _this$[ebp], ecx

; 1352 : 		return (this->_Mysize);

	mov	eax, DWORD PTR _this$[ebp]
	mov	eax, DWORD PTR [eax+16]

; 1353 : 		}

	mov	esp, ebp
	pop	ebp
	ret	0
?size@?$deque@VErrorInfo@Reader@Json@@V?$allocator@VErrorInfo@Reader@Json@@@std@@@std@@QBEIXZ ENDP ; std::deque<Json::Reader::ErrorInfo,std::allocator<Json::Reader::ErrorInfo> >::size
_TEXT	ENDS
; Function compile flags: /Odtp
; File c:\program files (x86)\microsoft visual studio 12.0\vc\include\deque
;	COMDAT ?resize@?$deque@VErrorInfo@Reader@Json@@V?$allocator@VErrorInfo@Reader@Json@@@std@@@std@@QAEXI@Z
_TEXT	SEGMENT
_this$ = -4						; size = 4
__Newsize$ = 8						; size = 4
?resize@?$deque@VErrorInfo@Reader@Json@@V?$allocator@VErrorInfo@Reader@Json@@@std@@@std@@QAEXI@Z PROC ; std::deque<Json::Reader::ErrorInfo,std::allocator<Json::Reader::ErrorInfo> >::resize, COMDAT
; _this$ = ecx

; 1334 : 		{	// determine new length, padding as needed

	push	ebp
	mov	ebp, esp
	push	ecx
	mov	DWORD PTR _this$[ebp], ecx
$LN4@resize:

; 1335 : 		while (this->_Mysize < _Newsize)

	mov	eax, DWORD PTR _this$[ebp]
	mov	ecx, DWORD PTR [eax+16]
	cmp	ecx, DWORD PTR __Newsize$[ebp]
	jae	SHORT $LN2@resize

; 1336 : 			emplace_back();

	mov	ecx, DWORD PTR _this$[ebp]
	call	??$emplace_back@$$$V@?$deque@VErrorInfo@Reader@Json@@V?$allocator@VErrorInfo@Reader@Json@@@std@@@std@@QAEXXZ ; std::deque<Json::Reader::ErrorInfo,std::allocator<Json::Reader::ErrorInfo> >::emplace_back<>
	jmp	SHORT $LN4@resize
$LN2@resize:

; 1337 : 
; 1338 : 		while (_Newsize < this->_Mysize)

	mov	edx, DWORD PTR _this$[ebp]
	mov	eax, DWORD PTR __Newsize$[ebp]
	cmp	eax, DWORD PTR [edx+16]
	jae	SHORT $LN5@resize

; 1339 : 			pop_back();

	mov	ecx, DWORD PTR _this$[ebp]
	call	?pop_back@?$deque@VErrorInfo@Reader@Json@@V?$allocator@VErrorInfo@Reader@Json@@@std@@@std@@QAEXXZ ; std::deque<Json::Reader::ErrorInfo,std::allocator<Json::Reader::ErrorInfo> >::pop_back
	jmp	SHORT $LN2@resize
$LN5@resize:

; 1340 : 		}

	mov	esp, ebp
	pop	ebp
	ret	4
?resize@?$deque@VErrorInfo@Reader@Json@@V?$allocator@VErrorInfo@Reader@Json@@@std@@@std@@QAEXI@Z ENDP ; std::deque<Json::Reader::ErrorInfo,std::allocator<Json::Reader::ErrorInfo> >::resize
_TEXT	ENDS
; Function compile flags: /Odtp
; File c:\program files (x86)\microsoft visual studio 12.0\vc\include\deque
;	COMDAT ?end@?$deque@VErrorInfo@Reader@Json@@V?$allocator@VErrorInfo@Reader@Json@@@std@@@std@@QBE?AV?$_Deque_const_iterator@V?$_Deque_val@U?$_Deque_simple_types@VErrorInfo@Reader@Json@@@std@@@std@@@2@XZ
_TEXT	SEGMENT
_this$ = -4						; size = 4
___$ReturnUdt$ = 8					; size = 4
?end@?$deque@VErrorInfo@Reader@Json@@V?$allocator@VErrorInfo@Reader@Json@@@std@@@std@@QBE?AV?$_Deque_const_iterator@V?$_Deque_val@U?$_Deque_simple_types@VErrorInfo@Reader@Json@@@std@@@std@@@2@XZ PROC ; std::deque<Json::Reader::ErrorInfo,std::allocator<Json::Reader::ErrorInfo> >::end, COMDAT
; _this$ = ecx

; 1265 : 		{	// return iterator for end of nonmutable sequence

	push	ebp
	mov	ebp, esp
	push	ecx
	mov	DWORD PTR _this$[ebp], ecx

; 1266 : 		return (const_iterator(this->_Myoff + this->_Mysize, this));

	mov	eax, DWORD PTR _this$[ebp]
	push	eax
	mov	ecx, DWORD PTR _this$[ebp]
	mov	edx, DWORD PTR [ecx+12]
	mov	eax, DWORD PTR _this$[ebp]
	add	edx, DWORD PTR [eax+16]
	push	edx
	mov	ecx, DWORD PTR ___$ReturnUdt$[ebp]
	call	??0?$_Deque_const_iterator@V?$_Deque_val@U?$_Deque_simple_types@VErrorInfo@Reader@Json@@@std@@@std@@@std@@QAE@IPBU_Container_base12@1@@Z ; std::_Deque_const_iterator<std::_Deque_val<std::_Deque_simple_types<Json::Reader::ErrorInfo> > >::_Deque_const_iterator<std::_Deque_val<std::_Deque_simple_types<Json::Reader::ErrorInfo> > >
	mov	eax, DWORD PTR ___$ReturnUdt$[ebp]

; 1267 : 		}

	mov	esp, ebp
	pop	ebp
	ret	4
?end@?$deque@VErrorInfo@Reader@Json@@V?$allocator@VErrorInfo@Reader@Json@@@std@@@std@@QBE?AV?$_Deque_const_iterator@V?$_Deque_val@U?$_Deque_simple_types@VErrorInfo@Reader@Json@@@std@@@std@@@2@XZ ENDP ; std::deque<Json::Reader::ErrorInfo,std::allocator<Json::Reader::ErrorInfo> >::end
_TEXT	ENDS
; Function compile flags: /Odtp
; File c:\program files (x86)\microsoft visual studio 12.0\vc\include\deque
;	COMDAT ?begin@?$deque@VErrorInfo@Reader@Json@@V?$allocator@VErrorInfo@Reader@Json@@@std@@@std@@QBE?AV?$_Deque_const_iterator@V?$_Deque_val@U?$_Deque_simple_types@VErrorInfo@Reader@Json@@@std@@@std@@@2@XZ
_TEXT	SEGMENT
_this$ = -4						; size = 4
___$ReturnUdt$ = 8					; size = 4
?begin@?$deque@VErrorInfo@Reader@Json@@V?$allocator@VErrorInfo@Reader@Json@@@std@@@std@@QBE?AV?$_Deque_const_iterator@V?$_Deque_val@U?$_Deque_simple_types@VErrorInfo@Reader@Json@@@std@@@std@@@2@XZ PROC ; std::deque<Json::Reader::ErrorInfo,std::allocator<Json::Reader::ErrorInfo> >::begin, COMDAT
; _this$ = ecx

; 1255 : 		{	// return iterator for beginning of nonmutable sequence

	push	ebp
	mov	ebp, esp
	push	ecx
	mov	DWORD PTR _this$[ebp], ecx

; 1256 : 		return (const_iterator(this->_Myoff, this));

	mov	eax, DWORD PTR _this$[ebp]
	push	eax
	mov	ecx, DWORD PTR _this$[ebp]
	mov	edx, DWORD PTR [ecx+12]
	push	edx
	mov	ecx, DWORD PTR ___$ReturnUdt$[ebp]
	call	??0?$_Deque_const_iterator@V?$_Deque_val@U?$_Deque_simple_types@VErrorInfo@Reader@Json@@@std@@@std@@@std@@QAE@IPBU_Container_base12@1@@Z ; std::_Deque_const_iterator<std::_Deque_val<std::_Deque_simple_types<Json::Reader::ErrorInfo> > >::_Deque_const_iterator<std::_Deque_val<std::_Deque_simple_types<Json::Reader::ErrorInfo> > >
	mov	eax, DWORD PTR ___$ReturnUdt$[ebp]

; 1257 : 		}

	mov	esp, ebp
	pop	ebp
	ret	4
?begin@?$deque@VErrorInfo@Reader@Json@@V?$allocator@VErrorInfo@Reader@Json@@@std@@@std@@QBE?AV?$_Deque_const_iterator@V?$_Deque_val@U?$_Deque_simple_types@VErrorInfo@Reader@Json@@@std@@@std@@@2@XZ ENDP ; std::deque<Json::Reader::ErrorInfo,std::allocator<Json::Reader::ErrorInfo> >::begin
_TEXT	ENDS
; Function compile flags: /Odtp
; File c:\program files (x86)\microsoft visual studio 12.0\vc\include\deque
;	COMDAT ??1?$deque@VErrorInfo@Reader@Json@@V?$allocator@VErrorInfo@Reader@Json@@@std@@@std@@QAE@XZ
_TEXT	SEGMENT
_this$ = -4						; size = 4
??1?$deque@VErrorInfo@Reader@Json@@V?$allocator@VErrorInfo@Reader@Json@@@std@@@std@@QAE@XZ PROC ; std::deque<Json::Reader::ErrorInfo,std::allocator<Json::Reader::ErrorInfo> >::~deque<Json::Reader::ErrorInfo,std::allocator<Json::Reader::ErrorInfo> >, COMDAT
; _this$ = ecx

; 1214 : 		{	// destroy the deque

	push	ebp
	mov	ebp, esp
	push	ecx
	mov	DWORD PTR _this$[ebp], ecx

; 1215 : 		_Tidy();

	mov	ecx, DWORD PTR _this$[ebp]
	call	?_Tidy@?$deque@VErrorInfo@Reader@Json@@V?$allocator@VErrorInfo@Reader@Json@@@std@@@std@@IAEXXZ ; std::deque<Json::Reader::ErrorInfo,std::allocator<Json::Reader::ErrorInfo> >::_Tidy

; 1216 : 		}

	mov	ecx, DWORD PTR _this$[ebp]
	call	??1?$_Deque_alloc@$0A@U?$_Deque_base_types@VErrorInfo@Reader@Json@@V?$allocator@VErrorInfo@Reader@Json@@@std@@@std@@@std@@QAE@XZ ; std::_Deque_alloc<0,std::_Deque_base_types<Json::Reader::ErrorInfo,std::allocator<Json::Reader::ErrorInfo> > >::~_Deque_alloc<0,std::_Deque_base_types<Json::Reader::ErrorInfo,std::allocator<Json::Reader::ErrorInfo> > >
	mov	esp, ebp
	pop	ebp
	ret	0
??1?$deque@VErrorInfo@Reader@Json@@V?$allocator@VErrorInfo@Reader@Json@@@std@@@std@@QAE@XZ ENDP ; std::deque<Json::Reader::ErrorInfo,std::allocator<Json::Reader::ErrorInfo> >::~deque<Json::Reader::ErrorInfo,std::allocator<Json::Reader::ErrorInfo> >
_TEXT	ENDS
; Function compile flags: /Odtp
; File c:\program files (x86)\microsoft visual studio 12.0\vc\include\deque
;	COMDAT ??0?$deque@VErrorInfo@Reader@Json@@V?$allocator@VErrorInfo@Reader@Json@@@std@@@std@@QAE@XZ
_TEXT	SEGMENT
_this$ = -8						; size = 4
$T1 = -1						; size = 1
??0?$deque@VErrorInfo@Reader@Json@@V?$allocator@VErrorInfo@Reader@Json@@@std@@@std@@QAE@XZ PROC ; std::deque<Json::Reader::ErrorInfo,std::allocator<Json::Reader::ErrorInfo> >::deque<Json::Reader::ErrorInfo,std::allocator<Json::Reader::ErrorInfo> >, COMDAT
; _this$ = ecx

; 951  : 		{	// construct empty deque

	push	ebp
	mov	ebp, esp
	sub	esp, 8
	mov	DWORD PTR _this$[ebp], ecx
	lea	ecx, DWORD PTR $T1[ebp]
	call	??0?$allocator@VErrorInfo@Reader@Json@@@std@@QAE@XZ ; std::allocator<Json::Reader::ErrorInfo>::allocator<Json::Reader::ErrorInfo>
	push	eax
	mov	ecx, DWORD PTR _this$[ebp]
	call	??0?$_Deque_alloc@$0A@U?$_Deque_base_types@VErrorInfo@Reader@Json@@V?$allocator@VErrorInfo@Reader@Json@@@std@@@std@@@std@@QAE@ABV?$allocator@VErrorInfo@Reader@Json@@@1@@Z ; std::_Deque_alloc<0,std::_Deque_base_types<Json::Reader::ErrorInfo,std::allocator<Json::Reader::ErrorInfo> > >::_Deque_alloc<0,std::_Deque_base_types<Json::Reader::ErrorInfo,std::allocator<Json::Reader::ErrorInfo> > >

; 952  : 		}

	mov	eax, DWORD PTR _this$[ebp]
	mov	esp, ebp
	pop	ebp
	ret	0
??0?$deque@VErrorInfo@Reader@Json@@V?$allocator@VErrorInfo@Reader@Json@@@std@@@std@@QAE@XZ ENDP ; std::deque<Json::Reader::ErrorInfo,std::allocator<Json::Reader::ErrorInfo> >::deque<Json::Reader::ErrorInfo,std::allocator<Json::Reader::ErrorInfo> >
_TEXT	ENDS
; Function compile flags: /Odtp
; File c:\program files (x86)\microsoft visual studio 12.0\vc\include\deque
;	COMDAT ?_Getal@?$_Deque_alloc@$0A@U?$_Deque_base_types@VErrorInfo@Reader@Json@@V?$allocator@VErrorInfo@Reader@Json@@@std@@@std@@@std@@QBE?AU?$_Wrap_alloc@V?$allocator@VErrorInfo@Reader@Json@@@std@@@2@XZ
_TEXT	SEGMENT
_this$ = -4						; size = 4
___$ReturnUdt$ = 8					; size = 4
?_Getal@?$_Deque_alloc@$0A@U?$_Deque_base_types@VErrorInfo@Reader@Json@@V?$allocator@VErrorInfo@Reader@Json@@@std@@@std@@@std@@QBE?AU?$_Wrap_alloc@V?$allocator@VErrorInfo@Reader@Json@@@std@@@2@XZ PROC ; std::_Deque_alloc<0,std::_Deque_base_types<Json::Reader::ErrorInfo,std::allocator<Json::Reader::ErrorInfo> > >::_Getal, COMDAT
; _this$ = ecx

; 911  : 		{	// get reference to allocator

	push	ebp
	mov	ebp, esp
	push	ecx
	mov	DWORD PTR _this$[ebp], ecx

; 912  : 		return (_Alty());

	mov	ecx, DWORD PTR ___$ReturnUdt$[ebp]
	call	??0?$_Wrap_alloc@V?$allocator@VErrorInfo@Reader@Json@@@std@@@std@@QAE@XZ ; std::_Wrap_alloc<std::allocator<Json::Reader::ErrorInfo> >::_Wrap_alloc<std::allocator<Json::Reader::ErrorInfo> >
	mov	eax, DWORD PTR ___$ReturnUdt$[ebp]

; 913  : 		}

	mov	esp, ebp
	pop	ebp
	ret	4
?_Getal@?$_Deque_alloc@$0A@U?$_Deque_base_types@VErrorInfo@Reader@Json@@V?$allocator@VErrorInfo@Reader@Json@@@std@@@std@@@std@@QBE?AU?$_Wrap_alloc@V?$allocator@VErrorInfo@Reader@Json@@@std@@@2@XZ ENDP ; std::_Deque_alloc<0,std::_Deque_base_types<Json::Reader::ErrorInfo,std::allocator<Json::Reader::ErrorInfo> > >::_Getal
_TEXT	ENDS
; Function compile flags: /Odtp
; File c:\program files (x86)\microsoft visual studio 12.0\vc\include\deque
;	COMDAT ?_Free_proxy@?$_Deque_alloc@$0A@U?$_Deque_base_types@VErrorInfo@Reader@Json@@V?$allocator@VErrorInfo@Reader@Json@@@std@@@std@@@std@@QAEXXZ
_TEXT	SEGMENT
_this$ = -8						; size = 4
__Alproxy$ = -1						; size = 1
?_Free_proxy@?$_Deque_alloc@$0A@U?$_Deque_base_types@VErrorInfo@Reader@Json@@V?$allocator@VErrorInfo@Reader@Json@@@std@@@std@@@std@@QAEXXZ PROC ; std::_Deque_alloc<0,std::_Deque_base_types<Json::Reader::ErrorInfo,std::allocator<Json::Reader::ErrorInfo> > >::_Free_proxy, COMDAT
; _this$ = ecx

; 901  : 		{	// destroy proxy

	push	ebp
	mov	ebp, esp
	sub	esp, 8
	mov	DWORD PTR _this$[ebp], ecx

; 902  : 		typename _Alty::template rebind<_Container_proxy>::other
; 903  : 			_Alproxy;

	lea	ecx, DWORD PTR __Alproxy$[ebp]
	call	??0?$_Wrap_alloc@V?$allocator@U_Container_proxy@std@@@std@@@std@@QAE@XZ ; std::_Wrap_alloc<std::allocator<std::_Container_proxy> >::_Wrap_alloc<std::allocator<std::_Container_proxy> >

; 904  : 		this->_Orphan_all();

	mov	ecx, DWORD PTR _this$[ebp]
	call	DWORD PTR __imp_?_Orphan_all@_Container_base12@std@@QAEXXZ

; 905  : 		_Alproxy.destroy(this->_Myproxy);

	mov	eax, DWORD PTR _this$[ebp]
	mov	ecx, DWORD PTR [eax]
	push	ecx
	lea	ecx, DWORD PTR __Alproxy$[ebp]
	call	??$destroy@U_Container_proxy@std@@@?$_Wrap_alloc@V?$allocator@U_Container_proxy@std@@@std@@@std@@QAEXPAU_Container_proxy@1@@Z ; std::_Wrap_alloc<std::allocator<std::_Container_proxy> >::destroy<std::_Container_proxy>

; 906  : 		_Alproxy.deallocate(this->_Myproxy, 1);

	push	1
	mov	edx, DWORD PTR _this$[ebp]
	mov	eax, DWORD PTR [edx]
	push	eax
	lea	ecx, DWORD PTR __Alproxy$[ebp]
	call	?deallocate@?$_Wrap_alloc@V?$allocator@U_Container_proxy@std@@@std@@@std@@QAEXPAU_Container_proxy@2@I@Z ; std::_Wrap_alloc<std::allocator<std::_Container_proxy> >::deallocate

; 907  : 		this->_Myproxy = 0;

	mov	ecx, DWORD PTR _this$[ebp]
	mov	DWORD PTR [ecx], 0

; 908  : 		}

	mov	esp, ebp
	pop	ebp
	ret	0
?_Free_proxy@?$_Deque_alloc@$0A@U?$_Deque_base_types@VErrorInfo@Reader@Json@@V?$allocator@VErrorInfo@Reader@Json@@@std@@@std@@@std@@QAEXXZ ENDP ; std::_Deque_alloc<0,std::_Deque_base_types<Json::Reader::ErrorInfo,std::allocator<Json::Reader::ErrorInfo> > >::_Free_proxy
_TEXT	ENDS
; Function compile flags: /Odtp
; File c:\program files (x86)\microsoft visual studio 12.0\vc\include\deque
;	COMDAT ?_Alloc_proxy@?$_Deque_alloc@$0A@U?$_Deque_base_types@VErrorInfo@Reader@Json@@V?$allocator@VErrorInfo@Reader@Json@@@std@@@std@@@std@@QAEXXZ
_TEXT	SEGMENT
$T1 = -16						; size = 8
_this$ = -8						; size = 4
__Alproxy$ = -1						; size = 1
?_Alloc_proxy@?$_Deque_alloc@$0A@U?$_Deque_base_types@VErrorInfo@Reader@Json@@V?$allocator@VErrorInfo@Reader@Json@@@std@@@std@@@std@@QAEXXZ PROC ; std::_Deque_alloc<0,std::_Deque_base_types<Json::Reader::ErrorInfo,std::allocator<Json::Reader::ErrorInfo> > >::_Alloc_proxy, COMDAT
; _this$ = ecx

; 892  : 		{	// construct proxy from _Alval

	push	ebp
	mov	ebp, esp
	sub	esp, 16					; 00000010H
	mov	DWORD PTR _this$[ebp], ecx

; 893  : 		typename _Alty::template rebind<_Container_proxy>::other
; 894  : 			_Alproxy;

	lea	ecx, DWORD PTR __Alproxy$[ebp]
	call	??0?$_Wrap_alloc@V?$allocator@U_Container_proxy@std@@@std@@@std@@QAE@XZ ; std::_Wrap_alloc<std::allocator<std::_Container_proxy> >::_Wrap_alloc<std::allocator<std::_Container_proxy> >

; 895  : 		this->_Myproxy = _Alproxy.allocate(1);

	push	1
	lea	ecx, DWORD PTR __Alproxy$[ebp]
	call	?allocate@?$_Wrap_alloc@V?$allocator@U_Container_proxy@std@@@std@@@std@@QAEPAU_Container_proxy@2@I@Z ; std::_Wrap_alloc<std::allocator<std::_Container_proxy> >::allocate
	mov	ecx, DWORD PTR _this$[ebp]
	mov	DWORD PTR [ecx], eax

; 896  : 		_Alproxy.construct(this->_Myproxy, _Container_proxy());

	lea	ecx, DWORD PTR $T1[ebp]
	call	??0_Container_proxy@std@@QAE@XZ		; std::_Container_proxy::_Container_proxy
	push	eax
	mov	edx, DWORD PTR _this$[ebp]
	mov	eax, DWORD PTR [edx]
	push	eax
	lea	ecx, DWORD PTR __Alproxy$[ebp]
	call	??$construct@U_Container_proxy@std@@U12@@?$_Wrap_alloc@V?$allocator@U_Container_proxy@std@@@std@@@std@@QAEXPAU_Container_proxy@1@$$QAU21@@Z ; std::_Wrap_alloc<std::allocator<std::_Container_proxy> >::construct<std::_Container_proxy,std::_Container_proxy>

; 897  : 		this->_Myproxy->_Mycont = this;

	mov	ecx, DWORD PTR _this$[ebp]
	mov	edx, DWORD PTR [ecx]
	mov	eax, DWORD PTR _this$[ebp]
	mov	DWORD PTR [edx], eax

; 898  : 		}

	mov	esp, ebp
	pop	ebp
	ret	0
?_Alloc_proxy@?$_Deque_alloc@$0A@U?$_Deque_base_types@VErrorInfo@Reader@Json@@V?$allocator@VErrorInfo@Reader@Json@@@std@@@std@@@std@@QAEXXZ ENDP ; std::_Deque_alloc<0,std::_Deque_base_types<Json::Reader::ErrorInfo,std::allocator<Json::Reader::ErrorInfo> > >::_Alloc_proxy
_TEXT	ENDS
; Function compile flags: /Odtp
; File c:\program files (x86)\microsoft visual studio 12.0\vc\include\deque
;	COMDAT ??1?$_Deque_alloc@$0A@U?$_Deque_base_types@VErrorInfo@Reader@Json@@V?$allocator@VErrorInfo@Reader@Json@@@std@@@std@@@std@@QAE@XZ
_TEXT	SEGMENT
_this$ = -4						; size = 4
??1?$_Deque_alloc@$0A@U?$_Deque_base_types@VErrorInfo@Reader@Json@@V?$allocator@VErrorInfo@Reader@Json@@@std@@@std@@@std@@QAE@XZ PROC ; std::_Deque_alloc<0,std::_Deque_base_types<Json::Reader::ErrorInfo,std::allocator<Json::Reader::ErrorInfo> > >::~_Deque_alloc<0,std::_Deque_base_types<Json::Reader::ErrorInfo,std::allocator<Json::Reader::ErrorInfo> > >, COMDAT
; _this$ = ecx

; 878  : 		{	// destroy proxy

	push	ebp
	mov	ebp, esp
	push	ecx
	mov	DWORD PTR _this$[ebp], ecx

; 879  : 		_Free_proxy();

	mov	ecx, DWORD PTR _this$[ebp]
	call	?_Free_proxy@?$_Deque_alloc@$0A@U?$_Deque_base_types@VErrorInfo@Reader@Json@@V?$allocator@VErrorInfo@Reader@Json@@@std@@@std@@@std@@QAEXXZ ; std::_Deque_alloc<0,std::_Deque_base_types<Json::Reader::ErrorInfo,std::allocator<Json::Reader::ErrorInfo> > >::_Free_proxy

; 880  : 		}

	mov	ecx, DWORD PTR _this$[ebp]
	call	??1?$_Deque_val@U?$_Deque_simple_types@VErrorInfo@Reader@Json@@@std@@@std@@QAE@XZ
	mov	esp, ebp
	pop	ebp
	ret	0
??1?$_Deque_alloc@$0A@U?$_Deque_base_types@VErrorInfo@Reader@Json@@V?$allocator@VErrorInfo@Reader@Json@@@std@@@std@@@std@@QAE@XZ ENDP ; std::_Deque_alloc<0,std::_Deque_base_types<Json::Reader::ErrorInfo,std::allocator<Json::Reader::ErrorInfo> > >::~_Deque_alloc<0,std::_Deque_base_types<Json::Reader::ErrorInfo,std::allocator<Json::Reader::ErrorInfo> > >
_TEXT	ENDS
; Function compile flags: /Odtp
; File c:\program files (x86)\microsoft visual studio 12.0\vc\include\deque
;	COMDAT ??0?$_Deque_alloc@$0A@U?$_Deque_base_types@VErrorInfo@Reader@Json@@V?$allocator@VErrorInfo@Reader@Json@@@std@@@std@@@std@@QAE@ABV?$allocator@VErrorInfo@Reader@Json@@@1@@Z
_TEXT	SEGMENT
_this$ = -16						; size = 4
__$EHRec$ = -12						; size = 12
___formal$ = 8						; size = 4
??0?$_Deque_alloc@$0A@U?$_Deque_base_types@VErrorInfo@Reader@Json@@V?$allocator@VErrorInfo@Reader@Json@@@std@@@std@@@std@@QAE@ABV?$allocator@VErrorInfo@Reader@Json@@@1@@Z PROC ; std::_Deque_alloc<0,std::_Deque_base_types<Json::Reader::ErrorInfo,std::allocator<Json::Reader::ErrorInfo> > >::_Deque_alloc<0,std::_Deque_base_types<Json::Reader::ErrorInfo,std::allocator<Json::Reader::ErrorInfo> > >, COMDAT
; _this$ = ecx

; 872  : 	_Deque_alloc(const _Alloc& = _Alloc())

	push	ebp
	mov	ebp, esp
	push	-1
	push	__ehhandler$??0?$_Deque_alloc@$0A@U?$_Deque_base_types@VErrorInfo@Reader@Json@@V?$allocator@VErrorInfo@Reader@Json@@@std@@@std@@@std@@QAE@ABV?$allocator@VErrorInfo@Reader@Json@@@1@@Z
	mov	eax, DWORD PTR fs:0
	push	eax
	push	ecx
	mov	eax, DWORD PTR ___security_cookie
	xor	eax, ebp
	push	eax
	lea	eax, DWORD PTR __$EHRec$[ebp]
	mov	DWORD PTR fs:0, eax
	mov	DWORD PTR _this$[ebp], ecx
	mov	ecx, DWORD PTR _this$[ebp]
	call	??0?$_Deque_val@U?$_Deque_simple_types@VErrorInfo@Reader@Json@@@std@@@std@@QAE@XZ ; std::_Deque_val<std::_Deque_simple_types<Json::Reader::ErrorInfo> >::_Deque_val<std::_Deque_simple_types<Json::Reader::ErrorInfo> >
	mov	DWORD PTR __$EHRec$[ebp+8], 0

; 873  : 		{	// construct allocators from _Al
; 874  : 		_Alloc_proxy();

	mov	ecx, DWORD PTR _this$[ebp]
	call	?_Alloc_proxy@?$_Deque_alloc@$0A@U?$_Deque_base_types@VErrorInfo@Reader@Json@@V?$allocator@VErrorInfo@Reader@Json@@@std@@@std@@@std@@QAEXXZ ; std::_Deque_alloc<0,std::_Deque_base_types<Json::Reader::ErrorInfo,std::allocator<Json::Reader::ErrorInfo> > >::_Alloc_proxy

; 875  : 		}

	mov	DWORD PTR __$EHRec$[ebp+8], -1
	mov	eax, DWORD PTR _this$[ebp]
	mov	ecx, DWORD PTR __$EHRec$[ebp]
	mov	DWORD PTR fs:0, ecx
	pop	ecx
	mov	esp, ebp
	pop	ebp
	ret	4
_TEXT	ENDS
;	COMDAT text$x
text$x	SEGMENT
__unwindfunclet$??0?$_Deque_alloc@$0A@U?$_Deque_base_types@VErrorInfo@Reader@Json@@V?$allocator@VErrorInfo@Reader@Json@@@std@@@std@@@std@@QAE@ABV?$allocator@VErrorInfo@Reader@Json@@@1@@Z$0:
	mov	ecx, DWORD PTR _this$[ebp]
	jmp	??1?$_Deque_val@U?$_Deque_simple_types@VErrorInfo@Reader@Json@@@std@@@std@@QAE@XZ
__ehhandler$??0?$_Deque_alloc@$0A@U?$_Deque_base_types@VErrorInfo@Reader@Json@@V?$allocator@VErrorInfo@Reader@Json@@@std@@@std@@@std@@QAE@ABV?$allocator@VErrorInfo@Reader@Json@@@1@@Z:
	mov	edx, DWORD PTR [esp+8]
	lea	eax, DWORD PTR [edx+12]
	mov	ecx, DWORD PTR [edx-8]
	xor	ecx, eax
	call	@__security_check_cookie@4
	mov	eax, OFFSET __ehfuncinfo$??0?$_Deque_alloc@$0A@U?$_Deque_base_types@VErrorInfo@Reader@Json@@V?$allocator@VErrorInfo@Reader@Json@@@std@@@std@@@std@@QAE@ABV?$allocator@VErrorInfo@Reader@Json@@@1@@Z
	jmp	___CxxFrameHandler3
text$x	ENDS
??0?$_Deque_alloc@$0A@U?$_Deque_base_types@VErrorInfo@Reader@Json@@V?$allocator@VErrorInfo@Reader@Json@@@std@@@std@@@std@@QAE@ABV?$allocator@VErrorInfo@Reader@Json@@@1@@Z ENDP ; std::_Deque_alloc<0,std::_Deque_base_types<Json::Reader::ErrorInfo,std::allocator<Json::Reader::ErrorInfo> > >::_Deque_alloc<0,std::_Deque_base_types<Json::Reader::ErrorInfo,std::allocator<Json::Reader::ErrorInfo> > >
; Function compile flags: /Odtp
;	COMDAT ??1?$_Deque_val@U?$_Deque_simple_types@VErrorInfo@Reader@Json@@@std@@@std@@QAE@XZ
_TEXT	SEGMENT
_this$ = -4						; size = 4
??1?$_Deque_val@U?$_Deque_simple_types@VErrorInfo@Reader@Json@@@std@@@std@@QAE@XZ PROC ; std::_Deque_val<std::_Deque_simple_types<Json::Reader::ErrorInfo> >::~_Deque_val<std::_Deque_simple_types<Json::Reader::ErrorInfo> >, COMDAT
; _this$ = ecx
	push	ebp
	mov	ebp, esp
	push	ecx
	mov	DWORD PTR _this$[ebp], ecx
	mov	ecx, DWORD PTR _this$[ebp]
	call	DWORD PTR __imp_??1_Container_base12@std@@QAE@XZ
	mov	esp, ebp
	pop	ebp
	ret	0
??1?$_Deque_val@U?$_Deque_simple_types@VErrorInfo@Reader@Json@@@std@@@std@@QAE@XZ ENDP ; std::_Deque_val<std::_Deque_simple_types<Json::Reader::ErrorInfo> >::~_Deque_val<std::_Deque_simple_types<Json::Reader::ErrorInfo> >
_TEXT	ENDS
; Function compile flags: /Odtp
; File c:\program files (x86)\microsoft visual studio 12.0\vc\include\deque
;	COMDAT ?_Getblock@?$_Deque_val@U?$_Deque_simple_types@VErrorInfo@Reader@Json@@@std@@@std@@QBEII@Z
_TEXT	SEGMENT
_this$ = -4						; size = 4
__Off$ = 8						; size = 4
?_Getblock@?$_Deque_val@U?$_Deque_simple_types@VErrorInfo@Reader@Json@@@std@@@std@@QBEII@Z PROC ; std::_Deque_val<std::_Deque_simple_types<Json::Reader::ErrorInfo> >::_Getblock, COMDAT
; _this$ = ecx

; 780  : 		{	// determine block from offset

	push	ebp
	mov	ebp, esp
	push	ecx
	mov	DWORD PTR _this$[ebp], ecx

; 781  : 			// NB: _Mapsize and _DEQUESIZ are guaranteed to be powers of 2
; 782  : 		return ((_Off / _DEQUESIZ) & (this->_Mapsize - 1));

	mov	eax, DWORD PTR _this$[ebp]
	mov	eax, DWORD PTR [eax+8]
	sub	eax, 1
	and	eax, DWORD PTR __Off$[ebp]

; 783  : 		}

	mov	esp, ebp
	pop	ebp
	ret	4
?_Getblock@?$_Deque_val@U?$_Deque_simple_types@VErrorInfo@Reader@Json@@@std@@@std@@QBEII@Z ENDP ; std::_Deque_val<std::_Deque_simple_types<Json::Reader::ErrorInfo> >::_Getblock
_TEXT	ENDS
; Function compile flags: /Odtp
; File c:\program files (x86)\microsoft visual studio 12.0\vc\include\deque
;	COMDAT ??0?$_Deque_val@U?$_Deque_simple_types@VErrorInfo@Reader@Json@@@std@@@std@@QAE@XZ
_TEXT	SEGMENT
_this$ = -4						; size = 4
??0?$_Deque_val@U?$_Deque_simple_types@VErrorInfo@Reader@Json@@@std@@@std@@QAE@XZ PROC ; std::_Deque_val<std::_Deque_simple_types<Json::Reader::ErrorInfo> >::_Deque_val<std::_Deque_simple_types<Json::Reader::ErrorInfo> >, COMDAT
; _this$ = ecx

; 771  : 	_Deque_val()

	push	ebp
	mov	ebp, esp
	push	ecx
	mov	DWORD PTR _this$[ebp], ecx
	mov	ecx, DWORD PTR _this$[ebp]
	call	DWORD PTR __imp_??0_Container_base12@std@@QAE@XZ

; 772  : 		{	// initialize values
; 773  : 		_Map = _Mapptr();

	mov	eax, DWORD PTR _this$[ebp]
	mov	DWORD PTR [eax+4], 0

; 774  : 		_Mapsize = 0;

	mov	ecx, DWORD PTR _this$[ebp]
	mov	DWORD PTR [ecx+8], 0

; 775  : 		_Myoff = 0;

	mov	edx, DWORD PTR _this$[ebp]
	mov	DWORD PTR [edx+12], 0

; 776  : 		_Mysize = 0;

	mov	eax, DWORD PTR _this$[ebp]
	mov	DWORD PTR [eax+16], 0

; 777  : 		}

	mov	eax, DWORD PTR _this$[ebp]
	mov	esp, ebp
	pop	ebp
	ret	0
??0?$_Deque_val@U?$_Deque_simple_types@VErrorInfo@Reader@Json@@@std@@@std@@QAE@XZ ENDP ; std::_Deque_val<std::_Deque_simple_types<Json::Reader::ErrorInfo> >::_Deque_val<std::_Deque_simple_types<Json::Reader::ErrorInfo> >
_TEXT	ENDS
; Function compile flags: /Odtp
; File c:\program files (x86)\microsoft visual studio 12.0\vc\include\xmemory0
;	COMDAT ?deallocate@?$_Wrap_alloc@V?$allocator@PAVErrorInfo@Reader@Json@@@std@@@std@@QAEXPAPAVErrorInfo@Reader@Json@@I@Z
_TEXT	SEGMENT
_this$ = -4						; size = 4
__Ptr$ = 8						; size = 4
__Count$ = 12						; size = 4
?deallocate@?$_Wrap_alloc@V?$allocator@PAVErrorInfo@Reader@Json@@@std@@@std@@QAEXPAPAVErrorInfo@Reader@Json@@I@Z PROC ; std::_Wrap_alloc<std::allocator<Json::Reader::ErrorInfo *> >::deallocate, COMDAT
; _this$ = ecx

; 857  : 		{	// deallocate object at _Ptr, ignore size

	push	ebp
	mov	ebp, esp
	push	ecx
	mov	DWORD PTR _this$[ebp], ecx

; 858  : 		_Mybase::deallocate(_Ptr, _Count);

	mov	eax, DWORD PTR __Count$[ebp]
	push	eax
	mov	ecx, DWORD PTR __Ptr$[ebp]
	push	ecx
	mov	ecx, DWORD PTR _this$[ebp]
	call	?deallocate@?$allocator@PAVErrorInfo@Reader@Json@@@std@@QAEXPAPAVErrorInfo@Reader@Json@@I@Z ; std::allocator<Json::Reader::ErrorInfo *>::deallocate

; 859  : 		}

	mov	esp, ebp
	pop	ebp
	ret	8
?deallocate@?$_Wrap_alloc@V?$allocator@PAVErrorInfo@Reader@Json@@@std@@@std@@QAEXPAPAVErrorInfo@Reader@Json@@I@Z ENDP ; std::_Wrap_alloc<std::allocator<Json::Reader::ErrorInfo *> >::deallocate
_TEXT	ENDS
; Function compile flags: /Odtp
; File c:\program files (x86)\microsoft visual studio 12.0\vc\include\xmemory0
;	COMDAT ?allocate@?$_Wrap_alloc@V?$allocator@PAVErrorInfo@Reader@Json@@@std@@@std@@QAEPAPAVErrorInfo@Reader@Json@@I@Z
_TEXT	SEGMENT
_this$ = -4						; size = 4
__Count$ = 8						; size = 4
?allocate@?$_Wrap_alloc@V?$allocator@PAVErrorInfo@Reader@Json@@@std@@@std@@QAEPAPAVErrorInfo@Reader@Json@@I@Z PROC ; std::_Wrap_alloc<std::allocator<Json::Reader::ErrorInfo *> >::allocate, COMDAT
; _this$ = ecx

; 846  : 		{	// allocate array of _Count elements

	push	ebp
	mov	ebp, esp
	push	ecx
	mov	DWORD PTR _this$[ebp], ecx

; 847  : 		return (_Mybase::allocate(_Count));

	mov	eax, DWORD PTR __Count$[ebp]
	push	eax
	mov	ecx, DWORD PTR _this$[ebp]
	call	?allocate@?$allocator@PAVErrorInfo@Reader@Json@@@std@@QAEPAPAVErrorInfo@Reader@Json@@I@Z ; std::allocator<Json::Reader::ErrorInfo *>::allocate

; 848  : 		}

	mov	esp, ebp
	pop	ebp
	ret	4
?allocate@?$_Wrap_alloc@V?$allocator@PAVErrorInfo@Reader@Json@@@std@@@std@@QAEPAPAVErrorInfo@Reader@Json@@I@Z ENDP ; std::_Wrap_alloc<std::allocator<Json::Reader::ErrorInfo *> >::allocate
_TEXT	ENDS
; Function compile flags: /Odtp
; File c:\program files (x86)\microsoft visual studio 12.0\vc\include\xmemory0
;	COMDAT ?allocate@?$allocator@PAVErrorInfo@Reader@Json@@@std@@QAEPAPAVErrorInfo@Reader@Json@@I@Z
_TEXT	SEGMENT
_this$ = -4						; size = 4
__Count$ = 8						; size = 4
?allocate@?$allocator@PAVErrorInfo@Reader@Json@@@std@@QAEPAPAVErrorInfo@Reader@Json@@I@Z PROC ; std::allocator<Json::Reader::ErrorInfo *>::allocate, COMDAT
; _this$ = ecx

; 577  : 		{	// allocate array of _Count elements

	push	ebp
	mov	ebp, esp
	push	ecx
	mov	DWORD PTR _this$[ebp], ecx

; 578  : 		return (_Allocate(_Count, (pointer)0));

	push	0
	mov	eax, DWORD PTR __Count$[ebp]
	push	eax
	call	??$_Allocate@PAVErrorInfo@Reader@Json@@@std@@YAPAPAVErrorInfo@Reader@Json@@IPAPAV123@@Z ; std::_Allocate<Json::Reader::ErrorInfo *>
	add	esp, 8

; 579  : 		}

	mov	esp, ebp
	pop	ebp
	ret	4
?allocate@?$allocator@PAVErrorInfo@Reader@Json@@@std@@QAEPAPAVErrorInfo@Reader@Json@@I@Z ENDP ; std::allocator<Json::Reader::ErrorInfo *>::allocate
_TEXT	ENDS
; Function compile flags: /Odtp
; File c:\program files (x86)\microsoft visual studio 12.0\vc\include\xmemory0
;	COMDAT ?deallocate@?$allocator@PAVErrorInfo@Reader@Json@@@std@@QAEXPAPAVErrorInfo@Reader@Json@@I@Z
_TEXT	SEGMENT
_this$ = -4						; size = 4
__Ptr$ = 8						; size = 4
___formal$ = 12						; size = 4
?deallocate@?$allocator@PAVErrorInfo@Reader@Json@@@std@@QAEXPAPAVErrorInfo@Reader@Json@@I@Z PROC ; std::allocator<Json::Reader::ErrorInfo *>::deallocate, COMDAT
; _this$ = ecx

; 572  : 		{	// deallocate object at _Ptr, ignore size

	push	ebp
	mov	ebp, esp
	push	ecx
	mov	DWORD PTR _this$[ebp], ecx

; 573  : 		::operator delete(_Ptr);

	mov	eax, DWORD PTR __Ptr$[ebp]
	push	eax
	call	??3@YAXPAX@Z				; operator delete
	add	esp, 4

; 574  : 		}

	mov	esp, ebp
	pop	ebp
	ret	8
?deallocate@?$allocator@PAVErrorInfo@Reader@Json@@@std@@QAEXPAPAVErrorInfo@Reader@Json@@I@Z ENDP ; std::allocator<Json::Reader::ErrorInfo *>::deallocate
_TEXT	ENDS
; Function compile flags: /Odtp
; File c:\program files (x86)\microsoft visual studio 12.0\vc\include\xmemory0
;	COMDAT ?max_size@?$_Wrap_alloc@V?$allocator@VErrorInfo@Reader@Json@@@std@@@std@@QBEIXZ
_TEXT	SEGMENT
_this$ = -4						; size = 4
?max_size@?$_Wrap_alloc@V?$allocator@VErrorInfo@Reader@Json@@@std@@@std@@QBEIXZ PROC ; std::_Wrap_alloc<std::allocator<Json::Reader::ErrorInfo> >::max_size, COMDAT
; _this$ = ecx

; 883  : 		{	// get maximum size

	push	ebp
	mov	ebp, esp
	push	ecx
	mov	DWORD PTR _this$[ebp], ecx

; 884  : 		return (_Mytraits::max_size(*this));

	mov	eax, DWORD PTR _this$[ebp]
	push	eax
	call	?max_size@?$allocator_traits@V?$allocator@VErrorInfo@Reader@Json@@@std@@@std@@SAIABV?$allocator@VErrorInfo@Reader@Json@@@2@@Z ; std::allocator_traits<std::allocator<Json::Reader::ErrorInfo> >::max_size
	add	esp, 4

; 885  : 		}

	mov	esp, ebp
	pop	ebp
	ret	0
?max_size@?$_Wrap_alloc@V?$allocator@VErrorInfo@Reader@Json@@@std@@@std@@QBEIXZ ENDP ; std::_Wrap_alloc<std::allocator<Json::Reader::ErrorInfo> >::max_size
_TEXT	ENDS
; Function compile flags: /Odtp
; File c:\program files (x86)\microsoft visual studio 12.0\vc\include\xmemory0
;	COMDAT ?construct@?$_Wrap_alloc@V?$allocator@VErrorInfo@Reader@Json@@@std@@@std@@QAEXPAVErrorInfo@Reader@Json@@@Z
_TEXT	SEGMENT
_this$ = -4						; size = 4
__Ptr$ = 8						; size = 4
?construct@?$_Wrap_alloc@V?$allocator@VErrorInfo@Reader@Json@@@std@@@std@@QAEXPAVErrorInfo@Reader@Json@@@Z PROC ; std::_Wrap_alloc<std::allocator<Json::Reader::ErrorInfo> >::construct, COMDAT
; _this$ = ecx

; 862  : 		{	// default construct object at _Ptr

	push	ebp
	mov	ebp, esp
	push	ecx
	mov	DWORD PTR _this$[ebp], ecx

; 863  : 		_Mytraits::construct(*this, _Ptr);

	mov	eax, DWORD PTR __Ptr$[ebp]
	push	eax
	mov	ecx, DWORD PTR _this$[ebp]
	push	ecx
	call	??$construct@VErrorInfo@Reader@Json@@$$$V@?$allocator_traits@V?$allocator@VErrorInfo@Reader@Json@@@std@@@std@@SAXAAV?$allocator@VErrorInfo@Reader@Json@@@1@PAVErrorInfo@Reader@Json@@@Z ; std::allocator_traits<std::allocator<Json::Reader::ErrorInfo> >::construct<Json::Reader::ErrorInfo>
	add	esp, 8

; 864  : 		}

	mov	esp, ebp
	pop	ebp
	ret	4
?construct@?$_Wrap_alloc@V?$allocator@VErrorInfo@Reader@Json@@@std@@@std@@QAEXPAVErrorInfo@Reader@Json@@@Z ENDP ; std::_Wrap_alloc<std::allocator<Json::Reader::ErrorInfo> >::construct
_TEXT	ENDS
; Function compile flags: /Odtp
; File c:\program files (x86)\microsoft visual studio 12.0\vc\include\xmemory0
;	COMDAT ?deallocate@?$_Wrap_alloc@V?$allocator@VErrorInfo@Reader@Json@@@std@@@std@@QAEXPAVErrorInfo@Reader@Json@@I@Z
_TEXT	SEGMENT
_this$ = -4						; size = 4
__Ptr$ = 8						; size = 4
__Count$ = 12						; size = 4
?deallocate@?$_Wrap_alloc@V?$allocator@VErrorInfo@Reader@Json@@@std@@@std@@QAEXPAVErrorInfo@Reader@Json@@I@Z PROC ; std::_Wrap_alloc<std::allocator<Json::Reader::ErrorInfo> >::deallocate, COMDAT
; _this$ = ecx

; 857  : 		{	// deallocate object at _Ptr, ignore size

	push	ebp
	mov	ebp, esp
	push	ecx
	mov	DWORD PTR _this$[ebp], ecx

; 858  : 		_Mybase::deallocate(_Ptr, _Count);

	mov	eax, DWORD PTR __Count$[ebp]
	push	eax
	mov	ecx, DWORD PTR __Ptr$[ebp]
	push	ecx
	mov	ecx, DWORD PTR _this$[ebp]
	call	?deallocate@?$allocator@VErrorInfo@Reader@Json@@@std@@QAEXPAVErrorInfo@Reader@Json@@I@Z ; std::allocator<Json::Reader::ErrorInfo>::deallocate

; 859  : 		}

	mov	esp, ebp
	pop	ebp
	ret	8
?deallocate@?$_Wrap_alloc@V?$allocator@VErrorInfo@Reader@Json@@@std@@@std@@QAEXPAVErrorInfo@Reader@Json@@I@Z ENDP ; std::_Wrap_alloc<std::allocator<Json::Reader::ErrorInfo> >::deallocate
_TEXT	ENDS
; Function compile flags: /Odtp
; File c:\program files (x86)\microsoft visual studio 12.0\vc\include\xmemory0
;	COMDAT ?allocate@?$_Wrap_alloc@V?$allocator@VErrorInfo@Reader@Json@@@std@@@std@@QAEPAVErrorInfo@Reader@Json@@I@Z
_TEXT	SEGMENT
_this$ = -4						; size = 4
__Count$ = 8						; size = 4
?allocate@?$_Wrap_alloc@V?$allocator@VErrorInfo@Reader@Json@@@std@@@std@@QAEPAVErrorInfo@Reader@Json@@I@Z PROC ; std::_Wrap_alloc<std::allocator<Json::Reader::ErrorInfo> >::allocate, COMDAT
; _this$ = ecx

; 846  : 		{	// allocate array of _Count elements

	push	ebp
	mov	ebp, esp
	push	ecx
	mov	DWORD PTR _this$[ebp], ecx

; 847  : 		return (_Mybase::allocate(_Count));

	mov	eax, DWORD PTR __Count$[ebp]
	push	eax
	mov	ecx, DWORD PTR _this$[ebp]
	call	?allocate@?$allocator@VErrorInfo@Reader@Json@@@std@@QAEPAVErrorInfo@Reader@Json@@I@Z ; std::allocator<Json::Reader::ErrorInfo>::allocate

; 848  : 		}

	mov	esp, ebp
	pop	ebp
	ret	4
?allocate@?$_Wrap_alloc@V?$allocator@VErrorInfo@Reader@Json@@@std@@@std@@QAEPAVErrorInfo@Reader@Json@@I@Z ENDP ; std::_Wrap_alloc<std::allocator<Json::Reader::ErrorInfo> >::allocate
_TEXT	ENDS
; Function compile flags: /Odtp
; File c:\program files (x86)\microsoft visual studio 12.0\vc\include\xmemory0
;	COMDAT ??0?$_Wrap_alloc@V?$allocator@VErrorInfo@Reader@Json@@@std@@@std@@QAE@XZ
_TEXT	SEGMENT
_this$ = -4						; size = 4
??0?$_Wrap_alloc@V?$allocator@VErrorInfo@Reader@Json@@@std@@@std@@QAE@XZ PROC ; std::_Wrap_alloc<std::allocator<Json::Reader::ErrorInfo> >::_Wrap_alloc<std::allocator<Json::Reader::ErrorInfo> >, COMDAT
; _this$ = ecx

; 801  : 		{	// construct default allocator (do nothing)

	push	ebp
	mov	ebp, esp
	push	ecx
	mov	DWORD PTR _this$[ebp], ecx
	mov	ecx, DWORD PTR _this$[ebp]
	call	??0?$allocator@VErrorInfo@Reader@Json@@@std@@QAE@XZ ; std::allocator<Json::Reader::ErrorInfo>::allocator<Json::Reader::ErrorInfo>

; 802  : 		}

	mov	eax, DWORD PTR _this$[ebp]
	mov	esp, ebp
	pop	ebp
	ret	0
??0?$_Wrap_alloc@V?$allocator@VErrorInfo@Reader@Json@@@std@@@std@@QAE@XZ ENDP ; std::_Wrap_alloc<std::allocator<Json::Reader::ErrorInfo> >::_Wrap_alloc<std::allocator<Json::Reader::ErrorInfo> >
_TEXT	ENDS
; Function compile flags: /Odtp
; File c:\program files (x86)\microsoft visual studio 12.0\vc\include\xmemory0
;	COMDAT ?max_size@?$allocator_traits@V?$allocator@VErrorInfo@Reader@Json@@@std@@@std@@SAIABV?$allocator@VErrorInfo@Reader@Json@@@2@@Z
_TEXT	SEGMENT
__Al$ = 8						; size = 4
?max_size@?$allocator_traits@V?$allocator@VErrorInfo@Reader@Json@@@std@@@std@@SAIABV?$allocator@VErrorInfo@Reader@Json@@@2@@Z PROC ; std::allocator_traits<std::allocator<Json::Reader::ErrorInfo> >::max_size, COMDAT

; 734  : 		{	// get maximum size

	push	ebp
	mov	ebp, esp

; 735  : 		return (_Al.max_size());

	mov	ecx, DWORD PTR __Al$[ebp]
	call	?max_size@?$allocator@VErrorInfo@Reader@Json@@@std@@QBEIXZ ; std::allocator<Json::Reader::ErrorInfo>::max_size

; 736  : 		}

	pop	ebp
	ret	0
?max_size@?$allocator_traits@V?$allocator@VErrorInfo@Reader@Json@@@std@@@std@@SAIABV?$allocator@VErrorInfo@Reader@Json@@@2@@Z ENDP ; std::allocator_traits<std::allocator<Json::Reader::ErrorInfo> >::max_size
_TEXT	ENDS
; Function compile flags: /Odtp
; File c:\program files (x86)\microsoft visual studio 12.0\vc\include\xmemory0
;	COMDAT ?max_size@?$allocator@VErrorInfo@Reader@Json@@@std@@QBEIXZ
_TEXT	SEGMENT
_this$ = -4						; size = 4
?max_size@?$allocator@VErrorInfo@Reader@Json@@@std@@QBEIXZ PROC ; std::allocator<Json::Reader::ErrorInfo>::max_size, COMDAT
; _this$ = ecx

; 611  : 		{	// estimate maximum array size

	push	ebp
	mov	ebp, esp
	push	ecx
	mov	DWORD PTR _this$[ebp], ecx

; 612  : 		return ((size_t)(-1) / sizeof (_Ty));

	mov	eax, 107374182				; 06666666H

; 613  : 		}

	mov	esp, ebp
	pop	ebp
	ret	0
?max_size@?$allocator@VErrorInfo@Reader@Json@@@std@@QBEIXZ ENDP ; std::allocator<Json::Reader::ErrorInfo>::max_size
_TEXT	ENDS
; Function compile flags: /Odtp
; File c:\program files (x86)\microsoft visual studio 12.0\vc\include\xmemory0
;	COMDAT ?construct@?$allocator@VErrorInfo@Reader@Json@@@std@@QAEXPAVErrorInfo@Reader@Json@@ABV345@@Z
_TEXT	SEGMENT
$T2 = -28						; size = 4
_this$ = -24						; size = 4
tv74 = -20						; size = 4
$T3 = -16						; size = 4
__$EHRec$ = -12						; size = 12
__Ptr$ = 8						; size = 4
__Val$ = 12						; size = 4
?construct@?$allocator@VErrorInfo@Reader@Json@@@std@@QAEXPAVErrorInfo@Reader@Json@@ABV345@@Z PROC ; std::allocator<Json::Reader::ErrorInfo>::construct, COMDAT
; _this$ = ecx

; 592  : 		{	// construct object at _Ptr with value _Val

	push	ebp
	mov	ebp, esp
	push	-1
	push	__ehhandler$?construct@?$allocator@VErrorInfo@Reader@Json@@@std@@QAEXPAVErrorInfo@Reader@Json@@ABV345@@Z
	mov	eax, DWORD PTR fs:0
	push	eax
	sub	esp, 16					; 00000010H
	mov	eax, DWORD PTR ___security_cookie
	xor	eax, ebp
	push	eax
	lea	eax, DWORD PTR __$EHRec$[ebp]
	mov	DWORD PTR fs:0, eax
	mov	DWORD PTR _this$[ebp], ecx

; 593  : 		::new ((void *)_Ptr) _Ty(_Val);

	mov	eax, DWORD PTR __Ptr$[ebp]
	push	eax
	push	40					; 00000028H
	call	??2@YAPAXIPAX@Z				; operator new
	add	esp, 8
	mov	DWORD PTR $T3[ebp], eax
	mov	DWORD PTR __$EHRec$[ebp+8], 0
	cmp	DWORD PTR $T3[ebp], 0
	je	SHORT $LN3@construct
	mov	ecx, DWORD PTR __Val$[ebp]
	push	ecx
	mov	ecx, DWORD PTR $T3[ebp]
	call	??0ErrorInfo@Reader@Json@@QAE@ABV012@@Z
	mov	DWORD PTR tv74[ebp], eax
	jmp	SHORT $LN4@construct
$LN3@construct:
	mov	DWORD PTR tv74[ebp], 0
$LN4@construct:
	mov	edx, DWORD PTR tv74[ebp]
	mov	DWORD PTR $T2[ebp], edx
	mov	DWORD PTR __$EHRec$[ebp+8], -1

; 594  : 		}

	mov	ecx, DWORD PTR __$EHRec$[ebp]
	mov	DWORD PTR fs:0, ecx
	pop	ecx
	mov	esp, ebp
	pop	ebp
	ret	8
_TEXT	ENDS
;	COMDAT text$x
text$x	SEGMENT
__unwindfunclet$?construct@?$allocator@VErrorInfo@Reader@Json@@@std@@QAEXPAVErrorInfo@Reader@Json@@ABV345@@Z$0:
	mov	eax, DWORD PTR __Ptr$[ebp]
	push	eax
	mov	eax, DWORD PTR $T3[ebp]
	push	eax
	call	??3@YAXPAX0@Z				; operator delete
	add	esp, 8
	ret	0
__ehhandler$?construct@?$allocator@VErrorInfo@Reader@Json@@@std@@QAEXPAVErrorInfo@Reader@Json@@ABV345@@Z:
	mov	edx, DWORD PTR [esp+8]
	lea	eax, DWORD PTR [edx+12]
	mov	ecx, DWORD PTR [edx-20]
	xor	ecx, eax
	call	@__security_check_cookie@4
	mov	eax, OFFSET __ehfuncinfo$?construct@?$allocator@VErrorInfo@Reader@Json@@@std@@QAEXPAVErrorInfo@Reader@Json@@ABV345@@Z
	jmp	___CxxFrameHandler3
text$x	ENDS
?construct@?$allocator@VErrorInfo@Reader@Json@@@std@@QAEXPAVErrorInfo@Reader@Json@@ABV345@@Z ENDP ; std::allocator<Json::Reader::ErrorInfo>::construct
; Function compile flags: /Odtp
; File c:\program files (x86)\microsoft visual studio 12.0\vc\include\xmemory0
;	COMDAT ?construct@?$allocator@VErrorInfo@Reader@Json@@@std@@QAEXPAVErrorInfo@Reader@Json@@@Z
_TEXT	SEGMENT
$T2 = -28						; size = 4
_this$ = -24						; size = 4
tv73 = -20						; size = 4
$T3 = -16						; size = 4
__$EHRec$ = -12						; size = 12
__Ptr$ = 8						; size = 4
?construct@?$allocator@VErrorInfo@Reader@Json@@@std@@QAEXPAVErrorInfo@Reader@Json@@@Z PROC ; std::allocator<Json::Reader::ErrorInfo>::construct, COMDAT
; _this$ = ecx

; 587  : 		{	// default construct object at _Ptr

	push	ebp
	mov	ebp, esp
	push	-1
	push	__ehhandler$?construct@?$allocator@VErrorInfo@Reader@Json@@@std@@QAEXPAVErrorInfo@Reader@Json@@@Z
	mov	eax, DWORD PTR fs:0
	push	eax
	sub	esp, 16					; 00000010H
	mov	eax, DWORD PTR ___security_cookie
	xor	eax, ebp
	push	eax
	lea	eax, DWORD PTR __$EHRec$[ebp]
	mov	DWORD PTR fs:0, eax
	mov	DWORD PTR _this$[ebp], ecx

; 588  : 		::new ((void *)_Ptr) _Ty();

	mov	eax, DWORD PTR __Ptr$[ebp]
	push	eax
	push	40					; 00000028H
	call	??2@YAPAXIPAX@Z				; operator new
	add	esp, 8
	mov	DWORD PTR $T3[ebp], eax
	mov	DWORD PTR __$EHRec$[ebp+8], 0
	cmp	DWORD PTR $T3[ebp], 0
	je	SHORT $LN3@construct
	mov	ecx, DWORD PTR $T3[ebp]
	call	??0ErrorInfo@Reader@Json@@QAE@XZ
	mov	DWORD PTR tv73[ebp], eax
	jmp	SHORT $LN4@construct
$LN3@construct:
	mov	DWORD PTR tv73[ebp], 0
$LN4@construct:
	mov	ecx, DWORD PTR tv73[ebp]
	mov	DWORD PTR $T2[ebp], ecx
	mov	DWORD PTR __$EHRec$[ebp+8], -1

; 589  : 		}

	mov	ecx, DWORD PTR __$EHRec$[ebp]
	mov	DWORD PTR fs:0, ecx
	pop	ecx
	mov	esp, ebp
	pop	ebp
	ret	4
_TEXT	ENDS
;	COMDAT text$x
text$x	SEGMENT
__unwindfunclet$?construct@?$allocator@VErrorInfo@Reader@Json@@@std@@QAEXPAVErrorInfo@Reader@Json@@@Z$0:
	mov	eax, DWORD PTR __Ptr$[ebp]
	push	eax
	mov	eax, DWORD PTR $T3[ebp]
	push	eax
	call	??3@YAXPAX0@Z				; operator delete
	add	esp, 8
	ret	0
__ehhandler$?construct@?$allocator@VErrorInfo@Reader@Json@@@std@@QAEXPAVErrorInfo@Reader@Json@@@Z:
	mov	edx, DWORD PTR [esp+8]
	lea	eax, DWORD PTR [edx+12]
	mov	ecx, DWORD PTR [edx-20]
	xor	ecx, eax
	call	@__security_check_cookie@4
	mov	eax, OFFSET __ehfuncinfo$?construct@?$allocator@VErrorInfo@Reader@Json@@@std@@QAEXPAVErrorInfo@Reader@Json@@@Z
	jmp	___CxxFrameHandler3
text$x	ENDS
?construct@?$allocator@VErrorInfo@Reader@Json@@@std@@QAEXPAVErrorInfo@Reader@Json@@@Z ENDP ; std::allocator<Json::Reader::ErrorInfo>::construct
; Function compile flags: /Odtp
; File c:\program files (x86)\microsoft visual studio 12.0\vc\include\xmemory0
;	COMDAT ?allocate@?$allocator@VErrorInfo@Reader@Json@@@std@@QAEPAVErrorInfo@Reader@Json@@I@Z
_TEXT	SEGMENT
_this$ = -4						; size = 4
__Count$ = 8						; size = 4
?allocate@?$allocator@VErrorInfo@Reader@Json@@@std@@QAEPAVErrorInfo@Reader@Json@@I@Z PROC ; std::allocator<Json::Reader::ErrorInfo>::allocate, COMDAT
; _this$ = ecx

; 577  : 		{	// allocate array of _Count elements

	push	ebp
	mov	ebp, esp
	push	ecx
	mov	DWORD PTR _this$[ebp], ecx

; 578  : 		return (_Allocate(_Count, (pointer)0));

	push	0
	mov	eax, DWORD PTR __Count$[ebp]
	push	eax
	call	??$_Allocate@VErrorInfo@Reader@Json@@@std@@YAPAVErrorInfo@Reader@Json@@IPAV123@@Z ; std::_Allocate<Json::Reader::ErrorInfo>
	add	esp, 8

; 579  : 		}

	mov	esp, ebp
	pop	ebp
	ret	4
?allocate@?$allocator@VErrorInfo@Reader@Json@@@std@@QAEPAVErrorInfo@Reader@Json@@I@Z ENDP ; std::allocator<Json::Reader::ErrorInfo>::allocate
_TEXT	ENDS
; Function compile flags: /Odtp
; File c:\program files (x86)\microsoft visual studio 12.0\vc\include\xmemory0
;	COMDAT ?deallocate@?$allocator@VErrorInfo@Reader@Json@@@std@@QAEXPAVErrorInfo@Reader@Json@@I@Z
_TEXT	SEGMENT
_this$ = -4						; size = 4
__Ptr$ = 8						; size = 4
___formal$ = 12						; size = 4
?deallocate@?$allocator@VErrorInfo@Reader@Json@@@std@@QAEXPAVErrorInfo@Reader@Json@@I@Z PROC ; std::allocator<Json::Reader::ErrorInfo>::deallocate, COMDAT
; _this$ = ecx

; 572  : 		{	// deallocate object at _Ptr, ignore size

	push	ebp
	mov	ebp, esp
	push	ecx
	mov	DWORD PTR _this$[ebp], ecx

; 573  : 		::operator delete(_Ptr);

	mov	eax, DWORD PTR __Ptr$[ebp]
	push	eax
	call	??3@YAXPAX@Z				; operator delete
	add	esp, 4

; 574  : 		}

	mov	esp, ebp
	pop	ebp
	ret	8
?deallocate@?$allocator@VErrorInfo@Reader@Json@@@std@@QAEXPAVErrorInfo@Reader@Json@@I@Z ENDP ; std::allocator<Json::Reader::ErrorInfo>::deallocate
_TEXT	ENDS
; Function compile flags: /Odtp
; File c:\program files (x86)\microsoft visual studio 12.0\vc\include\xmemory0
;	COMDAT ??0?$allocator@VErrorInfo@Reader@Json@@@std@@QAE@XZ
_TEXT	SEGMENT
_this$ = -4						; size = 4
??0?$allocator@VErrorInfo@Reader@Json@@@std@@QAE@XZ PROC ; std::allocator<Json::Reader::ErrorInfo>::allocator<Json::Reader::ErrorInfo>, COMDAT
; _this$ = ecx

; 552  : 	allocator() _THROW0()

	push	ebp
	mov	ebp, esp
	push	ecx
	mov	DWORD PTR _this$[ebp], ecx

; 553  : 		{	// construct default allocator (do nothing)
; 554  : 		}

	mov	eax, DWORD PTR _this$[ebp]
	mov	esp, ebp
	pop	ebp
	ret	0
??0?$allocator@VErrorInfo@Reader@Json@@@std@@QAE@XZ ENDP ; std::allocator<Json::Reader::ErrorInfo>::allocator<Json::Reader::ErrorInfo>
_TEXT	ENDS
; Function compile flags: /Odtp
;	COMDAT ??1?$stack@PAVValue@Json@@V?$deque@PAVValue@Json@@V?$allocator@PAVValue@Json@@@std@@@std@@@std@@QAE@XZ
_TEXT	SEGMENT
_this$ = -4						; size = 4
??1?$stack@PAVValue@Json@@V?$deque@PAVValue@Json@@V?$allocator@PAVValue@Json@@@std@@@std@@@std@@QAE@XZ PROC ; std::stack<Json::Value *,std::deque<Json::Value *,std::allocator<Json::Value *> > >::~stack<Json::Value *,std::deque<Json::Value *,std::allocator<Json::Value *> > >, COMDAT
; _this$ = ecx
	push	ebp
	mov	ebp, esp
	push	ecx
	mov	DWORD PTR _this$[ebp], ecx
	mov	ecx, DWORD PTR _this$[ebp]
	call	??1?$deque@PAVValue@Json@@V?$allocator@PAVValue@Json@@@std@@@std@@QAE@XZ ; std::deque<Json::Value *,std::allocator<Json::Value *> >::~deque<Json::Value *,std::allocator<Json::Value *> >
	mov	esp, ebp
	pop	ebp
	ret	0
??1?$stack@PAVValue@Json@@V?$deque@PAVValue@Json@@V?$allocator@PAVValue@Json@@@std@@@std@@@std@@QAE@XZ ENDP ; std::stack<Json::Value *,std::deque<Json::Value *,std::allocator<Json::Value *> > >::~stack<Json::Value *,std::deque<Json::Value *,std::allocator<Json::Value *> > >
_TEXT	ENDS
; Function compile flags: /Odtp
; File c:\program files (x86)\microsoft visual studio 12.0\vc\include\stack
;	COMDAT ?pop@?$stack@PAVValue@Json@@V?$deque@PAVValue@Json@@V?$allocator@PAVValue@Json@@@std@@@std@@@std@@QAEXXZ
_TEXT	SEGMENT
_this$ = -4						; size = 4
?pop@?$stack@PAVValue@Json@@V?$deque@PAVValue@Json@@V?$allocator@PAVValue@Json@@@std@@@std@@@std@@QAEXXZ PROC ; std::stack<Json::Value *,std::deque<Json::Value *,std::allocator<Json::Value *> > >::pop, COMDAT
; _this$ = ecx

; 144  : 		{	// erase last element

	push	ebp
	mov	ebp, esp
	push	ecx
	mov	DWORD PTR _this$[ebp], ecx

; 145  : 		c.pop_back();

	mov	ecx, DWORD PTR _this$[ebp]
	call	?pop_back@?$deque@PAVValue@Json@@V?$allocator@PAVValue@Json@@@std@@@std@@QAEXXZ ; std::deque<Json::Value *,std::allocator<Json::Value *> >::pop_back

; 146  : 		}

	mov	esp, ebp
	pop	ebp
	ret	0
?pop@?$stack@PAVValue@Json@@V?$deque@PAVValue@Json@@V?$allocator@PAVValue@Json@@@std@@@std@@@std@@QAEXXZ ENDP ; std::stack<Json::Value *,std::deque<Json::Value *,std::allocator<Json::Value *> > >::pop
_TEXT	ENDS
; Function compile flags: /Odtp
; File c:\program files (x86)\microsoft visual studio 12.0\vc\include\stack
;	COMDAT ?top@?$stack@PAVValue@Json@@V?$deque@PAVValue@Json@@V?$allocator@PAVValue@Json@@@std@@@std@@@std@@QAEAAPAVValue@Json@@XZ
_TEXT	SEGMENT
_this$ = -4						; size = 4
?top@?$stack@PAVValue@Json@@V?$deque@PAVValue@Json@@V?$allocator@PAVValue@Json@@@std@@@std@@@std@@QAEAAPAVValue@Json@@XZ PROC ; std::stack<Json::Value *,std::deque<Json::Value *,std::allocator<Json::Value *> > >::top, COMDAT
; _this$ = ecx

; 129  : 		{	// return last element of mutable stack

	push	ebp
	mov	ebp, esp
	push	ecx
	mov	DWORD PTR _this$[ebp], ecx

; 130  : 		return (c.back());

	mov	ecx, DWORD PTR _this$[ebp]
	call	?back@?$deque@PAVValue@Json@@V?$allocator@PAVValue@Json@@@std@@@std@@QAEAAPAVValue@Json@@XZ ; std::deque<Json::Value *,std::allocator<Json::Value *> >::back

; 131  : 		}

	mov	esp, ebp
	pop	ebp
	ret	0
?top@?$stack@PAVValue@Json@@V?$deque@PAVValue@Json@@V?$allocator@PAVValue@Json@@@std@@@std@@@std@@QAEAAPAVValue@Json@@XZ ENDP ; std::stack<Json::Value *,std::deque<Json::Value *,std::allocator<Json::Value *> > >::top
_TEXT	ENDS
; Function compile flags: /Odtp
; File c:\program files (x86)\microsoft visual studio 12.0\vc\include\stack
;	COMDAT ?empty@?$stack@PAVValue@Json@@V?$deque@PAVValue@Json@@V?$allocator@PAVValue@Json@@@std@@@std@@@std@@QBE_NXZ
_TEXT	SEGMENT
_this$ = -4						; size = 4
?empty@?$stack@PAVValue@Json@@V?$deque@PAVValue@Json@@V?$allocator@PAVValue@Json@@@std@@@std@@@std@@QBE_NXZ PROC ; std::stack<Json::Value *,std::deque<Json::Value *,std::allocator<Json::Value *> > >::empty, COMDAT
; _this$ = ecx

; 119  : 		{	// test if stack is empty

	push	ebp
	mov	ebp, esp
	push	ecx
	mov	DWORD PTR _this$[ebp], ecx

; 120  : 		return (c.empty());

	mov	ecx, DWORD PTR _this$[ebp]
	call	?empty@?$deque@PAVValue@Json@@V?$allocator@PAVValue@Json@@@std@@@std@@QBE_NXZ ; std::deque<Json::Value *,std::allocator<Json::Value *> >::empty

; 121  : 		}

	mov	esp, ebp
	pop	ebp
	ret	0
?empty@?$stack@PAVValue@Json@@V?$deque@PAVValue@Json@@V?$allocator@PAVValue@Json@@@std@@@std@@@std@@QBE_NXZ ENDP ; std::stack<Json::Value *,std::deque<Json::Value *,std::allocator<Json::Value *> > >::empty
_TEXT	ENDS
; Function compile flags: /Odtp
; File c:\program files (x86)\microsoft visual studio 12.0\vc\include\stack
;	COMDAT ?push@?$stack@PAVValue@Json@@V?$deque@PAVValue@Json@@V?$allocator@PAVValue@Json@@@std@@@std@@@std@@QAEX$$QAPAVValue@Json@@@Z
_TEXT	SEGMENT
_this$ = -4						; size = 4
__Val$ = 8						; size = 4
?push@?$stack@PAVValue@Json@@V?$deque@PAVValue@Json@@V?$allocator@PAVValue@Json@@@std@@@std@@@std@@QAEX$$QAPAVValue@Json@@@Z PROC ; std::stack<Json::Value *,std::deque<Json::Value *,std::allocator<Json::Value *> > >::push, COMDAT
; _this$ = ecx

; 107  : 		{	// insert element at beginning

	push	ebp
	mov	ebp, esp
	push	ecx
	mov	DWORD PTR _this$[ebp], ecx

; 108  : 		c.push_back(_STD move(_Val));

	mov	eax, DWORD PTR __Val$[ebp]
	push	eax
	call	??$move@AAPAVValue@Json@@@std@@YA$$QAPAVValue@Json@@AAPAV12@@Z ; std::move<Json::Value * &>
	add	esp, 4
	push	eax
	mov	ecx, DWORD PTR _this$[ebp]
	call	?push_back@?$deque@PAVValue@Json@@V?$allocator@PAVValue@Json@@@std@@@std@@QAEX$$QAPAVValue@Json@@@Z ; std::deque<Json::Value *,std::allocator<Json::Value *> >::push_back

; 109  : 		}

	mov	esp, ebp
	pop	ebp
	ret	4
?push@?$stack@PAVValue@Json@@V?$deque@PAVValue@Json@@V?$allocator@PAVValue@Json@@@std@@@std@@@std@@QAEX$$QAPAVValue@Json@@@Z ENDP ; std::stack<Json::Value *,std::deque<Json::Value *,std::allocator<Json::Value *> > >::push
_TEXT	ENDS
; Function compile flags: /Odtp
; File c:\program files (x86)\microsoft visual studio 12.0\vc\include\stack
;	COMDAT ??0?$stack@PAVValue@Json@@V?$deque@PAVValue@Json@@V?$allocator@PAVValue@Json@@@std@@@std@@@std@@QAE@XZ
_TEXT	SEGMENT
_this$ = -4						; size = 4
??0?$stack@PAVValue@Json@@V?$deque@PAVValue@Json@@V?$allocator@PAVValue@Json@@@std@@@std@@@std@@QAE@XZ PROC ; std::stack<Json::Value *,std::deque<Json::Value *,std::allocator<Json::Value *> > >::stack<Json::Value *,std::deque<Json::Value *,std::allocator<Json::Value *> > >, COMDAT
; _this$ = ecx

; 28   : 		{	// construct with empty container

	push	ebp
	mov	ebp, esp
	push	ecx
	mov	DWORD PTR _this$[ebp], ecx
	mov	ecx, DWORD PTR _this$[ebp]
	call	??0?$deque@PAVValue@Json@@V?$allocator@PAVValue@Json@@@std@@@std@@QAE@XZ ; std::deque<Json::Value *,std::allocator<Json::Value *> >::deque<Json::Value *,std::allocator<Json::Value *> >

; 29   : 		}

	mov	eax, DWORD PTR _this$[ebp]
	mov	esp, ebp
	pop	ebp
	ret	0
??0?$stack@PAVValue@Json@@V?$deque@PAVValue@Json@@V?$allocator@PAVValue@Json@@@std@@@std@@@std@@QAE@XZ ENDP ; std::stack<Json::Value *,std::deque<Json::Value *,std::allocator<Json::Value *> > >::stack<Json::Value *,std::deque<Json::Value *,std::allocator<Json::Value *> > >
_TEXT	ENDS
; Function compile flags: /Odtp
; File c:\program files (x86)\microsoft visual studio 12.0\vc\include\deque
;	COMDAT ?_Tidy@?$deque@PAVValue@Json@@V?$allocator@PAVValue@Json@@@std@@@std@@IAEXXZ
_TEXT	SEGMENT
__Block$1 = -12						; size = 4
_this$ = -8						; size = 4
$T2 = -4						; size = 1
$T3 = -3						; size = 1
$T4 = -2						; size = 1
__Almap$ = -1						; size = 1
?_Tidy@?$deque@PAVValue@Json@@V?$allocator@PAVValue@Json@@@std@@@std@@IAEXXZ PROC ; std::deque<Json::Value *,std::allocator<Json::Value *> >::_Tidy, COMDAT
; _this$ = ecx

; 1827 : 		{	// free all storage

	push	ebp
	mov	ebp, esp
	sub	esp, 12					; 0000000cH
	mov	DWORD PTR _this$[ebp], ecx

; 1828 : 		_Alpty _Almap(this->_Getal());

	lea	eax, DWORD PTR $T4[ebp]
	push	eax
	mov	ecx, DWORD PTR _this$[ebp]
	call	?_Getal@?$_Deque_alloc@$0A@U?$_Deque_base_types@PAVValue@Json@@V?$allocator@PAVValue@Json@@@std@@@std@@@std@@QBE?AU?$_Wrap_alloc@V?$allocator@PAVValue@Json@@@std@@@2@XZ ; std::_Deque_alloc<0,std::_Deque_base_types<Json::Value *,std::allocator<Json::Value *> > >::_Getal
	push	eax
	lea	ecx, DWORD PTR __Almap$[ebp]
	call	??$?0U?$_Wrap_alloc@V?$allocator@PAVValue@Json@@@std@@@std@@@?$_Wrap_alloc@V?$allocator@PAPAVValue@Json@@@std@@@std@@QAE@ABU?$_Wrap_alloc@V?$allocator@PAVValue@Json@@@std@@@1@@Z ; std::_Wrap_alloc<std::allocator<Json::Value * *> >::_Wrap_alloc<std::allocator<Json::Value * *> ><std::_Wrap_alloc<std::allocator<Json::Value *> > >
$LN6@Tidy:

; 1829 : 		while (!empty())

	mov	ecx, DWORD PTR _this$[ebp]
	call	?empty@?$deque@PAVValue@Json@@V?$allocator@PAVValue@Json@@@std@@@std@@QBE_NXZ ; std::deque<Json::Value *,std::allocator<Json::Value *> >::empty
	movzx	ecx, al
	test	ecx, ecx
	jne	SHORT $LN5@Tidy

; 1830 : 			pop_back();

	mov	ecx, DWORD PTR _this$[ebp]
	call	?pop_back@?$deque@PAVValue@Json@@V?$allocator@PAVValue@Json@@@std@@@std@@QAEXXZ ; std::deque<Json::Value *,std::allocator<Json::Value *> >::pop_back
	jmp	SHORT $LN6@Tidy
$LN5@Tidy:

; 1831 : 		for (size_type _Block = this->_Mapsize; 0 < _Block; )

	mov	edx, DWORD PTR _this$[ebp]
	mov	eax, DWORD PTR [edx+8]
	mov	DWORD PTR __Block$1[ebp], eax
$LN4@Tidy:
	cmp	DWORD PTR __Block$1[ebp], 0
	jbe	SHORT $LN3@Tidy

; 1832 : 			{	// free storage for a block and destroy pointer
; 1833 : 			if (this->_Map[--_Block] != pointer())

	mov	ecx, DWORD PTR __Block$1[ebp]
	sub	ecx, 1
	mov	DWORD PTR __Block$1[ebp], ecx
	mov	edx, DWORD PTR _this$[ebp]
	mov	eax, DWORD PTR [edx+4]
	mov	ecx, DWORD PTR __Block$1[ebp]
	cmp	DWORD PTR [eax+ecx*4], 0
	je	SHORT $LN2@Tidy

; 1834 : 				{	// free block and destroy its pointer
; 1835 : 				this->_Getal().deallocate(this->_Map[_Block], _DEQUESIZ);

	push	4
	mov	edx, DWORD PTR _this$[ebp]
	mov	eax, DWORD PTR [edx+4]
	mov	ecx, DWORD PTR __Block$1[ebp]
	mov	edx, DWORD PTR [eax+ecx*4]
	push	edx
	lea	eax, DWORD PTR $T3[ebp]
	push	eax
	mov	ecx, DWORD PTR _this$[ebp]
	call	?_Getal@?$_Deque_alloc@$0A@U?$_Deque_base_types@PAVValue@Json@@V?$allocator@PAVValue@Json@@@std@@@std@@@std@@QBE?AU?$_Wrap_alloc@V?$allocator@PAVValue@Json@@@std@@@2@XZ ; std::_Deque_alloc<0,std::_Deque_base_types<Json::Value *,std::allocator<Json::Value *> > >::_Getal
	mov	ecx, eax
	call	?deallocate@?$_Wrap_alloc@V?$allocator@PAVValue@Json@@@std@@@std@@QAEXPAPAVValue@Json@@I@Z ; std::_Wrap_alloc<std::allocator<Json::Value *> >::deallocate

; 1836 : 				this->_Getal().destroy(&this->_Map[_Block]);

	mov	ecx, DWORD PTR _this$[ebp]
	mov	edx, DWORD PTR [ecx+4]
	mov	eax, DWORD PTR __Block$1[ebp]
	lea	ecx, DWORD PTR [edx+eax*4]
	push	ecx
	lea	edx, DWORD PTR $T2[ebp]
	push	edx
	mov	ecx, DWORD PTR _this$[ebp]
	call	?_Getal@?$_Deque_alloc@$0A@U?$_Deque_base_types@PAVValue@Json@@V?$allocator@PAVValue@Json@@@std@@@std@@@std@@QBE?AU?$_Wrap_alloc@V?$allocator@PAVValue@Json@@@std@@@2@XZ ; std::_Deque_alloc<0,std::_Deque_base_types<Json::Value *,std::allocator<Json::Value *> > >::_Getal
	mov	ecx, eax
	call	??$destroy@PAPAVValue@Json@@@?$_Wrap_alloc@V?$allocator@PAVValue@Json@@@std@@@std@@QAEXPAPAPAVValue@Json@@@Z ; std::_Wrap_alloc<std::allocator<Json::Value *> >::destroy<Json::Value * *>
$LN2@Tidy:

; 1837 : 				}
; 1838 : 			}

	jmp	SHORT $LN4@Tidy
$LN3@Tidy:

; 1839 : 
; 1840 : 		if (this->_Map != _Mapptr())

	mov	eax, DWORD PTR _this$[ebp]
	cmp	DWORD PTR [eax+4], 0
	je	SHORT $LN1@Tidy

; 1841 : 			_Almap.deallocate(this->_Map,
; 1842 : 				this->_Mapsize);	// free storage for map

	mov	ecx, DWORD PTR _this$[ebp]
	mov	edx, DWORD PTR [ecx+8]
	push	edx
	mov	eax, DWORD PTR _this$[ebp]
	mov	ecx, DWORD PTR [eax+4]
	push	ecx
	lea	ecx, DWORD PTR __Almap$[ebp]
	call	?deallocate@?$_Wrap_alloc@V?$allocator@PAPAVValue@Json@@@std@@@std@@QAEXPAPAPAVValue@Json@@I@Z ; std::_Wrap_alloc<std::allocator<Json::Value * *> >::deallocate
$LN1@Tidy:

; 1843 : 		this->_Mapsize = 0;

	mov	edx, DWORD PTR _this$[ebp]
	mov	DWORD PTR [edx+8], 0

; 1844 : 		this->_Map = _Mapptr();

	mov	eax, DWORD PTR _this$[ebp]
	mov	DWORD PTR [eax+4], 0

; 1845 : 		}

	mov	esp, ebp
	pop	ebp
	ret	0
?_Tidy@?$deque@PAVValue@Json@@V?$allocator@PAVValue@Json@@@std@@@std@@IAEXXZ ENDP ; std::deque<Json::Value *,std::allocator<Json::Value *> >::_Tidy
_TEXT	ENDS
; Function compile flags: /Odtp
; File c:\program files (x86)\microsoft visual studio 12.0\vc\include\deque
;	COMDAT ?_Growmap@?$deque@PAVValue@Json@@V?$allocator@PAVValue@Json@@@std@@@std@@IAEXI@Z
_TEXT	SEGMENT
tv84 = -28						; size = 4
__Newmap$ = -24						; size = 4
__Newsize$ = -20					; size = 4
__Myboff$ = -16						; size = 4
__Myptr$ = -12						; size = 4
_this$ = -8						; size = 4
$T1 = -2						; size = 1
__Almap$ = -1						; size = 1
__Count$ = 8						; size = 4
?_Growmap@?$deque@PAVValue@Json@@V?$allocator@PAVValue@Json@@@std@@@std@@IAEXI@Z PROC ; std::deque<Json::Value *,std::allocator<Json::Value *> >::_Growmap, COMDAT
; _this$ = ecx

; 1772 : 		{	// grow map by at least _Count pointers, _Mapsize a power of 2

	push	ebp
	mov	ebp, esp
	sub	esp, 28					; 0000001cH
	mov	DWORD PTR _this$[ebp], ecx

; 1773 : 		static_assert(1 < _DEQUEMAPSIZ,
; 1774 : 			"The _Xlen() test should always be performed.");
; 1775 : 
; 1776 : 		typedef typename _Alpty::pointer _Blockptr;
; 1777 : 		_Alpty _Almap(this->_Getal());

	lea	eax, DWORD PTR $T1[ebp]
	push	eax
	mov	ecx, DWORD PTR _this$[ebp]
	call	?_Getal@?$_Deque_alloc@$0A@U?$_Deque_base_types@PAVValue@Json@@V?$allocator@PAVValue@Json@@@std@@@std@@@std@@QBE?AU?$_Wrap_alloc@V?$allocator@PAVValue@Json@@@std@@@2@XZ ; std::_Deque_alloc<0,std::_Deque_base_types<Json::Value *,std::allocator<Json::Value *> > >::_Getal
	push	eax
	lea	ecx, DWORD PTR __Almap$[ebp]
	call	??$?0U?$_Wrap_alloc@V?$allocator@PAVValue@Json@@@std@@@std@@@?$_Wrap_alloc@V?$allocator@PAPAVValue@Json@@@std@@@std@@QAE@ABU?$_Wrap_alloc@V?$allocator@PAVValue@Json@@@std@@@1@@Z ; std::_Wrap_alloc<std::allocator<Json::Value * *> >::_Wrap_alloc<std::allocator<Json::Value * *> ><std::_Wrap_alloc<std::allocator<Json::Value *> > >

; 1778 : 		size_type _Newsize = 0 < this->_Mapsize ? this->_Mapsize : 1;

	mov	ecx, DWORD PTR _this$[ebp]
	cmp	DWORD PTR [ecx+8], 0
	jbe	SHORT $LN10@Growmap
	mov	edx, DWORD PTR _this$[ebp]
	mov	eax, DWORD PTR [edx+8]
	mov	DWORD PTR tv84[ebp], eax
	jmp	SHORT $LN11@Growmap
$LN10@Growmap:
	mov	DWORD PTR tv84[ebp], 1
$LN11@Growmap:
	mov	ecx, DWORD PTR tv84[ebp]
	mov	DWORD PTR __Newsize$[ebp], ecx
$LN7@Growmap:

; 1779 : 		while (_Newsize - this->_Mapsize < _Count || _Newsize < _DEQUEMAPSIZ)

	mov	edx, DWORD PTR _this$[ebp]
	mov	eax, DWORD PTR __Newsize$[ebp]
	sub	eax, DWORD PTR [edx+8]
	cmp	eax, DWORD PTR __Count$[ebp]
	jb	SHORT $LN5@Growmap
	cmp	DWORD PTR __Newsize$[ebp], 8
	jae	SHORT $LN6@Growmap
$LN5@Growmap:

; 1780 : 			{	// scale _Newsize to 2^N >= _Mapsize + _Count
; 1781 : 			if (max_size() / _DEQUESIZ - _Newsize < _Newsize)

	mov	ecx, DWORD PTR _this$[ebp]
	call	?max_size@?$deque@PAVValue@Json@@V?$allocator@PAVValue@Json@@@std@@@std@@QBEIXZ ; std::deque<Json::Value *,std::allocator<Json::Value *> >::max_size
	shr	eax, 2
	sub	eax, DWORD PTR __Newsize$[ebp]
	cmp	eax, DWORD PTR __Newsize$[ebp]
	jae	SHORT $LN4@Growmap

; 1782 : 				_Xlen();	// result too long

	mov	ecx, DWORD PTR _this$[ebp]
	call	?_Xlen@?$deque@PAVValue@Json@@V?$allocator@PAVValue@Json@@@std@@@std@@IBEXXZ ; std::deque<Json::Value *,std::allocator<Json::Value *> >::_Xlen
$LN4@Growmap:

; 1783 : 			_Newsize *= 2;

	mov	ecx, DWORD PTR __Newsize$[ebp]
	shl	ecx, 1
	mov	DWORD PTR __Newsize$[ebp], ecx

; 1784 : 			}

	jmp	SHORT $LN7@Growmap
$LN6@Growmap:

; 1785 : 		_Count = _Newsize - this->_Mapsize;

	mov	edx, DWORD PTR _this$[ebp]
	mov	eax, DWORD PTR __Newsize$[ebp]
	sub	eax, DWORD PTR [edx+8]
	mov	DWORD PTR __Count$[ebp], eax

; 1786 : 
; 1787 : 		size_type _Myboff = this->_Myoff / _DEQUESIZ;

	mov	ecx, DWORD PTR _this$[ebp]
	mov	edx, DWORD PTR [ecx+12]
	shr	edx, 2
	mov	DWORD PTR __Myboff$[ebp], edx

; 1788 : 		_Mapptr _Newmap = _Almap.allocate(this->_Mapsize + _Count);

	mov	eax, DWORD PTR _this$[ebp]
	mov	ecx, DWORD PTR [eax+8]
	add	ecx, DWORD PTR __Count$[ebp]
	push	ecx
	lea	ecx, DWORD PTR __Almap$[ebp]
	call	?allocate@?$_Wrap_alloc@V?$allocator@PAPAVValue@Json@@@std@@@std@@QAEPAPAPAVValue@Json@@I@Z ; std::_Wrap_alloc<std::allocator<Json::Value * *> >::allocate
	mov	DWORD PTR __Newmap$[ebp], eax

; 1789 : 		_Mapptr _Myptr = _Newmap + _Myboff;

	mov	edx, DWORD PTR __Myboff$[ebp]
	mov	eax, DWORD PTR __Newmap$[ebp]
	lea	ecx, DWORD PTR [eax+edx*4]
	mov	DWORD PTR __Myptr$[ebp], ecx

; 1790 : 
; 1791 : 		_Myptr = _Uninitialized_copy(this->_Map + _Myboff,
; 1792 : 			this->_Map + this->_Mapsize,
; 1793 : 			_Myptr, _Almap);	// copy initial to end

	lea	edx, DWORD PTR __Almap$[ebp]
	push	edx
	mov	eax, DWORD PTR __Myptr$[ebp]
	push	eax
	mov	ecx, DWORD PTR _this$[ebp]
	mov	edx, DWORD PTR [ecx+8]
	mov	eax, DWORD PTR _this$[ebp]
	mov	ecx, DWORD PTR [eax+4]
	lea	edx, DWORD PTR [ecx+edx*4]
	push	edx
	mov	eax, DWORD PTR _this$[ebp]
	mov	ecx, DWORD PTR [eax+4]
	mov	edx, DWORD PTR __Myboff$[ebp]
	lea	eax, DWORD PTR [ecx+edx*4]
	push	eax
	call	??$_Uninitialized_copy@PAPAPAVValue@Json@@PAPAPAV12@U?$_Wrap_alloc@V?$allocator@PAPAVValue@Json@@@std@@@std@@@std@@YAPAPAPAVValue@Json@@PAPAPAV12@00AAU?$_Wrap_alloc@V?$allocator@PAPAVValue@Json@@@std@@@0@@Z ; std::_Uninitialized_copy<Json::Value * * *,Json::Value * * *,std::_Wrap_alloc<std::allocator<Json::Value * *> > >
	add	esp, 16					; 00000010H
	mov	DWORD PTR __Myptr$[ebp], eax

; 1794 : 		if (_Myboff <= _Count)

	mov	ecx, DWORD PTR __Myboff$[ebp]
	cmp	ecx, DWORD PTR __Count$[ebp]
	ja	SHORT $LN3@Growmap

; 1795 : 			{	// increment greater than offset of initial block
; 1796 : 			_Myptr = _Uninitialized_copy(this->_Map,
; 1797 : 				this->_Map + _Myboff,
; 1798 : 				_Myptr, _Almap);	// copy rest of old

	lea	edx, DWORD PTR __Almap$[ebp]
	push	edx
	mov	eax, DWORD PTR __Myptr$[ebp]
	push	eax
	mov	ecx, DWORD PTR _this$[ebp]
	mov	edx, DWORD PTR [ecx+4]
	mov	eax, DWORD PTR __Myboff$[ebp]
	lea	ecx, DWORD PTR [edx+eax*4]
	push	ecx
	mov	edx, DWORD PTR _this$[ebp]
	mov	eax, DWORD PTR [edx+4]
	push	eax
	call	??$_Uninitialized_copy@PAPAPAVValue@Json@@PAPAPAV12@U?$_Wrap_alloc@V?$allocator@PAPAVValue@Json@@@std@@@std@@@std@@YAPAPAPAVValue@Json@@PAPAPAV12@00AAU?$_Wrap_alloc@V?$allocator@PAPAVValue@Json@@@std@@@0@@Z ; std::_Uninitialized_copy<Json::Value * * *,Json::Value * * *,std::_Wrap_alloc<std::allocator<Json::Value * *> > >
	add	esp, 16					; 00000010H
	mov	DWORD PTR __Myptr$[ebp], eax

; 1799 : 			_Uninitialized_default_fill_n(_Myptr, _Count - _Myboff,
; 1800 : 				_Almap);	// clear suffix of new

	lea	ecx, DWORD PTR __Almap$[ebp]
	push	ecx
	mov	edx, DWORD PTR __Count$[ebp]
	sub	edx, DWORD PTR __Myboff$[ebp]
	push	edx
	mov	eax, DWORD PTR __Myptr$[ebp]
	push	eax
	call	??$_Uninitialized_default_fill_n@PAPAPAVValue@Json@@IU?$_Wrap_alloc@V?$allocator@PAPAVValue@Json@@@std@@@std@@@std@@YAXPAPAPAVValue@Json@@IAAU?$_Wrap_alloc@V?$allocator@PAPAVValue@Json@@@std@@@0@@Z ; std::_Uninitialized_default_fill_n<Json::Value * * *,unsigned int,std::_Wrap_alloc<std::allocator<Json::Value * *> > >
	add	esp, 12					; 0000000cH

; 1801 : 			_Uninitialized_default_fill_n(_Newmap, _Myboff,
; 1802 : 				_Almap);	// clear prefix of new

	lea	ecx, DWORD PTR __Almap$[ebp]
	push	ecx
	mov	edx, DWORD PTR __Myboff$[ebp]
	push	edx
	mov	eax, DWORD PTR __Newmap$[ebp]
	push	eax
	call	??$_Uninitialized_default_fill_n@PAPAPAVValue@Json@@IU?$_Wrap_alloc@V?$allocator@PAPAVValue@Json@@@std@@@std@@@std@@YAXPAPAPAVValue@Json@@IAAU?$_Wrap_alloc@V?$allocator@PAPAVValue@Json@@@std@@@0@@Z ; std::_Uninitialized_default_fill_n<Json::Value * * *,unsigned int,std::_Wrap_alloc<std::allocator<Json::Value * *> > >
	add	esp, 12					; 0000000cH

; 1803 : 			}
; 1804 : 		else

	jmp	SHORT $LN2@Growmap
$LN3@Growmap:

; 1805 : 			{	// increment not greater than offset of initial block
; 1806 : 			_Uninitialized_copy(this->_Map,
; 1807 : 				this->_Map + _Count,
; 1808 : 				_Myptr, _Almap);	// copy more old

	lea	ecx, DWORD PTR __Almap$[ebp]
	push	ecx
	mov	edx, DWORD PTR __Myptr$[ebp]
	push	edx
	mov	eax, DWORD PTR _this$[ebp]
	mov	ecx, DWORD PTR [eax+4]
	mov	edx, DWORD PTR __Count$[ebp]
	lea	eax, DWORD PTR [ecx+edx*4]
	push	eax
	mov	ecx, DWORD PTR _this$[ebp]
	mov	edx, DWORD PTR [ecx+4]
	push	edx
	call	??$_Uninitialized_copy@PAPAPAVValue@Json@@PAPAPAV12@U?$_Wrap_alloc@V?$allocator@PAPAVValue@Json@@@std@@@std@@@std@@YAPAPAPAVValue@Json@@PAPAPAV12@00AAU?$_Wrap_alloc@V?$allocator@PAPAVValue@Json@@@std@@@0@@Z ; std::_Uninitialized_copy<Json::Value * * *,Json::Value * * *,std::_Wrap_alloc<std::allocator<Json::Value * *> > >
	add	esp, 16					; 00000010H

; 1809 : 			_Myptr = _Uninitialized_copy(this->_Map + _Count,
; 1810 : 				this->_Map + _Myboff,
; 1811 : 				_Newmap, _Almap);	// copy rest of old

	lea	eax, DWORD PTR __Almap$[ebp]
	push	eax
	mov	ecx, DWORD PTR __Newmap$[ebp]
	push	ecx
	mov	edx, DWORD PTR _this$[ebp]
	mov	eax, DWORD PTR [edx+4]
	mov	ecx, DWORD PTR __Myboff$[ebp]
	lea	edx, DWORD PTR [eax+ecx*4]
	push	edx
	mov	eax, DWORD PTR _this$[ebp]
	mov	ecx, DWORD PTR [eax+4]
	mov	edx, DWORD PTR __Count$[ebp]
	lea	eax, DWORD PTR [ecx+edx*4]
	push	eax
	call	??$_Uninitialized_copy@PAPAPAVValue@Json@@PAPAPAV12@U?$_Wrap_alloc@V?$allocator@PAPAVValue@Json@@@std@@@std@@@std@@YAPAPAPAVValue@Json@@PAPAPAV12@00AAU?$_Wrap_alloc@V?$allocator@PAPAVValue@Json@@@std@@@0@@Z ; std::_Uninitialized_copy<Json::Value * * *,Json::Value * * *,std::_Wrap_alloc<std::allocator<Json::Value * *> > >
	add	esp, 16					; 00000010H
	mov	DWORD PTR __Myptr$[ebp], eax

; 1812 : 			_Uninitialized_default_fill_n(_Myptr, _Count,
; 1813 : 				_Almap);	// clear rest to initial block

	lea	ecx, DWORD PTR __Almap$[ebp]
	push	ecx
	mov	edx, DWORD PTR __Count$[ebp]
	push	edx
	mov	eax, DWORD PTR __Myptr$[ebp]
	push	eax
	call	??$_Uninitialized_default_fill_n@PAPAPAVValue@Json@@IU?$_Wrap_alloc@V?$allocator@PAPAVValue@Json@@@std@@@std@@@std@@YAXPAPAPAVValue@Json@@IAAU?$_Wrap_alloc@V?$allocator@PAPAVValue@Json@@@std@@@0@@Z ; std::_Uninitialized_default_fill_n<Json::Value * * *,unsigned int,std::_Wrap_alloc<std::allocator<Json::Value * *> > >
	add	esp, 12					; 0000000cH
$LN2@Growmap:

; 1814 : 			}
; 1815 : 
; 1816 : 		_Destroy_range(this->_Map + _Myboff, this->_Map + this->_Mapsize,
; 1817 : 			_Almap);

	lea	ecx, DWORD PTR __Almap$[ebp]
	push	ecx
	mov	edx, DWORD PTR _this$[ebp]
	mov	eax, DWORD PTR [edx+8]
	mov	ecx, DWORD PTR _this$[ebp]
	mov	edx, DWORD PTR [ecx+4]
	lea	eax, DWORD PTR [edx+eax*4]
	push	eax
	mov	ecx, DWORD PTR _this$[ebp]
	mov	edx, DWORD PTR [ecx+4]
	mov	eax, DWORD PTR __Myboff$[ebp]
	lea	ecx, DWORD PTR [edx+eax*4]
	push	ecx
	call	??$_Destroy_range@U?$_Wrap_alloc@V?$allocator@PAPAVValue@Json@@@std@@@std@@@std@@YAXPAPAPAVValue@Json@@0AAU?$_Wrap_alloc@V?$allocator@PAPAVValue@Json@@@std@@@0@@Z ; std::_Destroy_range<std::_Wrap_alloc<std::allocator<Json::Value * *> > >
	add	esp, 12					; 0000000cH

; 1818 : 		if (this->_Map != _Mapptr())

	mov	edx, DWORD PTR _this$[ebp]
	cmp	DWORD PTR [edx+4], 0
	je	SHORT $LN1@Growmap

; 1819 : 			_Almap.deallocate(this->_Map,
; 1820 : 				this->_Mapsize);	// free storage for old

	mov	eax, DWORD PTR _this$[ebp]
	mov	ecx, DWORD PTR [eax+8]
	push	ecx
	mov	edx, DWORD PTR _this$[ebp]
	mov	eax, DWORD PTR [edx+4]
	push	eax
	lea	ecx, DWORD PTR __Almap$[ebp]
	call	?deallocate@?$_Wrap_alloc@V?$allocator@PAPAVValue@Json@@@std@@@std@@QAEXPAPAPAVValue@Json@@I@Z ; std::_Wrap_alloc<std::allocator<Json::Value * *> >::deallocate
$LN1@Growmap:

; 1821 : 
; 1822 : 		this->_Map = _Newmap;	// point at new

	mov	ecx, DWORD PTR _this$[ebp]
	mov	edx, DWORD PTR __Newmap$[ebp]
	mov	DWORD PTR [ecx+4], edx

; 1823 : 		this->_Mapsize += _Count;

	mov	eax, DWORD PTR _this$[ebp]
	mov	ecx, DWORD PTR [eax+8]
	add	ecx, DWORD PTR __Count$[ebp]
	mov	edx, DWORD PTR _this$[ebp]
	mov	DWORD PTR [edx+8], ecx
$LN9@Growmap:

; 1824 : 		}

	mov	esp, ebp
	pop	ebp
	ret	4
?_Growmap@?$deque@PAVValue@Json@@V?$allocator@PAVValue@Json@@@std@@@std@@IAEXI@Z ENDP ; std::deque<Json::Value *,std::allocator<Json::Value *> >::_Growmap
_TEXT	ENDS
; Function compile flags: /Odtp
; File c:\program files (x86)\microsoft visual studio 12.0\vc\include\deque
;	COMDAT ?_Xlen@?$deque@PAVValue@Json@@V?$allocator@PAVValue@Json@@@std@@@std@@IBEXXZ
_TEXT	SEGMENT
_this$ = -4						; size = 4
?_Xlen@?$deque@PAVValue@Json@@V?$allocator@PAVValue@Json@@@std@@@std@@IBEXXZ PROC ; std::deque<Json::Value *,std::allocator<Json::Value *> >::_Xlen, COMDAT
; _this$ = ecx

; 1762 : 		{	// report a length_error

	push	ebp
	mov	ebp, esp
	push	ecx
	mov	DWORD PTR _this$[ebp], ecx

; 1763 : 		_Xlength_error("deque<T> too long");

	push	OFFSET ??_C@_0BC@KBDMBKEH@deque?$DMT?$DO?5too?5long?$AA@
	call	DWORD PTR __imp_?_Xlength_error@std@@YAXPBD@Z
$LN2@Xlen:

; 1764 : 		}

	mov	esp, ebp
	pop	ebp
	ret	0
?_Xlen@?$deque@PAVValue@Json@@V?$allocator@PAVValue@Json@@@std@@@std@@IBEXXZ ENDP ; std::deque<Json::Value *,std::allocator<Json::Value *> >::_Xlen
_TEXT	ENDS
; Function compile flags: /Odtp
; File c:\program files (x86)\microsoft visual studio 12.0\vc\include\deque
;	COMDAT ?pop_back@?$deque@PAVValue@Json@@V?$allocator@PAVValue@Json@@@std@@@std@@QAEXXZ
_TEXT	SEGMENT
__Block$ = -20						; size = 4
tv140 = -16						; size = 4
__Newoff$ = -12						; size = 4
_this$ = -8						; size = 4
$T1 = -1						; size = 1
?pop_back@?$deque@PAVValue@Json@@V?$allocator@PAVValue@Json@@@std@@@std@@QAEXXZ PROC ; std::deque<Json::Value *,std::allocator<Json::Value *> >::pop_back, COMDAT
; _this$ = ecx

; 1471 : 		{	// erase element at end

	push	ebp
	mov	ebp, esp
	sub	esp, 20					; 00000014H
	push	esi
	mov	DWORD PTR _this$[ebp], ecx

; 1472 :  #if _ITERATOR_DEBUG_LEVEL == 2
; 1473 : 		if (empty())
; 1474 : 			_DEBUG_ERROR("deque empty before pop");
; 1475 : 		else
; 1476 : 			{	// something to erase, do it
; 1477 : 			size_type _Newoff = this->_Myoff + this->_Mysize - 1;
; 1478 : 			_Orphan_off(_Newoff);
; 1479 : 			size_type _Block = this->_Getblock(_Newoff);
; 1480 : 			this->_Getal().destroy(
; 1481 : 				this->_Map[_Block] + _Newoff % _DEQUESIZ);
; 1482 : 			if (--this->_Mysize == 0)
; 1483 : 				this->_Myoff = 0;
; 1484 : 			}
; 1485 : 
; 1486 :  #else /* _ITERATOR_DEBUG_LEVEL == 2 */
; 1487 : 		size_type _Newoff = this->_Myoff + this->_Mysize - 1;

	mov	eax, DWORD PTR _this$[ebp]
	mov	ecx, DWORD PTR [eax+12]
	mov	edx, DWORD PTR _this$[ebp]
	mov	eax, DWORD PTR [edx+16]
	lea	ecx, DWORD PTR [ecx+eax-1]
	mov	DWORD PTR __Newoff$[ebp], ecx

; 1488 : 		size_type _Block = this->_Getblock(_Newoff);

	mov	edx, DWORD PTR __Newoff$[ebp]
	push	edx
	mov	ecx, DWORD PTR _this$[ebp]
	call	?_Getblock@?$_Deque_val@U?$_Deque_simple_types@PAVValue@Json@@@std@@@std@@QBEII@Z ; std::_Deque_val<std::_Deque_simple_types<Json::Value *> >::_Getblock
	mov	DWORD PTR __Block$[ebp], eax

; 1489 : 		this->_Getal().destroy(
; 1490 : 			this->_Map[_Block] + _Newoff % _DEQUESIZ);

	mov	eax, DWORD PTR _this$[ebp]
	mov	ecx, DWORD PTR [eax+4]
	mov	eax, DWORD PTR __Newoff$[ebp]
	xor	edx, edx
	mov	esi, 4
	div	esi
	mov	eax, DWORD PTR __Block$[ebp]
	mov	ecx, DWORD PTR [ecx+eax*4]
	lea	edx, DWORD PTR [ecx+edx*4]
	push	edx
	lea	eax, DWORD PTR $T1[ebp]
	push	eax
	mov	ecx, DWORD PTR _this$[ebp]
	call	?_Getal@?$_Deque_alloc@$0A@U?$_Deque_base_types@PAVValue@Json@@V?$allocator@PAVValue@Json@@@std@@@std@@@std@@QBE?AU?$_Wrap_alloc@V?$allocator@PAVValue@Json@@@std@@@2@XZ ; std::_Deque_alloc<0,std::_Deque_base_types<Json::Value *,std::allocator<Json::Value *> > >::_Getal
	mov	ecx, eax
	call	??$destroy@PAVValue@Json@@@?$_Wrap_alloc@V?$allocator@PAVValue@Json@@@std@@@std@@QAEXPAPAVValue@Json@@@Z ; std::_Wrap_alloc<std::allocator<Json::Value *> >::destroy<Json::Value *>

; 1491 : 		if (--this->_Mysize == 0)

	mov	ecx, DWORD PTR _this$[ebp]
	mov	edx, DWORD PTR [ecx+16]
	sub	edx, 1
	mov	DWORD PTR tv140[ebp], edx
	mov	eax, DWORD PTR _this$[ebp]
	mov	ecx, DWORD PTR tv140[ebp]
	mov	DWORD PTR [eax+16], ecx
	cmp	DWORD PTR tv140[ebp], 0
	jne	SHORT $LN2@pop_back

; 1492 : 			this->_Myoff = 0;

	mov	edx, DWORD PTR _this$[ebp]
	mov	DWORD PTR [edx+12], 0
$LN2@pop_back:

; 1493 :  #endif /* _ITERATOR_DEBUG_LEVEL == 2 */
; 1494 : 		}

	pop	esi
	mov	esp, ebp
	pop	ebp
	ret	0
?pop_back@?$deque@PAVValue@Json@@V?$allocator@PAVValue@Json@@@std@@@std@@QAEXXZ ENDP ; std::deque<Json::Value *,std::allocator<Json::Value *> >::pop_back
_TEXT	ENDS
; Function compile flags: /Odtp
; File c:\program files (x86)\microsoft visual studio 12.0\vc\include\deque
;	COMDAT ?back@?$deque@PAVValue@Json@@V?$allocator@PAVValue@Json@@@std@@@std@@QAEAAPAVValue@Json@@XZ
_TEXT	SEGMENT
$T2 = -60						; size = 12
$T3 = -48						; size = 12
$T4 = -36						; size = 4
tv80 = -32						; size = 4
tv82 = -28						; size = 4
tv78 = -24						; size = 4
tv81 = -20						; size = 4
_this$ = -16						; size = 4
__$EHRec$ = -12						; size = 12
?back@?$deque@PAVValue@Json@@V?$allocator@PAVValue@Json@@@std@@@std@@QAEAAPAVValue@Json@@XZ PROC ; std::deque<Json::Value *,std::allocator<Json::Value *> >::back, COMDAT
; _this$ = ecx

; 1415 : 		{	// return last element of mutable sequence

	push	ebp
	mov	ebp, esp
	push	-1
	push	__ehhandler$?back@?$deque@PAVValue@Json@@V?$allocator@PAVValue@Json@@@std@@@std@@QAEAAPAVValue@Json@@XZ
	mov	eax, DWORD PTR fs:0
	push	eax
	sub	esp, 48					; 00000030H
	mov	eax, DWORD PTR ___security_cookie
	xor	eax, ebp
	push	eax
	lea	eax, DWORD PTR __$EHRec$[ebp]
	mov	DWORD PTR fs:0, eax
	mov	DWORD PTR _this$[ebp], ecx

; 1416 : 		return (*(end() - 1));

	push	1
	lea	eax, DWORD PTR $T3[ebp]
	push	eax
	lea	ecx, DWORD PTR $T2[ebp]
	push	ecx
	mov	ecx, DWORD PTR _this$[ebp]
	call	?end@?$deque@PAVValue@Json@@V?$allocator@PAVValue@Json@@@std@@@std@@QAE?AV?$_Deque_iterator@V?$_Deque_val@U?$_Deque_simple_types@PAVValue@Json@@@std@@@std@@@2@XZ ; std::deque<Json::Value *,std::allocator<Json::Value *> >::end
	mov	DWORD PTR tv81[ebp], eax
	mov	edx, DWORD PTR tv81[ebp]
	mov	DWORD PTR tv78[ebp], edx
	mov	DWORD PTR __$EHRec$[ebp+8], 0
	mov	ecx, DWORD PTR tv78[ebp]
	call	??G?$_Deque_iterator@V?$_Deque_val@U?$_Deque_simple_types@PAVValue@Json@@@std@@@std@@@std@@QBE?AV01@H@Z ; std::_Deque_iterator<std::_Deque_val<std::_Deque_simple_types<Json::Value *> > >::operator-
	mov	DWORD PTR tv82[ebp], eax
	mov	eax, DWORD PTR tv82[ebp]
	mov	DWORD PTR tv80[ebp], eax
	mov	BYTE PTR __$EHRec$[ebp+8], 1
	mov	ecx, DWORD PTR tv80[ebp]
	call	??D?$_Deque_iterator@V?$_Deque_val@U?$_Deque_simple_types@PAVValue@Json@@@std@@@std@@@std@@QBEAAPAVValue@Json@@XZ ; std::_Deque_iterator<std::_Deque_val<std::_Deque_simple_types<Json::Value *> > >::operator*
	mov	DWORD PTR $T4[ebp], eax
	mov	BYTE PTR __$EHRec$[ebp+8], 0
	lea	ecx, DWORD PTR $T3[ebp]
	call	??1?$_Deque_iterator@V?$_Deque_val@U?$_Deque_simple_types@PAVValue@Json@@@std@@@std@@@std@@QAE@XZ
	mov	DWORD PTR __$EHRec$[ebp+8], -1
	lea	ecx, DWORD PTR $T2[ebp]
	call	??1?$_Deque_iterator@V?$_Deque_val@U?$_Deque_simple_types@PAVValue@Json@@@std@@@std@@@std@@QAE@XZ
	mov	eax, DWORD PTR $T4[ebp]

; 1417 : 		}

	mov	ecx, DWORD PTR __$EHRec$[ebp]
	mov	DWORD PTR fs:0, ecx
	pop	ecx
	mov	esp, ebp
	pop	ebp
	ret	0
_TEXT	ENDS
;	COMDAT text$x
text$x	SEGMENT
__unwindfunclet$?back@?$deque@PAVValue@Json@@V?$allocator@PAVValue@Json@@@std@@@std@@QAEAAPAVValue@Json@@XZ$0:
	lea	ecx, DWORD PTR $T2[ebp]
	jmp	??1?$_Deque_iterator@V?$_Deque_val@U?$_Deque_simple_types@PAVValue@Json@@@std@@@std@@@std@@QAE@XZ
__unwindfunclet$?back@?$deque@PAVValue@Json@@V?$allocator@PAVValue@Json@@@std@@@std@@QAEAAPAVValue@Json@@XZ$1:
	lea	ecx, DWORD PTR $T3[ebp]
	jmp	??1?$_Deque_iterator@V?$_Deque_val@U?$_Deque_simple_types@PAVValue@Json@@@std@@@std@@@std@@QAE@XZ
__ehhandler$?back@?$deque@PAVValue@Json@@V?$allocator@PAVValue@Json@@@std@@@std@@QAEAAPAVValue@Json@@XZ:
	mov	edx, DWORD PTR [esp+8]
	lea	eax, DWORD PTR [edx+12]
	mov	ecx, DWORD PTR [edx-52]
	xor	ecx, eax
	call	@__security_check_cookie@4
	mov	eax, OFFSET __ehfuncinfo$?back@?$deque@PAVValue@Json@@V?$allocator@PAVValue@Json@@@std@@@std@@QAEAAPAVValue@Json@@XZ
	jmp	___CxxFrameHandler3
text$x	ENDS
?back@?$deque@PAVValue@Json@@V?$allocator@PAVValue@Json@@@std@@@std@@QAEAAPAVValue@Json@@XZ ENDP ; std::deque<Json::Value *,std::allocator<Json::Value *> >::back
; Function compile flags: /Odtp
; File c:\program files (x86)\microsoft visual studio 12.0\vc\include\deque
;	COMDAT ?empty@?$deque@PAVValue@Json@@V?$allocator@PAVValue@Json@@@std@@@std@@QBE_NXZ
_TEXT	SEGMENT
_this$ = -8						; size = 4
tv70 = -4						; size = 4
?empty@?$deque@PAVValue@Json@@V?$allocator@PAVValue@Json@@@std@@@std@@QBE_NXZ PROC ; std::deque<Json::Value *,std::allocator<Json::Value *> >::empty, COMDAT
; _this$ = ecx

; 1361 : 		{	// test if sequence is empty

	push	ebp
	mov	ebp, esp
	sub	esp, 8
	mov	DWORD PTR _this$[ebp], ecx

; 1362 : 		return (this->_Mysize == 0);

	mov	eax, DWORD PTR _this$[ebp]
	cmp	DWORD PTR [eax+16], 0
	jne	SHORT $LN3@empty
	mov	DWORD PTR tv70[ebp], 1
	jmp	SHORT $LN4@empty
$LN3@empty:
	mov	DWORD PTR tv70[ebp], 0
$LN4@empty:
	mov	al, BYTE PTR tv70[ebp]

; 1363 : 		}

	mov	esp, ebp
	pop	ebp
	ret	0
?empty@?$deque@PAVValue@Json@@V?$allocator@PAVValue@Json@@@std@@@std@@QBE_NXZ ENDP ; std::deque<Json::Value *,std::allocator<Json::Value *> >::empty
_TEXT	ENDS
; Function compile flags: /Odtp
; File c:\program files (x86)\microsoft visual studio 12.0\vc\include\deque
;	COMDAT ?max_size@?$deque@PAVValue@Json@@V?$allocator@PAVValue@Json@@@std@@@std@@QBEIXZ
_TEXT	SEGMENT
_this$ = -8						; size = 4
$T1 = -1						; size = 1
?max_size@?$deque@PAVValue@Json@@V?$allocator@PAVValue@Json@@@std@@@std@@QBEIXZ PROC ; std::deque<Json::Value *,std::allocator<Json::Value *> >::max_size, COMDAT
; _this$ = ecx

; 1356 : 		{	// return maximum possible length of sequence

	push	ebp
	mov	ebp, esp
	sub	esp, 8
	mov	DWORD PTR _this$[ebp], ecx

; 1357 : 		return (this->_Getal().max_size());

	lea	eax, DWORD PTR $T1[ebp]
	push	eax
	mov	ecx, DWORD PTR _this$[ebp]
	call	?_Getal@?$_Deque_alloc@$0A@U?$_Deque_base_types@PAVValue@Json@@V?$allocator@PAVValue@Json@@@std@@@std@@@std@@QBE?AU?$_Wrap_alloc@V?$allocator@PAVValue@Json@@@std@@@2@XZ ; std::_Deque_alloc<0,std::_Deque_base_types<Json::Value *,std::allocator<Json::Value *> > >::_Getal
	mov	ecx, eax
	call	?max_size@?$_Wrap_alloc@V?$allocator@PAVValue@Json@@@std@@@std@@QBEIXZ ; std::_Wrap_alloc<std::allocator<Json::Value *> >::max_size

; 1358 : 		}

	mov	esp, ebp
	pop	ebp
	ret	0
?max_size@?$deque@PAVValue@Json@@V?$allocator@PAVValue@Json@@@std@@@std@@QBEIXZ ENDP ; std::deque<Json::Value *,std::allocator<Json::Value *> >::max_size
_TEXT	ENDS
; Function compile flags: /Odtp
; File c:\program files (x86)\microsoft visual studio 12.0\vc\include\deque
;	COMDAT ?end@?$deque@PAVValue@Json@@V?$allocator@PAVValue@Json@@@std@@@std@@QAE?AV?$_Deque_iterator@V?$_Deque_val@U?$_Deque_simple_types@PAVValue@Json@@@std@@@std@@@2@XZ
_TEXT	SEGMENT
_this$ = -4						; size = 4
___$ReturnUdt$ = 8					; size = 4
?end@?$deque@PAVValue@Json@@V?$allocator@PAVValue@Json@@@std@@@std@@QAE?AV?$_Deque_iterator@V?$_Deque_val@U?$_Deque_simple_types@PAVValue@Json@@@std@@@std@@@2@XZ PROC ; std::deque<Json::Value *,std::allocator<Json::Value *> >::end, COMDAT
; _this$ = ecx

; 1260 : 		{	// return iterator for end of mutable sequence

	push	ebp
	mov	ebp, esp
	push	ecx
	mov	DWORD PTR _this$[ebp], ecx

; 1261 : 		return (iterator(this->_Myoff + this->_Mysize, this));

	mov	eax, DWORD PTR _this$[ebp]
	push	eax
	mov	ecx, DWORD PTR _this$[ebp]
	mov	edx, DWORD PTR [ecx+12]
	mov	eax, DWORD PTR _this$[ebp]
	add	edx, DWORD PTR [eax+16]
	push	edx
	mov	ecx, DWORD PTR ___$ReturnUdt$[ebp]
	call	??0?$_Deque_iterator@V?$_Deque_val@U?$_Deque_simple_types@PAVValue@Json@@@std@@@std@@@std@@QAE@IPBU_Container_base12@1@@Z ; std::_Deque_iterator<std::_Deque_val<std::_Deque_simple_types<Json::Value *> > >::_Deque_iterator<std::_Deque_val<std::_Deque_simple_types<Json::Value *> > >
	mov	eax, DWORD PTR ___$ReturnUdt$[ebp]

; 1262 : 		}

	mov	esp, ebp
	pop	ebp
	ret	4
?end@?$deque@PAVValue@Json@@V?$allocator@PAVValue@Json@@@std@@@std@@QAE?AV?$_Deque_iterator@V?$_Deque_val@U?$_Deque_simple_types@PAVValue@Json@@@std@@@std@@@2@XZ ENDP ; std::deque<Json::Value *,std::allocator<Json::Value *> >::end
_TEXT	ENDS
; Function compile flags: /Odtp
; File c:\program files (x86)\microsoft visual studio 12.0\vc\include\deque
;	COMDAT ??1?$deque@PAVValue@Json@@V?$allocator@PAVValue@Json@@@std@@@std@@QAE@XZ
_TEXT	SEGMENT
_this$ = -4						; size = 4
??1?$deque@PAVValue@Json@@V?$allocator@PAVValue@Json@@@std@@@std@@QAE@XZ PROC ; std::deque<Json::Value *,std::allocator<Json::Value *> >::~deque<Json::Value *,std::allocator<Json::Value *> >, COMDAT
; _this$ = ecx

; 1214 : 		{	// destroy the deque

	push	ebp
	mov	ebp, esp
	push	ecx
	mov	DWORD PTR _this$[ebp], ecx

; 1215 : 		_Tidy();

	mov	ecx, DWORD PTR _this$[ebp]
	call	?_Tidy@?$deque@PAVValue@Json@@V?$allocator@PAVValue@Json@@@std@@@std@@IAEXXZ ; std::deque<Json::Value *,std::allocator<Json::Value *> >::_Tidy

; 1216 : 		}

	mov	ecx, DWORD PTR _this$[ebp]
	call	??1?$_Deque_alloc@$0A@U?$_Deque_base_types@PAVValue@Json@@V?$allocator@PAVValue@Json@@@std@@@std@@@std@@QAE@XZ ; std::_Deque_alloc<0,std::_Deque_base_types<Json::Value *,std::allocator<Json::Value *> > >::~_Deque_alloc<0,std::_Deque_base_types<Json::Value *,std::allocator<Json::Value *> > >
	mov	esp, ebp
	pop	ebp
	ret	0
??1?$deque@PAVValue@Json@@V?$allocator@PAVValue@Json@@@std@@@std@@QAE@XZ ENDP ; std::deque<Json::Value *,std::allocator<Json::Value *> >::~deque<Json::Value *,std::allocator<Json::Value *> >
_TEXT	ENDS
; Function compile flags: /Odtp
; File c:\program files (x86)\microsoft visual studio 12.0\vc\include\deque
;	COMDAT ?push_back@?$deque@PAVValue@Json@@V?$allocator@PAVValue@Json@@@std@@@std@@QAEX$$QAPAVValue@Json@@@Z
_TEXT	SEGMENT
__Newoff$ = -16						; size = 4
__Block$ = -12						; size = 4
_this$ = -8						; size = 4
$T1 = -2						; size = 1
$T2 = -1						; size = 1
__Val$ = 8						; size = 4
?push_back@?$deque@PAVValue@Json@@V?$allocator@PAVValue@Json@@@std@@@std@@QAEX$$QAPAVValue@Json@@@Z PROC ; std::deque<Json::Value *,std::allocator<Json::Value *> >::push_back, COMDAT
; _this$ = ecx

; 1129 : 		{	// insert element at end

	push	ebp
	mov	ebp, esp
	sub	esp, 16					; 00000010H
	push	esi
	mov	DWORD PTR _this$[ebp], ecx

; 1130 : 		this->_Orphan_all();

	mov	ecx, DWORD PTR _this$[ebp]
	call	DWORD PTR __imp_?_Orphan_all@_Container_base12@std@@QAEXXZ

; 1131 : 		_PUSH_BACK_BEGIN;

	mov	eax, DWORD PTR _this$[ebp]
	mov	eax, DWORD PTR [eax+12]
	mov	ecx, DWORD PTR _this$[ebp]
	add	eax, DWORD PTR [ecx+16]
	xor	edx, edx
	mov	ecx, 4
	div	ecx
	test	edx, edx
	jne	SHORT $LN2@push_back
	mov	edx, DWORD PTR _this$[ebp]
	mov	eax, DWORD PTR [edx+16]
	add	eax, 4
	shr	eax, 2
	mov	ecx, DWORD PTR _this$[ebp]
	cmp	DWORD PTR [ecx+8], eax
	ja	SHORT $LN2@push_back
	push	1
	mov	ecx, DWORD PTR _this$[ebp]
	call	?_Growmap@?$deque@PAVValue@Json@@V?$allocator@PAVValue@Json@@@std@@@std@@IAEXI@Z ; std::deque<Json::Value *,std::allocator<Json::Value *> >::_Growmap
$LN2@push_back:
	mov	edx, DWORD PTR _this$[ebp]
	mov	eax, DWORD PTR [edx+8]
	lea	ecx, DWORD PTR [eax*4-1]
	mov	edx, DWORD PTR _this$[ebp]
	and	ecx, DWORD PTR [edx+12]
	mov	eax, DWORD PTR _this$[ebp]
	mov	DWORD PTR [eax+12], ecx
	mov	ecx, DWORD PTR _this$[ebp]
	mov	edx, DWORD PTR [ecx+12]
	mov	eax, DWORD PTR _this$[ebp]
	add	edx, DWORD PTR [eax+16]
	mov	DWORD PTR __Newoff$[ebp], edx
	mov	ecx, DWORD PTR __Newoff$[ebp]
	push	ecx
	mov	ecx, DWORD PTR _this$[ebp]
	call	?_Getblock@?$_Deque_val@U?$_Deque_simple_types@PAVValue@Json@@@std@@@std@@QBEII@Z ; std::_Deque_val<std::_Deque_simple_types<Json::Value *> >::_Getblock
	mov	DWORD PTR __Block$[ebp], eax
	mov	edx, DWORD PTR _this$[ebp]
	mov	eax, DWORD PTR [edx+4]
	mov	ecx, DWORD PTR __Block$[ebp]
	cmp	DWORD PTR [eax+ecx*4], 0
	jne	SHORT $LN1@push_back
	push	4
	lea	edx, DWORD PTR $T2[ebp]
	push	edx
	mov	ecx, DWORD PTR _this$[ebp]
	call	?_Getal@?$_Deque_alloc@$0A@U?$_Deque_base_types@PAVValue@Json@@V?$allocator@PAVValue@Json@@@std@@@std@@@std@@QBE?AU?$_Wrap_alloc@V?$allocator@PAVValue@Json@@@std@@@2@XZ ; std::_Deque_alloc<0,std::_Deque_base_types<Json::Value *,std::allocator<Json::Value *> > >::_Getal
	mov	ecx, eax
	call	?allocate@?$_Wrap_alloc@V?$allocator@PAVValue@Json@@@std@@@std@@QAEPAPAVValue@Json@@I@Z ; std::_Wrap_alloc<std::allocator<Json::Value *> >::allocate
	mov	ecx, DWORD PTR _this$[ebp]
	mov	edx, DWORD PTR [ecx+4]
	mov	ecx, DWORD PTR __Block$[ebp]
	mov	DWORD PTR [edx+ecx*4], eax
$LN1@push_back:

; 1132 : 		this->_Getal().construct(
; 1133 : 			this->_Map[_Block] + _Newoff % _DEQUESIZ,
; 1134 : 			_STD forward<value_type>(_Val));

	mov	edx, DWORD PTR __Val$[ebp]
	push	edx
	call	??$forward@PAVValue@Json@@@std@@YA$$QAPAVValue@Json@@AAPAV12@@Z ; std::forward<Json::Value *>
	add	esp, 4
	push	eax
	mov	eax, DWORD PTR _this$[ebp]
	mov	ecx, DWORD PTR [eax+4]
	mov	eax, DWORD PTR __Newoff$[ebp]
	xor	edx, edx
	mov	esi, 4
	div	esi
	mov	eax, DWORD PTR __Block$[ebp]
	mov	ecx, DWORD PTR [ecx+eax*4]
	lea	edx, DWORD PTR [ecx+edx*4]
	push	edx
	lea	eax, DWORD PTR $T1[ebp]
	push	eax
	mov	ecx, DWORD PTR _this$[ebp]
	call	?_Getal@?$_Deque_alloc@$0A@U?$_Deque_base_types@PAVValue@Json@@V?$allocator@PAVValue@Json@@@std@@@std@@@std@@QBE?AU?$_Wrap_alloc@V?$allocator@PAVValue@Json@@@std@@@2@XZ ; std::_Deque_alloc<0,std::_Deque_base_types<Json::Value *,std::allocator<Json::Value *> > >::_Getal
	mov	ecx, eax
	call	??$construct@PAVValue@Json@@PAV12@@?$_Wrap_alloc@V?$allocator@PAVValue@Json@@@std@@@std@@QAEXPAPAVValue@Json@@$$QAPAV23@@Z ; std::_Wrap_alloc<std::allocator<Json::Value *> >::construct<Json::Value *,Json::Value *>

; 1135 : 		_PUSH_BACK_END;

	mov	ecx, DWORD PTR _this$[ebp]
	mov	edx, DWORD PTR [ecx+16]
	add	edx, 1
	mov	eax, DWORD PTR _this$[ebp]
	mov	DWORD PTR [eax+16], edx

; 1136 : 		}

	pop	esi
	mov	esp, ebp
	pop	ebp
	ret	4
?push_back@?$deque@PAVValue@Json@@V?$allocator@PAVValue@Json@@@std@@@std@@QAEX$$QAPAVValue@Json@@@Z ENDP ; std::deque<Json::Value *,std::allocator<Json::Value *> >::push_back
_TEXT	ENDS
; Function compile flags: /Odtp
; File c:\program files (x86)\microsoft visual studio 12.0\vc\include\deque
;	COMDAT ??0?$deque@PAVValue@Json@@V?$allocator@PAVValue@Json@@@std@@@std@@QAE@XZ
_TEXT	SEGMENT
_this$ = -8						; size = 4
$T1 = -1						; size = 1
??0?$deque@PAVValue@Json@@V?$allocator@PAVValue@Json@@@std@@@std@@QAE@XZ PROC ; std::deque<Json::Value *,std::allocator<Json::Value *> >::deque<Json::Value *,std::allocator<Json::Value *> >, COMDAT
; _this$ = ecx

; 951  : 		{	// construct empty deque

	push	ebp
	mov	ebp, esp
	sub	esp, 8
	mov	DWORD PTR _this$[ebp], ecx
	lea	ecx, DWORD PTR $T1[ebp]
	call	??0?$allocator@PAVValue@Json@@@std@@QAE@XZ ; std::allocator<Json::Value *>::allocator<Json::Value *>
	push	eax
	mov	ecx, DWORD PTR _this$[ebp]
	call	??0?$_Deque_alloc@$0A@U?$_Deque_base_types@PAVValue@Json@@V?$allocator@PAVValue@Json@@@std@@@std@@@std@@QAE@ABV?$allocator@PAVValue@Json@@@1@@Z ; std::_Deque_alloc<0,std::_Deque_base_types<Json::Value *,std::allocator<Json::Value *> > >::_Deque_alloc<0,std::_Deque_base_types<Json::Value *,std::allocator<Json::Value *> > >

; 952  : 		}

	mov	eax, DWORD PTR _this$[ebp]
	mov	esp, ebp
	pop	ebp
	ret	0
??0?$deque@PAVValue@Json@@V?$allocator@PAVValue@Json@@@std@@@std@@QAE@XZ ENDP ; std::deque<Json::Value *,std::allocator<Json::Value *> >::deque<Json::Value *,std::allocator<Json::Value *> >
_TEXT	ENDS
; Function compile flags: /Odtp
; File c:\program files (x86)\microsoft visual studio 12.0\vc\include\deque
;	COMDAT ?_Getal@?$_Deque_alloc@$0A@U?$_Deque_base_types@PAVValue@Json@@V?$allocator@PAVValue@Json@@@std@@@std@@@std@@QBE?AU?$_Wrap_alloc@V?$allocator@PAVValue@Json@@@std@@@2@XZ
_TEXT	SEGMENT
_this$ = -4						; size = 4
___$ReturnUdt$ = 8					; size = 4
?_Getal@?$_Deque_alloc@$0A@U?$_Deque_base_types@PAVValue@Json@@V?$allocator@PAVValue@Json@@@std@@@std@@@std@@QBE?AU?$_Wrap_alloc@V?$allocator@PAVValue@Json@@@std@@@2@XZ PROC ; std::_Deque_alloc<0,std::_Deque_base_types<Json::Value *,std::allocator<Json::Value *> > >::_Getal, COMDAT
; _this$ = ecx

; 911  : 		{	// get reference to allocator

	push	ebp
	mov	ebp, esp
	push	ecx
	mov	DWORD PTR _this$[ebp], ecx

; 912  : 		return (_Alty());

	mov	ecx, DWORD PTR ___$ReturnUdt$[ebp]
	call	??0?$_Wrap_alloc@V?$allocator@PAVValue@Json@@@std@@@std@@QAE@XZ ; std::_Wrap_alloc<std::allocator<Json::Value *> >::_Wrap_alloc<std::allocator<Json::Value *> >
	mov	eax, DWORD PTR ___$ReturnUdt$[ebp]

; 913  : 		}

	mov	esp, ebp
	pop	ebp
	ret	4
?_Getal@?$_Deque_alloc@$0A@U?$_Deque_base_types@PAVValue@Json@@V?$allocator@PAVValue@Json@@@std@@@std@@@std@@QBE?AU?$_Wrap_alloc@V?$allocator@PAVValue@Json@@@std@@@2@XZ ENDP ; std::_Deque_alloc<0,std::_Deque_base_types<Json::Value *,std::allocator<Json::Value *> > >::_Getal
_TEXT	ENDS
; Function compile flags: /Odtp
; File c:\program files (x86)\microsoft visual studio 12.0\vc\include\deque
;	COMDAT ?_Free_proxy@?$_Deque_alloc@$0A@U?$_Deque_base_types@PAVValue@Json@@V?$allocator@PAVValue@Json@@@std@@@std@@@std@@QAEXXZ
_TEXT	SEGMENT
_this$ = -8						; size = 4
__Alproxy$ = -1						; size = 1
?_Free_proxy@?$_Deque_alloc@$0A@U?$_Deque_base_types@PAVValue@Json@@V?$allocator@PAVValue@Json@@@std@@@std@@@std@@QAEXXZ PROC ; std::_Deque_alloc<0,std::_Deque_base_types<Json::Value *,std::allocator<Json::Value *> > >::_Free_proxy, COMDAT
; _this$ = ecx

; 901  : 		{	// destroy proxy

	push	ebp
	mov	ebp, esp
	sub	esp, 8
	mov	DWORD PTR _this$[ebp], ecx

; 902  : 		typename _Alty::template rebind<_Container_proxy>::other
; 903  : 			_Alproxy;

	lea	ecx, DWORD PTR __Alproxy$[ebp]
	call	??0?$_Wrap_alloc@V?$allocator@U_Container_proxy@std@@@std@@@std@@QAE@XZ ; std::_Wrap_alloc<std::allocator<std::_Container_proxy> >::_Wrap_alloc<std::allocator<std::_Container_proxy> >

; 904  : 		this->_Orphan_all();

	mov	ecx, DWORD PTR _this$[ebp]
	call	DWORD PTR __imp_?_Orphan_all@_Container_base12@std@@QAEXXZ

; 905  : 		_Alproxy.destroy(this->_Myproxy);

	mov	eax, DWORD PTR _this$[ebp]
	mov	ecx, DWORD PTR [eax]
	push	ecx
	lea	ecx, DWORD PTR __Alproxy$[ebp]
	call	??$destroy@U_Container_proxy@std@@@?$_Wrap_alloc@V?$allocator@U_Container_proxy@std@@@std@@@std@@QAEXPAU_Container_proxy@1@@Z ; std::_Wrap_alloc<std::allocator<std::_Container_proxy> >::destroy<std::_Container_proxy>

; 906  : 		_Alproxy.deallocate(this->_Myproxy, 1);

	push	1
	mov	edx, DWORD PTR _this$[ebp]
	mov	eax, DWORD PTR [edx]
	push	eax
	lea	ecx, DWORD PTR __Alproxy$[ebp]
	call	?deallocate@?$_Wrap_alloc@V?$allocator@U_Container_proxy@std@@@std@@@std@@QAEXPAU_Container_proxy@2@I@Z ; std::_Wrap_alloc<std::allocator<std::_Container_proxy> >::deallocate

; 907  : 		this->_Myproxy = 0;

	mov	ecx, DWORD PTR _this$[ebp]
	mov	DWORD PTR [ecx], 0

; 908  : 		}

	mov	esp, ebp
	pop	ebp
	ret	0
?_Free_proxy@?$_Deque_alloc@$0A@U?$_Deque_base_types@PAVValue@Json@@V?$allocator@PAVValue@Json@@@std@@@std@@@std@@QAEXXZ ENDP ; std::_Deque_alloc<0,std::_Deque_base_types<Json::Value *,std::allocator<Json::Value *> > >::_Free_proxy
_TEXT	ENDS
; Function compile flags: /Odtp
; File c:\program files (x86)\microsoft visual studio 12.0\vc\include\deque
;	COMDAT ?_Alloc_proxy@?$_Deque_alloc@$0A@U?$_Deque_base_types@PAVValue@Json@@V?$allocator@PAVValue@Json@@@std@@@std@@@std@@QAEXXZ
_TEXT	SEGMENT
$T1 = -16						; size = 8
_this$ = -8						; size = 4
__Alproxy$ = -1						; size = 1
?_Alloc_proxy@?$_Deque_alloc@$0A@U?$_Deque_base_types@PAVValue@Json@@V?$allocator@PAVValue@Json@@@std@@@std@@@std@@QAEXXZ PROC ; std::_Deque_alloc<0,std::_Deque_base_types<Json::Value *,std::allocator<Json::Value *> > >::_Alloc_proxy, COMDAT
; _this$ = ecx

; 892  : 		{	// construct proxy from _Alval

	push	ebp
	mov	ebp, esp
	sub	esp, 16					; 00000010H
	mov	DWORD PTR _this$[ebp], ecx

; 893  : 		typename _Alty::template rebind<_Container_proxy>::other
; 894  : 			_Alproxy;

	lea	ecx, DWORD PTR __Alproxy$[ebp]
	call	??0?$_Wrap_alloc@V?$allocator@U_Container_proxy@std@@@std@@@std@@QAE@XZ ; std::_Wrap_alloc<std::allocator<std::_Container_proxy> >::_Wrap_alloc<std::allocator<std::_Container_proxy> >

; 895  : 		this->_Myproxy = _Alproxy.allocate(1);

	push	1
	lea	ecx, DWORD PTR __Alproxy$[ebp]
	call	?allocate@?$_Wrap_alloc@V?$allocator@U_Container_proxy@std@@@std@@@std@@QAEPAU_Container_proxy@2@I@Z ; std::_Wrap_alloc<std::allocator<std::_Container_proxy> >::allocate
	mov	ecx, DWORD PTR _this$[ebp]
	mov	DWORD PTR [ecx], eax

; 896  : 		_Alproxy.construct(this->_Myproxy, _Container_proxy());

	lea	ecx, DWORD PTR $T1[ebp]
	call	??0_Container_proxy@std@@QAE@XZ		; std::_Container_proxy::_Container_proxy
	push	eax
	mov	edx, DWORD PTR _this$[ebp]
	mov	eax, DWORD PTR [edx]
	push	eax
	lea	ecx, DWORD PTR __Alproxy$[ebp]
	call	??$construct@U_Container_proxy@std@@U12@@?$_Wrap_alloc@V?$allocator@U_Container_proxy@std@@@std@@@std@@QAEXPAU_Container_proxy@1@$$QAU21@@Z ; std::_Wrap_alloc<std::allocator<std::_Container_proxy> >::construct<std::_Container_proxy,std::_Container_proxy>

; 897  : 		this->_Myproxy->_Mycont = this;

	mov	ecx, DWORD PTR _this$[ebp]
	mov	edx, DWORD PTR [ecx]
	mov	eax, DWORD PTR _this$[ebp]
	mov	DWORD PTR [edx], eax

; 898  : 		}

	mov	esp, ebp
	pop	ebp
	ret	0
?_Alloc_proxy@?$_Deque_alloc@$0A@U?$_Deque_base_types@PAVValue@Json@@V?$allocator@PAVValue@Json@@@std@@@std@@@std@@QAEXXZ ENDP ; std::_Deque_alloc<0,std::_Deque_base_types<Json::Value *,std::allocator<Json::Value *> > >::_Alloc_proxy
_TEXT	ENDS
; Function compile flags: /Odtp
; File c:\program files (x86)\microsoft visual studio 12.0\vc\include\deque
;	COMDAT ??1?$_Deque_alloc@$0A@U?$_Deque_base_types@PAVValue@Json@@V?$allocator@PAVValue@Json@@@std@@@std@@@std@@QAE@XZ
_TEXT	SEGMENT
_this$ = -4						; size = 4
??1?$_Deque_alloc@$0A@U?$_Deque_base_types@PAVValue@Json@@V?$allocator@PAVValue@Json@@@std@@@std@@@std@@QAE@XZ PROC ; std::_Deque_alloc<0,std::_Deque_base_types<Json::Value *,std::allocator<Json::Value *> > >::~_Deque_alloc<0,std::_Deque_base_types<Json::Value *,std::allocator<Json::Value *> > >, COMDAT
; _this$ = ecx

; 878  : 		{	// destroy proxy

	push	ebp
	mov	ebp, esp
	push	ecx
	mov	DWORD PTR _this$[ebp], ecx

; 879  : 		_Free_proxy();

	mov	ecx, DWORD PTR _this$[ebp]
	call	?_Free_proxy@?$_Deque_alloc@$0A@U?$_Deque_base_types@PAVValue@Json@@V?$allocator@PAVValue@Json@@@std@@@std@@@std@@QAEXXZ ; std::_Deque_alloc<0,std::_Deque_base_types<Json::Value *,std::allocator<Json::Value *> > >::_Free_proxy

; 880  : 		}

	mov	ecx, DWORD PTR _this$[ebp]
	call	??1?$_Deque_val@U?$_Deque_simple_types@PAVValue@Json@@@std@@@std@@QAE@XZ
	mov	esp, ebp
	pop	ebp
	ret	0
??1?$_Deque_alloc@$0A@U?$_Deque_base_types@PAVValue@Json@@V?$allocator@PAVValue@Json@@@std@@@std@@@std@@QAE@XZ ENDP ; std::_Deque_alloc<0,std::_Deque_base_types<Json::Value *,std::allocator<Json::Value *> > >::~_Deque_alloc<0,std::_Deque_base_types<Json::Value *,std::allocator<Json::Value *> > >
_TEXT	ENDS
; Function compile flags: /Odtp
; File c:\program files (x86)\microsoft visual studio 12.0\vc\include\deque
;	COMDAT ??0?$_Deque_alloc@$0A@U?$_Deque_base_types@PAVValue@Json@@V?$allocator@PAVValue@Json@@@std@@@std@@@std@@QAE@ABV?$allocator@PAVValue@Json@@@1@@Z
_TEXT	SEGMENT
_this$ = -16						; size = 4
__$EHRec$ = -12						; size = 12
___formal$ = 8						; size = 4
??0?$_Deque_alloc@$0A@U?$_Deque_base_types@PAVValue@Json@@V?$allocator@PAVValue@Json@@@std@@@std@@@std@@QAE@ABV?$allocator@PAVValue@Json@@@1@@Z PROC ; std::_Deque_alloc<0,std::_Deque_base_types<Json::Value *,std::allocator<Json::Value *> > >::_Deque_alloc<0,std::_Deque_base_types<Json::Value *,std::allocator<Json::Value *> > >, COMDAT
; _this$ = ecx

; 872  : 	_Deque_alloc(const _Alloc& = _Alloc())

	push	ebp
	mov	ebp, esp
	push	-1
	push	__ehhandler$??0?$_Deque_alloc@$0A@U?$_Deque_base_types@PAVValue@Json@@V?$allocator@PAVValue@Json@@@std@@@std@@@std@@QAE@ABV?$allocator@PAVValue@Json@@@1@@Z
	mov	eax, DWORD PTR fs:0
	push	eax
	push	ecx
	mov	eax, DWORD PTR ___security_cookie
	xor	eax, ebp
	push	eax
	lea	eax, DWORD PTR __$EHRec$[ebp]
	mov	DWORD PTR fs:0, eax
	mov	DWORD PTR _this$[ebp], ecx
	mov	ecx, DWORD PTR _this$[ebp]
	call	??0?$_Deque_val@U?$_Deque_simple_types@PAVValue@Json@@@std@@@std@@QAE@XZ ; std::_Deque_val<std::_Deque_simple_types<Json::Value *> >::_Deque_val<std::_Deque_simple_types<Json::Value *> >
	mov	DWORD PTR __$EHRec$[ebp+8], 0

; 873  : 		{	// construct allocators from _Al
; 874  : 		_Alloc_proxy();

	mov	ecx, DWORD PTR _this$[ebp]
	call	?_Alloc_proxy@?$_Deque_alloc@$0A@U?$_Deque_base_types@PAVValue@Json@@V?$allocator@PAVValue@Json@@@std@@@std@@@std@@QAEXXZ ; std::_Deque_alloc<0,std::_Deque_base_types<Json::Value *,std::allocator<Json::Value *> > >::_Alloc_proxy

; 875  : 		}

	mov	DWORD PTR __$EHRec$[ebp+8], -1
	mov	eax, DWORD PTR _this$[ebp]
	mov	ecx, DWORD PTR __$EHRec$[ebp]
	mov	DWORD PTR fs:0, ecx
	pop	ecx
	mov	esp, ebp
	pop	ebp
	ret	4
_TEXT	ENDS
;	COMDAT text$x
text$x	SEGMENT
__unwindfunclet$??0?$_Deque_alloc@$0A@U?$_Deque_base_types@PAVValue@Json@@V?$allocator@PAVValue@Json@@@std@@@std@@@std@@QAE@ABV?$allocator@PAVValue@Json@@@1@@Z$0:
	mov	ecx, DWORD PTR _this$[ebp]
	jmp	??1?$_Deque_val@U?$_Deque_simple_types@PAVValue@Json@@@std@@@std@@QAE@XZ
__ehhandler$??0?$_Deque_alloc@$0A@U?$_Deque_base_types@PAVValue@Json@@V?$allocator@PAVValue@Json@@@std@@@std@@@std@@QAE@ABV?$allocator@PAVValue@Json@@@1@@Z:
	mov	edx, DWORD PTR [esp+8]
	lea	eax, DWORD PTR [edx+12]
	mov	ecx, DWORD PTR [edx-8]
	xor	ecx, eax
	call	@__security_check_cookie@4
	mov	eax, OFFSET __ehfuncinfo$??0?$_Deque_alloc@$0A@U?$_Deque_base_types@PAVValue@Json@@V?$allocator@PAVValue@Json@@@std@@@std@@@std@@QAE@ABV?$allocator@PAVValue@Json@@@1@@Z
	jmp	___CxxFrameHandler3
text$x	ENDS
??0?$_Deque_alloc@$0A@U?$_Deque_base_types@PAVValue@Json@@V?$allocator@PAVValue@Json@@@std@@@std@@@std@@QAE@ABV?$allocator@PAVValue@Json@@@1@@Z ENDP ; std::_Deque_alloc<0,std::_Deque_base_types<Json::Value *,std::allocator<Json::Value *> > >::_Deque_alloc<0,std::_Deque_base_types<Json::Value *,std::allocator<Json::Value *> > >
; Function compile flags: /Odtp
;	COMDAT ??1?$_Deque_val@U?$_Deque_simple_types@PAVValue@Json@@@std@@@std@@QAE@XZ
_TEXT	SEGMENT
_this$ = -4						; size = 4
??1?$_Deque_val@U?$_Deque_simple_types@PAVValue@Json@@@std@@@std@@QAE@XZ PROC ; std::_Deque_val<std::_Deque_simple_types<Json::Value *> >::~_Deque_val<std::_Deque_simple_types<Json::Value *> >, COMDAT
; _this$ = ecx
	push	ebp
	mov	ebp, esp
	push	ecx
	mov	DWORD PTR _this$[ebp], ecx
	mov	ecx, DWORD PTR _this$[ebp]
	call	DWORD PTR __imp_??1_Container_base12@std@@QAE@XZ
	mov	esp, ebp
	pop	ebp
	ret	0
??1?$_Deque_val@U?$_Deque_simple_types@PAVValue@Json@@@std@@@std@@QAE@XZ ENDP ; std::_Deque_val<std::_Deque_simple_types<Json::Value *> >::~_Deque_val<std::_Deque_simple_types<Json::Value *> >
_TEXT	ENDS
; Function compile flags: /Odtp
; File c:\program files (x86)\microsoft visual studio 12.0\vc\include\deque
;	COMDAT ?_Getblock@?$_Deque_val@U?$_Deque_simple_types@PAVValue@Json@@@std@@@std@@QBEII@Z
_TEXT	SEGMENT
_this$ = -4						; size = 4
__Off$ = 8						; size = 4
?_Getblock@?$_Deque_val@U?$_Deque_simple_types@PAVValue@Json@@@std@@@std@@QBEII@Z PROC ; std::_Deque_val<std::_Deque_simple_types<Json::Value *> >::_Getblock, COMDAT
; _this$ = ecx

; 780  : 		{	// determine block from offset

	push	ebp
	mov	ebp, esp
	push	ecx
	mov	DWORD PTR _this$[ebp], ecx

; 781  : 			// NB: _Mapsize and _DEQUESIZ are guaranteed to be powers of 2
; 782  : 		return ((_Off / _DEQUESIZ) & (this->_Mapsize - 1));

	mov	eax, DWORD PTR __Off$[ebp]
	shr	eax, 2
	mov	ecx, DWORD PTR _this$[ebp]
	mov	edx, DWORD PTR [ecx+8]
	sub	edx, 1
	and	eax, edx

; 783  : 		}

	mov	esp, ebp
	pop	ebp
	ret	4
?_Getblock@?$_Deque_val@U?$_Deque_simple_types@PAVValue@Json@@@std@@@std@@QBEII@Z ENDP ; std::_Deque_val<std::_Deque_simple_types<Json::Value *> >::_Getblock
_TEXT	ENDS
; Function compile flags: /Odtp
; File c:\program files (x86)\microsoft visual studio 12.0\vc\include\deque
;	COMDAT ??0?$_Deque_val@U?$_Deque_simple_types@PAVValue@Json@@@std@@@std@@QAE@XZ
_TEXT	SEGMENT
_this$ = -4						; size = 4
??0?$_Deque_val@U?$_Deque_simple_types@PAVValue@Json@@@std@@@std@@QAE@XZ PROC ; std::_Deque_val<std::_Deque_simple_types<Json::Value *> >::_Deque_val<std::_Deque_simple_types<Json::Value *> >, COMDAT
; _this$ = ecx

; 771  : 	_Deque_val()

	push	ebp
	mov	ebp, esp
	push	ecx
	mov	DWORD PTR _this$[ebp], ecx
	mov	ecx, DWORD PTR _this$[ebp]
	call	DWORD PTR __imp_??0_Container_base12@std@@QAE@XZ

; 772  : 		{	// initialize values
; 773  : 		_Map = _Mapptr();

	mov	eax, DWORD PTR _this$[ebp]
	mov	DWORD PTR [eax+4], 0

; 774  : 		_Mapsize = 0;

	mov	ecx, DWORD PTR _this$[ebp]
	mov	DWORD PTR [ecx+8], 0

; 775  : 		_Myoff = 0;

	mov	edx, DWORD PTR _this$[ebp]
	mov	DWORD PTR [edx+12], 0

; 776  : 		_Mysize = 0;

	mov	eax, DWORD PTR _this$[ebp]
	mov	DWORD PTR [eax+16], 0

; 777  : 		}

	mov	eax, DWORD PTR _this$[ebp]
	mov	esp, ebp
	pop	ebp
	ret	0
??0?$_Deque_val@U?$_Deque_simple_types@PAVValue@Json@@@std@@@std@@QAE@XZ ENDP ; std::_Deque_val<std::_Deque_simple_types<Json::Value *> >::_Deque_val<std::_Deque_simple_types<Json::Value *> >
_TEXT	ENDS
; Function compile flags: /Odtp
; File c:\program files (x86)\microsoft visual studio 12.0\vc\include\xmemory0
;	COMDAT ?deallocate@?$_Wrap_alloc@V?$allocator@PAPAVValue@Json@@@std@@@std@@QAEXPAPAPAVValue@Json@@I@Z
_TEXT	SEGMENT
_this$ = -4						; size = 4
__Ptr$ = 8						; size = 4
__Count$ = 12						; size = 4
?deallocate@?$_Wrap_alloc@V?$allocator@PAPAVValue@Json@@@std@@@std@@QAEXPAPAPAVValue@Json@@I@Z PROC ; std::_Wrap_alloc<std::allocator<Json::Value * *> >::deallocate, COMDAT
; _this$ = ecx

; 857  : 		{	// deallocate object at _Ptr, ignore size

	push	ebp
	mov	ebp, esp
	push	ecx
	mov	DWORD PTR _this$[ebp], ecx

; 858  : 		_Mybase::deallocate(_Ptr, _Count);

	mov	eax, DWORD PTR __Count$[ebp]
	push	eax
	mov	ecx, DWORD PTR __Ptr$[ebp]
	push	ecx
	mov	ecx, DWORD PTR _this$[ebp]
	call	?deallocate@?$allocator@PAPAVValue@Json@@@std@@QAEXPAPAPAVValue@Json@@I@Z ; std::allocator<Json::Value * *>::deallocate

; 859  : 		}

	mov	esp, ebp
	pop	ebp
	ret	8
?deallocate@?$_Wrap_alloc@V?$allocator@PAPAVValue@Json@@@std@@@std@@QAEXPAPAPAVValue@Json@@I@Z ENDP ; std::_Wrap_alloc<std::allocator<Json::Value * *> >::deallocate
_TEXT	ENDS
; Function compile flags: /Odtp
; File c:\program files (x86)\microsoft visual studio 12.0\vc\include\xmemory0
;	COMDAT ?allocate@?$_Wrap_alloc@V?$allocator@PAPAVValue@Json@@@std@@@std@@QAEPAPAPAVValue@Json@@I@Z
_TEXT	SEGMENT
_this$ = -4						; size = 4
__Count$ = 8						; size = 4
?allocate@?$_Wrap_alloc@V?$allocator@PAPAVValue@Json@@@std@@@std@@QAEPAPAPAVValue@Json@@I@Z PROC ; std::_Wrap_alloc<std::allocator<Json::Value * *> >::allocate, COMDAT
; _this$ = ecx

; 846  : 		{	// allocate array of _Count elements

	push	ebp
	mov	ebp, esp
	push	ecx
	mov	DWORD PTR _this$[ebp], ecx

; 847  : 		return (_Mybase::allocate(_Count));

	mov	eax, DWORD PTR __Count$[ebp]
	push	eax
	mov	ecx, DWORD PTR _this$[ebp]
	call	?allocate@?$allocator@PAPAVValue@Json@@@std@@QAEPAPAPAVValue@Json@@I@Z ; std::allocator<Json::Value * *>::allocate

; 848  : 		}

	mov	esp, ebp
	pop	ebp
	ret	4
?allocate@?$_Wrap_alloc@V?$allocator@PAPAVValue@Json@@@std@@@std@@QAEPAPAPAVValue@Json@@I@Z ENDP ; std::_Wrap_alloc<std::allocator<Json::Value * *> >::allocate
_TEXT	ENDS
; Function compile flags: /Odtp
; File c:\program files (x86)\microsoft visual studio 12.0\vc\include\xmemory0
;	COMDAT ?allocate@?$allocator@PAPAVValue@Json@@@std@@QAEPAPAPAVValue@Json@@I@Z
_TEXT	SEGMENT
_this$ = -4						; size = 4
__Count$ = 8						; size = 4
?allocate@?$allocator@PAPAVValue@Json@@@std@@QAEPAPAPAVValue@Json@@I@Z PROC ; std::allocator<Json::Value * *>::allocate, COMDAT
; _this$ = ecx

; 577  : 		{	// allocate array of _Count elements

	push	ebp
	mov	ebp, esp
	push	ecx
	mov	DWORD PTR _this$[ebp], ecx

; 578  : 		return (_Allocate(_Count, (pointer)0));

	push	0
	mov	eax, DWORD PTR __Count$[ebp]
	push	eax
	call	??$_Allocate@PAPAVValue@Json@@@std@@YAPAPAPAVValue@Json@@IPAPAPAV12@@Z ; std::_Allocate<Json::Value * *>
	add	esp, 8

; 579  : 		}

	mov	esp, ebp
	pop	ebp
	ret	4
?allocate@?$allocator@PAPAVValue@Json@@@std@@QAEPAPAPAVValue@Json@@I@Z ENDP ; std::allocator<Json::Value * *>::allocate
_TEXT	ENDS
; Function compile flags: /Odtp
; File c:\program files (x86)\microsoft visual studio 12.0\vc\include\xmemory0
;	COMDAT ?deallocate@?$allocator@PAPAVValue@Json@@@std@@QAEXPAPAPAVValue@Json@@I@Z
_TEXT	SEGMENT
_this$ = -4						; size = 4
__Ptr$ = 8						; size = 4
___formal$ = 12						; size = 4
?deallocate@?$allocator@PAPAVValue@Json@@@std@@QAEXPAPAPAVValue@Json@@I@Z PROC ; std::allocator<Json::Value * *>::deallocate, COMDAT
; _this$ = ecx

; 572  : 		{	// deallocate object at _Ptr, ignore size

	push	ebp
	mov	ebp, esp
	push	ecx
	mov	DWORD PTR _this$[ebp], ecx

; 573  : 		::operator delete(_Ptr);

	mov	eax, DWORD PTR __Ptr$[ebp]
	push	eax
	call	??3@YAXPAX@Z				; operator delete
	add	esp, 4

; 574  : 		}

	mov	esp, ebp
	pop	ebp
	ret	8
?deallocate@?$allocator@PAPAVValue@Json@@@std@@QAEXPAPAPAVValue@Json@@I@Z ENDP ; std::allocator<Json::Value * *>::deallocate
_TEXT	ENDS
; Function compile flags: /Odtp
; File c:\program files (x86)\microsoft visual studio 12.0\vc\include\xmemory0
;	COMDAT ?max_size@?$_Wrap_alloc@V?$allocator@PAVValue@Json@@@std@@@std@@QBEIXZ
_TEXT	SEGMENT
_this$ = -4						; size = 4
?max_size@?$_Wrap_alloc@V?$allocator@PAVValue@Json@@@std@@@std@@QBEIXZ PROC ; std::_Wrap_alloc<std::allocator<Json::Value *> >::max_size, COMDAT
; _this$ = ecx

; 883  : 		{	// get maximum size

	push	ebp
	mov	ebp, esp
	push	ecx
	mov	DWORD PTR _this$[ebp], ecx

; 884  : 		return (_Mytraits::max_size(*this));

	mov	eax, DWORD PTR _this$[ebp]
	push	eax
	call	?max_size@?$allocator_traits@V?$allocator@PAVValue@Json@@@std@@@std@@SAIABV?$allocator@PAVValue@Json@@@2@@Z ; std::allocator_traits<std::allocator<Json::Value *> >::max_size
	add	esp, 4

; 885  : 		}

	mov	esp, ebp
	pop	ebp
	ret	0
?max_size@?$_Wrap_alloc@V?$allocator@PAVValue@Json@@@std@@@std@@QBEIXZ ENDP ; std::_Wrap_alloc<std::allocator<Json::Value *> >::max_size
_TEXT	ENDS
; Function compile flags: /Odtp
; File c:\program files (x86)\microsoft visual studio 12.0\vc\include\xmemory0
;	COMDAT ?deallocate@?$_Wrap_alloc@V?$allocator@PAVValue@Json@@@std@@@std@@QAEXPAPAVValue@Json@@I@Z
_TEXT	SEGMENT
_this$ = -4						; size = 4
__Ptr$ = 8						; size = 4
__Count$ = 12						; size = 4
?deallocate@?$_Wrap_alloc@V?$allocator@PAVValue@Json@@@std@@@std@@QAEXPAPAVValue@Json@@I@Z PROC ; std::_Wrap_alloc<std::allocator<Json::Value *> >::deallocate, COMDAT
; _this$ = ecx

; 857  : 		{	// deallocate object at _Ptr, ignore size

	push	ebp
	mov	ebp, esp
	push	ecx
	mov	DWORD PTR _this$[ebp], ecx

; 858  : 		_Mybase::deallocate(_Ptr, _Count);

	mov	eax, DWORD PTR __Count$[ebp]
	push	eax
	mov	ecx, DWORD PTR __Ptr$[ebp]
	push	ecx
	mov	ecx, DWORD PTR _this$[ebp]
	call	?deallocate@?$allocator@PAVValue@Json@@@std@@QAEXPAPAVValue@Json@@I@Z ; std::allocator<Json::Value *>::deallocate

; 859  : 		}

	mov	esp, ebp
	pop	ebp
	ret	8
?deallocate@?$_Wrap_alloc@V?$allocator@PAVValue@Json@@@std@@@std@@QAEXPAPAVValue@Json@@I@Z ENDP ; std::_Wrap_alloc<std::allocator<Json::Value *> >::deallocate
_TEXT	ENDS
; Function compile flags: /Odtp
; File c:\program files (x86)\microsoft visual studio 12.0\vc\include\xmemory0
;	COMDAT ?allocate@?$_Wrap_alloc@V?$allocator@PAVValue@Json@@@std@@@std@@QAEPAPAVValue@Json@@I@Z
_TEXT	SEGMENT
_this$ = -4						; size = 4
__Count$ = 8						; size = 4
?allocate@?$_Wrap_alloc@V?$allocator@PAVValue@Json@@@std@@@std@@QAEPAPAVValue@Json@@I@Z PROC ; std::_Wrap_alloc<std::allocator<Json::Value *> >::allocate, COMDAT
; _this$ = ecx

; 846  : 		{	// allocate array of _Count elements

	push	ebp
	mov	ebp, esp
	push	ecx
	mov	DWORD PTR _this$[ebp], ecx

; 847  : 		return (_Mybase::allocate(_Count));

	mov	eax, DWORD PTR __Count$[ebp]
	push	eax
	mov	ecx, DWORD PTR _this$[ebp]
	call	?allocate@?$allocator@PAVValue@Json@@@std@@QAEPAPAVValue@Json@@I@Z ; std::allocator<Json::Value *>::allocate

; 848  : 		}

	mov	esp, ebp
	pop	ebp
	ret	4
?allocate@?$_Wrap_alloc@V?$allocator@PAVValue@Json@@@std@@@std@@QAEPAPAVValue@Json@@I@Z ENDP ; std::_Wrap_alloc<std::allocator<Json::Value *> >::allocate
_TEXT	ENDS
; Function compile flags: /Odtp
; File c:\program files (x86)\microsoft visual studio 12.0\vc\include\xmemory0
;	COMDAT ??0?$_Wrap_alloc@V?$allocator@PAVValue@Json@@@std@@@std@@QAE@XZ
_TEXT	SEGMENT
_this$ = -4						; size = 4
??0?$_Wrap_alloc@V?$allocator@PAVValue@Json@@@std@@@std@@QAE@XZ PROC ; std::_Wrap_alloc<std::allocator<Json::Value *> >::_Wrap_alloc<std::allocator<Json::Value *> >, COMDAT
; _this$ = ecx

; 801  : 		{	// construct default allocator (do nothing)

	push	ebp
	mov	ebp, esp
	push	ecx
	mov	DWORD PTR _this$[ebp], ecx
	mov	ecx, DWORD PTR _this$[ebp]
	call	??0?$allocator@PAVValue@Json@@@std@@QAE@XZ ; std::allocator<Json::Value *>::allocator<Json::Value *>

; 802  : 		}

	mov	eax, DWORD PTR _this$[ebp]
	mov	esp, ebp
	pop	ebp
	ret	0
??0?$_Wrap_alloc@V?$allocator@PAVValue@Json@@@std@@@std@@QAE@XZ ENDP ; std::_Wrap_alloc<std::allocator<Json::Value *> >::_Wrap_alloc<std::allocator<Json::Value *> >
_TEXT	ENDS
; Function compile flags: /Odtp
; File c:\program files (x86)\microsoft visual studio 12.0\vc\include\xmemory0
;	COMDAT ?max_size@?$allocator_traits@V?$allocator@PAVValue@Json@@@std@@@std@@SAIABV?$allocator@PAVValue@Json@@@2@@Z
_TEXT	SEGMENT
__Al$ = 8						; size = 4
?max_size@?$allocator_traits@V?$allocator@PAVValue@Json@@@std@@@std@@SAIABV?$allocator@PAVValue@Json@@@2@@Z PROC ; std::allocator_traits<std::allocator<Json::Value *> >::max_size, COMDAT

; 734  : 		{	// get maximum size

	push	ebp
	mov	ebp, esp

; 735  : 		return (_Al.max_size());

	mov	ecx, DWORD PTR __Al$[ebp]
	call	?max_size@?$allocator@PAVValue@Json@@@std@@QBEIXZ ; std::allocator<Json::Value *>::max_size

; 736  : 		}

	pop	ebp
	ret	0
?max_size@?$allocator_traits@V?$allocator@PAVValue@Json@@@std@@@std@@SAIABV?$allocator@PAVValue@Json@@@2@@Z ENDP ; std::allocator_traits<std::allocator<Json::Value *> >::max_size
_TEXT	ENDS
; Function compile flags: /Odtp
; File c:\program files (x86)\microsoft visual studio 12.0\vc\include\xmemory0
;	COMDAT ?max_size@?$allocator@PAVValue@Json@@@std@@QBEIXZ
_TEXT	SEGMENT
_this$ = -4						; size = 4
?max_size@?$allocator@PAVValue@Json@@@std@@QBEIXZ PROC	; std::allocator<Json::Value *>::max_size, COMDAT
; _this$ = ecx

; 611  : 		{	// estimate maximum array size

	push	ebp
	mov	ebp, esp
	push	ecx
	mov	DWORD PTR _this$[ebp], ecx

; 612  : 		return ((size_t)(-1) / sizeof (_Ty));

	mov	eax, 1073741823				; 3fffffffH

; 613  : 		}

	mov	esp, ebp
	pop	ebp
	ret	0
?max_size@?$allocator@PAVValue@Json@@@std@@QBEIXZ ENDP	; std::allocator<Json::Value *>::max_size
_TEXT	ENDS
; Function compile flags: /Odtp
; File c:\program files (x86)\microsoft visual studio 12.0\vc\include\xmemory0
;	COMDAT ?allocate@?$allocator@PAVValue@Json@@@std@@QAEPAPAVValue@Json@@I@Z
_TEXT	SEGMENT
_this$ = -4						; size = 4
__Count$ = 8						; size = 4
?allocate@?$allocator@PAVValue@Json@@@std@@QAEPAPAVValue@Json@@I@Z PROC ; std::allocator<Json::Value *>::allocate, COMDAT
; _this$ = ecx

; 577  : 		{	// allocate array of _Count elements

	push	ebp
	mov	ebp, esp
	push	ecx
	mov	DWORD PTR _this$[ebp], ecx

; 578  : 		return (_Allocate(_Count, (pointer)0));

	push	0
	mov	eax, DWORD PTR __Count$[ebp]
	push	eax
	call	??$_Allocate@PAVValue@Json@@@std@@YAPAPAVValue@Json@@IPAPAV12@@Z ; std::_Allocate<Json::Value *>
	add	esp, 8

; 579  : 		}

	mov	esp, ebp
	pop	ebp
	ret	4
?allocate@?$allocator@PAVValue@Json@@@std@@QAEPAPAVValue@Json@@I@Z ENDP ; std::allocator<Json::Value *>::allocate
_TEXT	ENDS
; Function compile flags: /Odtp
; File c:\program files (x86)\microsoft visual studio 12.0\vc\include\xmemory0
;	COMDAT ?deallocate@?$allocator@PAVValue@Json@@@std@@QAEXPAPAVValue@Json@@I@Z
_TEXT	SEGMENT
_this$ = -4						; size = 4
__Ptr$ = 8						; size = 4
___formal$ = 12						; size = 4
?deallocate@?$allocator@PAVValue@Json@@@std@@QAEXPAPAVValue@Json@@I@Z PROC ; std::allocator<Json::Value *>::deallocate, COMDAT
; _this$ = ecx

; 572  : 		{	// deallocate object at _Ptr, ignore size

	push	ebp
	mov	ebp, esp
	push	ecx
	mov	DWORD PTR _this$[ebp], ecx

; 573  : 		::operator delete(_Ptr);

	mov	eax, DWORD PTR __Ptr$[ebp]
	push	eax
	call	??3@YAXPAX@Z				; operator delete
	add	esp, 4

; 574  : 		}

	mov	esp, ebp
	pop	ebp
	ret	8
?deallocate@?$allocator@PAVValue@Json@@@std@@QAEXPAPAVValue@Json@@I@Z ENDP ; std::allocator<Json::Value *>::deallocate
_TEXT	ENDS
; Function compile flags: /Odtp
; File c:\program files (x86)\microsoft visual studio 12.0\vc\include\xmemory0
;	COMDAT ??0?$allocator@PAVValue@Json@@@std@@QAE@XZ
_TEXT	SEGMENT
_this$ = -4						; size = 4
??0?$allocator@PAVValue@Json@@@std@@QAE@XZ PROC		; std::allocator<Json::Value *>::allocator<Json::Value *>, COMDAT
; _this$ = ecx

; 552  : 	allocator() _THROW0()

	push	ebp
	mov	ebp, esp
	push	ecx
	mov	DWORD PTR _this$[ebp], ecx

; 553  : 		{	// construct default allocator (do nothing)
; 554  : 		}

	mov	eax, DWORD PTR _this$[ebp]
	mov	esp, ebp
	pop	ebp
	ret	0
??0?$allocator@PAVValue@Json@@@std@@QAE@XZ ENDP		; std::allocator<Json::Value *>::allocator<Json::Value *>
_TEXT	ENDS
; Function compile flags: /Odtp
; File h:\source\hg\client\code_core\jsoncpp-src-0.5.0\src\lib_json\json_reader.cpp
;	COMDAT ?skipCommentTokens@Reader@Json@@AAEXAAVToken@12@@Z
_TEXT	SEGMENT
_this$ = -4						; size = 4
_token$ = 8						; size = 4
?skipCommentTokens@Reader@Json@@AAEXAAVToken@12@@Z PROC	; Json::Reader::skipCommentTokens, COMDAT
; _this$ = ecx

; 247  : {

	push	ebp
	mov	ebp, esp
	push	ecx
	mov	DWORD PTR _this$[ebp], ecx

; 248  :    if ( features_.allowComments_ )

	mov	eax, DWORD PTR _this$[ebp]
	movzx	ecx, BYTE PTR [eax+108]
	test	ecx, ecx
	je	SHORT $LN5@skipCommen
$LN4@skipCommen:

; 249  :    {
; 250  :       do
; 251  :       {
; 252  :          readToken( token );

	mov	edx, DWORD PTR _token$[ebp]
	push	edx
	mov	ecx, DWORD PTR _this$[ebp]
	call	?readToken@Reader@Json@@AAE_NAAVToken@12@@Z ; Json::Reader::readToken

; 253  :       }
; 254  :       while ( token.type_ == tokenComment );

	mov	eax, DWORD PTR _token$[ebp]
	cmp	DWORD PTR [eax], 12			; 0000000cH
	je	SHORT $LN4@skipCommen

; 255  :    }
; 256  :    else

	jmp	SHORT $LN6@skipCommen
$LN5@skipCommen:

; 257  :    {
; 258  :       readToken( token );

	mov	ecx, DWORD PTR _token$[ebp]
	push	ecx
	mov	ecx, DWORD PTR _this$[ebp]
	call	?readToken@Reader@Json@@AAE_NAAVToken@12@@Z ; Json::Reader::readToken
$LN6@skipCommen:

; 259  :    }
; 260  : }

	mov	esp, ebp
	pop	ebp
	ret	4
?skipCommentTokens@Reader@Json@@AAEXAAVToken@12@@Z ENDP	; Json::Reader::skipCommentTokens
_TEXT	ENDS
; Function compile flags: /Odtp
; File h:\source\hg\client\code_core\jsoncpp-src-0.5.0\src\lib_json\json_reader.cpp
;	COMDAT ?addComment@Reader@Json@@AAEXPBD0W4CommentPlacement@2@@Z
_TEXT	SEGMENT
tv128 = -84						; size = 4
tv95 = -80						; size = 4
tv93 = -76						; size = 4
tv129 = -72						; size = 4
_this$ = -68						; size = 4
$T2 = -64						; size = 24
$T3 = -40						; size = 24
__$ArrayPad$ = -16					; size = 4
__$EHRec$ = -12						; size = 12
_begin$ = 8						; size = 4
_end$ = 12						; size = 4
_placement$ = 16					; size = 4
?addComment@Reader@Json@@AAEXPBD0W4CommentPlacement@2@@Z PROC ; Json::Reader::addComment, COMDAT
; _this$ = ecx

; 409  : {

	push	ebp
	mov	ebp, esp
	push	-1
	push	__ehhandler$?addComment@Reader@Json@@AAEXPBD0W4CommentPlacement@2@@Z
	mov	eax, DWORD PTR fs:0
	push	eax
	sub	esp, 72					; 00000048H
	mov	eax, DWORD PTR ___security_cookie
	xor	eax, ebp
	mov	DWORD PTR __$ArrayPad$[ebp], eax
	push	eax
	lea	eax, DWORD PTR __$EHRec$[ebp]
	mov	DWORD PTR fs:0, eax
	mov	DWORD PTR _this$[ebp], ecx

; 410  :    assert( collectComments_ );
; 411  :    if ( placement == commentAfterOnSameLine )

	cmp	DWORD PTR _placement$[ebp], 1
	jne	SHORT $LN3@addComment

; 412  :    {
; 413  :       assert( lastValue_ != 0 );
; 414  :       lastValue_->setComment( std::string( begin, end ), placement );

	mov	eax, DWORD PTR _placement$[ebp]
	push	eax
	mov	ecx, DWORD PTR _end$[ebp]
	push	ecx
	mov	edx, DWORD PTR _begin$[ebp]
	push	edx
	lea	ecx, DWORD PTR $T3[ebp]
	call	??0?$basic_string@DU?$char_traits@D@std@@V?$allocator@D@2@@std@@QAE@PBD0@Z ; std::basic_string<char,std::char_traits<char>,std::allocator<char> >::basic_string<char,std::char_traits<char>,std::allocator<char> >
	mov	DWORD PTR tv128[ebp], eax
	mov	eax, DWORD PTR tv128[ebp]
	mov	DWORD PTR tv93[ebp], eax
	mov	DWORD PTR __$EHRec$[ebp+8], 0
	mov	ecx, DWORD PTR tv93[ebp]
	push	ecx
	mov	edx, DWORD PTR _this$[ebp]
	mov	ecx, DWORD PTR [edx+80]
	call	?setComment@Value@Json@@QAEXABV?$basic_string@DU?$char_traits@D@std@@V?$allocator@D@2@@std@@W4CommentPlacement@2@@Z ; Json::Value::setComment
	mov	DWORD PTR __$EHRec$[ebp+8], -1
	lea	ecx, DWORD PTR $T3[ebp]
	call	??1?$basic_string@DU?$char_traits@D@std@@V?$allocator@D@2@@std@@QAE@XZ ; std::basic_string<char,std::char_traits<char>,std::allocator<char> >::~basic_string<char,std::char_traits<char>,std::allocator<char> >

; 415  :    }
; 416  :    else

	jmp	SHORT $LN4@addComment
$LN3@addComment:

; 417  :    {
; 418  :       if ( !commentsBefore_.empty() )

	mov	ecx, DWORD PTR _this$[ebp]
	add	ecx, 84					; 00000054H
	call	?empty@?$basic_string@DU?$char_traits@D@std@@V?$allocator@D@2@@std@@QBE_NXZ ; std::basic_string<char,std::char_traits<char>,std::allocator<char> >::empty
	movzx	eax, al
	test	eax, eax
	jne	SHORT $LN1@addComment

; 419  :          commentsBefore_ += "\n";

	push	OFFSET ??_C@_01EEMJAFIK@?6?$AA@
	mov	ecx, DWORD PTR _this$[ebp]
	add	ecx, 84					; 00000054H
	call	??Y?$basic_string@DU?$char_traits@D@std@@V?$allocator@D@2@@std@@QAEAAV01@PBD@Z ; std::basic_string<char,std::char_traits<char>,std::allocator<char> >::operator+=
$LN1@addComment:

; 420  :       commentsBefore_ += std::string( begin, end );

	mov	ecx, DWORD PTR _end$[ebp]
	push	ecx
	mov	edx, DWORD PTR _begin$[ebp]
	push	edx
	lea	ecx, DWORD PTR $T2[ebp]
	call	??0?$basic_string@DU?$char_traits@D@std@@V?$allocator@D@2@@std@@QAE@PBD0@Z ; std::basic_string<char,std::char_traits<char>,std::allocator<char> >::basic_string<char,std::char_traits<char>,std::allocator<char> >
	mov	DWORD PTR tv129[ebp], eax
	mov	eax, DWORD PTR tv129[ebp]
	mov	DWORD PTR tv95[ebp], eax
	mov	DWORD PTR __$EHRec$[ebp+8], 1
	mov	ecx, DWORD PTR tv95[ebp]
	push	ecx
	mov	ecx, DWORD PTR _this$[ebp]
	add	ecx, 84					; 00000054H
	call	??Y?$basic_string@DU?$char_traits@D@std@@V?$allocator@D@2@@std@@QAEAAV01@ABV01@@Z ; std::basic_string<char,std::char_traits<char>,std::allocator<char> >::operator+=
	mov	DWORD PTR __$EHRec$[ebp+8], -1
	lea	ecx, DWORD PTR $T2[ebp]
	call	??1?$basic_string@DU?$char_traits@D@std@@V?$allocator@D@2@@std@@QAE@XZ ; std::basic_string<char,std::char_traits<char>,std::allocator<char> >::~basic_string<char,std::char_traits<char>,std::allocator<char> >
$LN4@addComment:

; 421  :    }
; 422  : }

	mov	ecx, DWORD PTR __$EHRec$[ebp]
	mov	DWORD PTR fs:0, ecx
	pop	ecx
	mov	ecx, DWORD PTR __$ArrayPad$[ebp]
	xor	ecx, ebp
	call	@__security_check_cookie@4
	mov	esp, ebp
	pop	ebp
	ret	12					; 0000000cH
_TEXT	ENDS
;	COMDAT text$x
text$x	SEGMENT
__unwindfunclet$?addComment@Reader@Json@@AAEXPBD0W4CommentPlacement@2@@Z$0:
	lea	ecx, DWORD PTR $T3[ebp]
	jmp	??1?$basic_string@DU?$char_traits@D@std@@V?$allocator@D@2@@std@@QAE@XZ ; std::basic_string<char,std::char_traits<char>,std::allocator<char> >::~basic_string<char,std::char_traits<char>,std::allocator<char> >
__unwindfunclet$?addComment@Reader@Json@@AAEXPBD0W4CommentPlacement@2@@Z$1:
	lea	ecx, DWORD PTR $T2[ebp]
	jmp	??1?$basic_string@DU?$char_traits@D@std@@V?$allocator@D@2@@std@@QAE@XZ ; std::basic_string<char,std::char_traits<char>,std::allocator<char> >::~basic_string<char,std::char_traits<char>,std::allocator<char> >
__ehhandler$?addComment@Reader@Json@@AAEXPBD0W4CommentPlacement@2@@Z:
	mov	edx, DWORD PTR [esp+8]
	lea	eax, DWORD PTR [edx+12]
	mov	ecx, DWORD PTR [edx-76]
	xor	ecx, eax
	call	@__security_check_cookie@4
	mov	ecx, DWORD PTR [edx-4]
	xor	ecx, eax
	call	@__security_check_cookie@4
	mov	eax, OFFSET __ehfuncinfo$?addComment@Reader@Json@@AAEXPBD0W4CommentPlacement@2@@Z
	jmp	___CxxFrameHandler3
text$x	ENDS
?addComment@Reader@Json@@AAEXPBD0W4CommentPlacement@2@@Z ENDP ; Json::Reader::addComment
; Function compile flags: /Odtp
; File h:\source\hg\client\code_core\jsoncpp-src-0.5.0\src\lib_json\json_reader.cpp
;	COMDAT ?getLocationLineAndColumn@Reader@Json@@ABE?AV?$basic_string@DU?$char_traits@D@std@@V?$allocator@D@2@@std@@PBD@Z
_TEXT	SEGMENT
_this$ = -72						; size = 4
_line$ = -68						; size = 4
_column$ = -64						; size = 4
$T1 = -60						; size = 4
_buffer$ = -56						; size = 51
__$ArrayPad$ = -4					; size = 4
___$ReturnUdt$ = 8					; size = 4
_location$ = 12						; size = 4
?getLocationLineAndColumn@Reader@Json@@ABE?AV?$basic_string@DU?$char_traits@D@std@@V?$allocator@D@2@@std@@PBD@Z PROC ; Json::Reader::getLocationLineAndColumn, COMDAT
; _this$ = ecx

; 848  : {

	push	ebp
	mov	ebp, esp
	sub	esp, 72					; 00000048H
	mov	eax, DWORD PTR ___security_cookie
	xor	eax, ebp
	mov	DWORD PTR __$ArrayPad$[ebp], eax
	mov	DWORD PTR _this$[ebp], ecx
	mov	DWORD PTR $T1[ebp], 0

; 849  :    int line, column;
; 850  :    getLocationLineAndColumn( location, line, column );

	lea	eax, DWORD PTR _column$[ebp]
	push	eax
	lea	ecx, DWORD PTR _line$[ebp]
	push	ecx
	mov	edx, DWORD PTR _location$[ebp]
	push	edx
	mov	ecx, DWORD PTR _this$[ebp]
	call	?getLocationLineAndColumn@Reader@Json@@ABEXPBDAAH1@Z ; Json::Reader::getLocationLineAndColumn

; 851  :    char buffer[18+16+16+1];
; 852  :    sprintf( buffer, "Line %d, Column %d", line, column );

	mov	eax, DWORD PTR _column$[ebp]
	push	eax
	mov	ecx, DWORD PTR _line$[ebp]
	push	ecx
	push	OFFSET ??_C@_0BD@LAMGIMLG@Line?5?$CFd?0?5Column?5?$CFd?$AA@
	lea	edx, DWORD PTR _buffer$[ebp]
	push	edx
	call	DWORD PTR __imp__sprintf
	add	esp, 16					; 00000010H

; 853  :    return buffer;

	lea	eax, DWORD PTR _buffer$[ebp]
	push	eax
	mov	ecx, DWORD PTR ___$ReturnUdt$[ebp]
	call	??0?$basic_string@DU?$char_traits@D@std@@V?$allocator@D@2@@std@@QAE@PBD@Z ; std::basic_string<char,std::char_traits<char>,std::allocator<char> >::basic_string<char,std::char_traits<char>,std::allocator<char> >
	mov	ecx, DWORD PTR $T1[ebp]
	or	ecx, 1
	mov	DWORD PTR $T1[ebp], ecx
	mov	eax, DWORD PTR ___$ReturnUdt$[ebp]

; 854  : }

	mov	ecx, DWORD PTR __$ArrayPad$[ebp]
	xor	ecx, ebp
	call	@__security_check_cookie@4
	mov	esp, ebp
	pop	ebp
	ret	8
?getLocationLineAndColumn@Reader@Json@@ABE?AV?$basic_string@DU?$char_traits@D@std@@V?$allocator@D@2@@std@@PBD@Z ENDP ; Json::Reader::getLocationLineAndColumn
_TEXT	ENDS
; Function compile flags: /Odtp
; File h:\source\hg\client\code_core\jsoncpp-src-0.5.0\src\lib_json\json_reader.cpp
;	COMDAT ?getLocationLineAndColumn@Reader@Json@@ABEXPBDAAH1@Z
_TEXT	SEGMENT
_this$ = -16						; size = 4
_lastLineStart$ = -12					; size = 4
_current$ = -8						; size = 4
_c$1 = -1						; size = 1
_location$ = 8						; size = 4
_line$ = 12						; size = 4
_column$ = 16						; size = 4
?getLocationLineAndColumn@Reader@Json@@ABEXPBDAAH1@Z PROC ; Json::Reader::getLocationLineAndColumn, COMDAT
; _this$ = ecx

; 820  : {

	push	ebp
	mov	ebp, esp
	sub	esp, 16					; 00000010H
	mov	DWORD PTR _this$[ebp], ecx

; 821  :    Location current = begin_;

	mov	eax, DWORD PTR _this$[ebp]
	mov	ecx, DWORD PTR [eax+64]
	mov	DWORD PTR _current$[ebp], ecx

; 822  :    Location lastLineStart = current;

	mov	edx, DWORD PTR _current$[ebp]
	mov	DWORD PTR _lastLineStart$[ebp], edx

; 823  :    line = 0;

	mov	eax, DWORD PTR _line$[ebp]
	mov	DWORD PTR [eax], 0
$LN6@getLocatio:

; 824  :    while ( current < location  &&  current != end_ )

	mov	ecx, DWORD PTR _current$[ebp]
	cmp	ecx, DWORD PTR _location$[ebp]
	jae	SHORT $LN5@getLocatio
	mov	edx, DWORD PTR _this$[ebp]
	mov	eax, DWORD PTR _current$[ebp]
	cmp	eax, DWORD PTR [edx+68]
	je	SHORT $LN5@getLocatio

; 825  :    {
; 826  :       Char c = *current++;

	mov	ecx, DWORD PTR _current$[ebp]
	mov	dl, BYTE PTR [ecx]
	mov	BYTE PTR _c$1[ebp], dl
	mov	eax, DWORD PTR _current$[ebp]
	add	eax, 1
	mov	DWORD PTR _current$[ebp], eax

; 827  :       if ( c == '\r' )

	movsx	ecx, BYTE PTR _c$1[ebp]
	cmp	ecx, 13					; 0000000dH
	jne	SHORT $LN4@getLocatio

; 828  :       {
; 829  :          if ( *current == '\n' )

	mov	edx, DWORD PTR _current$[ebp]
	movsx	eax, BYTE PTR [edx]
	cmp	eax, 10					; 0000000aH
	jne	SHORT $LN3@getLocatio

; 830  :             ++current;

	mov	ecx, DWORD PTR _current$[ebp]
	add	ecx, 1
	mov	DWORD PTR _current$[ebp], ecx
$LN3@getLocatio:

; 831  :          lastLineStart = current;

	mov	edx, DWORD PTR _current$[ebp]
	mov	DWORD PTR _lastLineStart$[ebp], edx

; 832  :          ++line;

	mov	eax, DWORD PTR _line$[ebp]
	mov	ecx, DWORD PTR [eax]
	add	ecx, 1
	mov	edx, DWORD PTR _line$[ebp]
	mov	DWORD PTR [edx], ecx
	jmp	SHORT $LN2@getLocatio
$LN4@getLocatio:

; 833  :       }
; 834  :       else if ( c == '\n' )

	movsx	eax, BYTE PTR _c$1[ebp]
	cmp	eax, 10					; 0000000aH
	jne	SHORT $LN2@getLocatio

; 835  :       {
; 836  :          lastLineStart = current;

	mov	ecx, DWORD PTR _current$[ebp]
	mov	DWORD PTR _lastLineStart$[ebp], ecx

; 837  :          ++line;

	mov	edx, DWORD PTR _line$[ebp]
	mov	eax, DWORD PTR [edx]
	add	eax, 1
	mov	ecx, DWORD PTR _line$[ebp]
	mov	DWORD PTR [ecx], eax
$LN2@getLocatio:

; 838  :       }
; 839  :    }

	jmp	SHORT $LN6@getLocatio
$LN5@getLocatio:

; 840  :    // column & line start at 1
; 841  :    column = int(location - lastLineStart) + 1;

	mov	edx, DWORD PTR _location$[ebp]
	sub	edx, DWORD PTR _lastLineStart$[ebp]
	add	edx, 1
	mov	eax, DWORD PTR _column$[ebp]
	mov	DWORD PTR [eax], edx

; 842  :    ++line;

	mov	ecx, DWORD PTR _line$[ebp]
	mov	edx, DWORD PTR [ecx]
	add	edx, 1
	mov	eax, DWORD PTR _line$[ebp]
	mov	DWORD PTR [eax], edx

; 843  : }

	mov	esp, ebp
	pop	ebp
	ret	12					; 0000000cH
?getLocationLineAndColumn@Reader@Json@@ABEXPBDAAH1@Z ENDP ; Json::Reader::getLocationLineAndColumn
_TEXT	ENDS
; Function compile flags: /Odtp
; File h:\source\hg\client\code_core\jsoncpp-src-0.5.0\src\lib_json\json_reader.cpp
;	COMDAT ?getNextChar@Reader@Json@@AAEDXZ
_TEXT	SEGMENT
_this$ = -8						; size = 4
tv72 = -1						; size = 1
?getNextChar@Reader@Json@@AAEDXZ PROC			; Json::Reader::getNextChar, COMDAT
; _this$ = ecx

; 809  : {

	push	ebp
	mov	ebp, esp
	sub	esp, 8
	mov	DWORD PTR _this$[ebp], ecx

; 810  :    if ( current_ == end_ )

	mov	eax, DWORD PTR _this$[ebp]
	mov	ecx, DWORD PTR _this$[ebp]
	mov	edx, DWORD PTR [eax+72]
	cmp	edx, DWORD PTR [ecx+68]
	jne	SHORT $LN1@getNextCha

; 811  :       return 0;

	xor	al, al
	jmp	SHORT $LN2@getNextCha
$LN1@getNextCha:

; 812  :    return *current_++;

	mov	eax, DWORD PTR _this$[ebp]
	mov	ecx, DWORD PTR [eax+72]
	mov	dl, BYTE PTR [ecx]
	mov	BYTE PTR tv72[ebp], dl
	mov	eax, DWORD PTR _this$[ebp]
	mov	ecx, DWORD PTR [eax+72]
	add	ecx, 1
	mov	edx, DWORD PTR _this$[ebp]
	mov	DWORD PTR [edx+72], ecx
	mov	al, BYTE PTR tv72[ebp]
$LN2@getNextCha:

; 813  : }

	mov	esp, ebp
	pop	ebp
	ret	0
?getNextChar@Reader@Json@@AAEDXZ ENDP			; Json::Reader::getNextChar
_TEXT	ENDS
; Function compile flags: /Odtp
; File h:\source\hg\client\code_core\jsoncpp-src-0.5.0\src\lib_json\json_reader.cpp
;	COMDAT ?currentValue@Reader@Json@@AAEAAVValue@2@XZ
_TEXT	SEGMENT
_this$ = -4						; size = 4
?currentValue@Reader@Json@@AAEAAVValue@2@XZ PROC	; Json::Reader::currentValue, COMDAT
; _this$ = ecx

; 802  : {

	push	ebp
	mov	ebp, esp
	push	ecx
	mov	DWORD PTR _this$[ebp], ecx

; 803  :    return *(nodes_.top());

	mov	ecx, DWORD PTR _this$[ebp]
	call	?top@?$stack@PAVValue@Json@@V?$deque@PAVValue@Json@@V?$allocator@PAVValue@Json@@@std@@@std@@@std@@QAEAAPAVValue@Json@@XZ ; std::stack<Json::Value *,std::deque<Json::Value *,std::allocator<Json::Value *> > >::top
	mov	eax, DWORD PTR [eax]

; 804  : }

	mov	esp, ebp
	pop	ebp
	ret	0
?currentValue@Reader@Json@@AAEAAVValue@2@XZ ENDP	; Json::Reader::currentValue
_TEXT	ENDS
; Function compile flags: /Odtp
; File h:\source\hg\client\code_core\jsoncpp-src-0.5.0\src\lib_json\json_reader.cpp
;	COMDAT ?addErrorAndRecover@Reader@Json@@AAE_NABV?$basic_string@DU?$char_traits@D@std@@V?$allocator@D@2@@std@@AAVToken@12@W4TokenType@12@@Z
_TEXT	SEGMENT
_this$ = -4						; size = 4
_message$ = 8						; size = 4
_token$ = 12						; size = 4
_skipUntilToken$ = 16					; size = 4
?addErrorAndRecover@Reader@Json@@AAE_NABV?$basic_string@DU?$char_traits@D@std@@V?$allocator@D@2@@std@@AAVToken@12@W4TokenType@12@@Z PROC ; Json::Reader::addErrorAndRecover, COMDAT
; _this$ = ecx

; 794  : {

	push	ebp
	mov	ebp, esp
	push	ecx
	mov	DWORD PTR _this$[ebp], ecx

; 795  :    addError( message, token );

	push	0
	mov	eax, DWORD PTR _token$[ebp]
	push	eax
	mov	ecx, DWORD PTR _message$[ebp]
	push	ecx
	mov	ecx, DWORD PTR _this$[ebp]
	call	?addError@Reader@Json@@AAE_NABV?$basic_string@DU?$char_traits@D@std@@V?$allocator@D@2@@std@@AAVToken@12@PBD@Z ; Json::Reader::addError

; 796  :    return recoverFromError( skipUntilToken );

	mov	edx, DWORD PTR _skipUntilToken$[ebp]
	push	edx
	mov	ecx, DWORD PTR _this$[ebp]
	call	?recoverFromError@Reader@Json@@AAE_NW4TokenType@12@@Z ; Json::Reader::recoverFromError

; 797  : }

	mov	esp, ebp
	pop	ebp
	ret	12					; 0000000cH
?addErrorAndRecover@Reader@Json@@AAE_NABV?$basic_string@DU?$char_traits@D@std@@V?$allocator@D@2@@std@@AAVToken@12@W4TokenType@12@@Z ENDP ; Json::Reader::addErrorAndRecover
_TEXT	ENDS
; Function compile flags: /Odtp
; File h:\source\hg\client\code_core\jsoncpp-src-0.5.0\src\lib_json\json_reader.cpp
;	COMDAT ?recoverFromError@Reader@Json@@AAE_NW4TokenType@12@@Z
_TEXT	SEGMENT
_skip$ = -20						; size = 12
_errorCount$ = -8					; size = 4
_this$ = -4						; size = 4
_skipUntilToken$ = 8					; size = 4
?recoverFromError@Reader@Json@@AAE_NW4TokenType@12@@Z PROC ; Json::Reader::recoverFromError, COMDAT
; _this$ = ecx

; 775  : {

	push	ebp
	mov	ebp, esp
	sub	esp, 20					; 00000014H
	mov	DWORD PTR _this$[ebp], ecx

; 776  :    int errorCount = int(errors_.size());

	mov	ecx, DWORD PTR _this$[ebp]
	add	ecx, 20					; 00000014H
	call	?size@?$deque@VErrorInfo@Reader@Json@@V?$allocator@VErrorInfo@Reader@Json@@@std@@@std@@QBEIXZ ; std::deque<Json::Reader::ErrorInfo,std::allocator<Json::Reader::ErrorInfo> >::size
	mov	DWORD PTR _errorCount$[ebp], eax
$LN5@recoverFro:

; 777  :    Token skip;
; 778  :    while ( true )

	mov	eax, 1
	test	eax, eax
	je	SHORT $LN4@recoverFro

; 779  :    {
; 780  :       if ( !readToken(skip) )

	lea	ecx, DWORD PTR _skip$[ebp]
	push	ecx
	mov	ecx, DWORD PTR _this$[ebp]
	call	?readToken@Reader@Json@@AAE_NAAVToken@12@@Z ; Json::Reader::readToken
	movzx	edx, al
	test	edx, edx
	jne	SHORT $LN3@recoverFro

; 781  :          errors_.resize( errorCount ); // discard errors caused by recovery

	mov	eax, DWORD PTR _errorCount$[ebp]
	push	eax
	mov	ecx, DWORD PTR _this$[ebp]
	add	ecx, 20					; 00000014H
	call	?resize@?$deque@VErrorInfo@Reader@Json@@V?$allocator@VErrorInfo@Reader@Json@@@std@@@std@@QAEXI@Z ; std::deque<Json::Reader::ErrorInfo,std::allocator<Json::Reader::ErrorInfo> >::resize
$LN3@recoverFro:

; 782  :       if ( skip.type_ == skipUntilToken  ||  skip.type_ == tokenEndOfStream )

	mov	ecx, DWORD PTR _skip$[ebp]
	cmp	ecx, DWORD PTR _skipUntilToken$[ebp]
	je	SHORT $LN1@recoverFro
	cmp	DWORD PTR _skip$[ebp], 0
	jne	SHORT $LN2@recoverFro
$LN1@recoverFro:

; 783  :          break;

	jmp	SHORT $LN4@recoverFro
$LN2@recoverFro:

; 784  :    }

	jmp	SHORT $LN5@recoverFro
$LN4@recoverFro:

; 785  :    errors_.resize( errorCount );

	mov	edx, DWORD PTR _errorCount$[ebp]
	push	edx
	mov	ecx, DWORD PTR _this$[ebp]
	add	ecx, 20					; 00000014H
	call	?resize@?$deque@VErrorInfo@Reader@Json@@V?$allocator@VErrorInfo@Reader@Json@@@std@@@std@@QAEXI@Z ; std::deque<Json::Reader::ErrorInfo,std::allocator<Json::Reader::ErrorInfo> >::resize

; 786  :    return false;

	xor	al, al

; 787  : }

	mov	esp, ebp
	pop	ebp
	ret	4
?recoverFromError@Reader@Json@@AAE_NW4TokenType@12@@Z ENDP ; Json::Reader::recoverFromError
_TEXT	ENDS
; Function compile flags: /Odtp
; File h:\source\hg\client\code_core\jsoncpp-src-0.5.0\src\lib_json\json_reader.cpp
;	COMDAT ?addError@Reader@Json@@AAE_NABV?$basic_string@DU?$char_traits@D@std@@V?$allocator@D@2@@std@@AAVToken@12@PBD@Z
_TEXT	SEGMENT
_this$ = -64						; size = 4
$T2 = -57						; size = 1
_info$ = -56						; size = 40
__$ArrayPad$ = -16					; size = 4
__$EHRec$ = -12						; size = 12
_message$ = 8						; size = 4
_token$ = 12						; size = 4
_extra$ = 16						; size = 4
?addError@Reader@Json@@AAE_NABV?$basic_string@DU?$char_traits@D@std@@V?$allocator@D@2@@std@@AAVToken@12@PBD@Z PROC ; Json::Reader::addError, COMDAT
; _this$ = ecx

; 763  : {

	push	ebp
	mov	ebp, esp
	push	-1
	push	__ehhandler$?addError@Reader@Json@@AAE_NABV?$basic_string@DU?$char_traits@D@std@@V?$allocator@D@2@@std@@AAVToken@12@PBD@Z
	mov	eax, DWORD PTR fs:0
	push	eax
	sub	esp, 52					; 00000034H
	mov	eax, DWORD PTR ___security_cookie
	xor	eax, ebp
	mov	DWORD PTR __$ArrayPad$[ebp], eax
	push	eax
	lea	eax, DWORD PTR __$EHRec$[ebp]
	mov	DWORD PTR fs:0, eax
	mov	DWORD PTR _this$[ebp], ecx

; 764  :    ErrorInfo info;

	lea	ecx, DWORD PTR _info$[ebp]
	call	??0ErrorInfo@Reader@Json@@QAE@XZ
	mov	DWORD PTR __$EHRec$[ebp+8], 0

; 765  :    info.token_ = token;

	mov	eax, DWORD PTR _token$[ebp]
	mov	ecx, DWORD PTR [eax]
	mov	DWORD PTR _info$[ebp], ecx
	mov	edx, DWORD PTR [eax+4]
	mov	DWORD PTR _info$[ebp+4], edx
	mov	eax, DWORD PTR [eax+8]
	mov	DWORD PTR _info$[ebp+8], eax

; 766  :    info.message_ = message;

	mov	ecx, DWORD PTR _message$[ebp]
	push	ecx
	lea	ecx, DWORD PTR _info$[ebp+12]
	call	??4?$basic_string@DU?$char_traits@D@std@@V?$allocator@D@2@@std@@QAEAAV01@ABV01@@Z ; std::basic_string<char,std::char_traits<char>,std::allocator<char> >::operator=

; 767  :    info.extra_ = extra;

	mov	edx, DWORD PTR _extra$[ebp]
	mov	DWORD PTR _info$[ebp+36], edx

; 768  :    errors_.push_back( info );

	lea	eax, DWORD PTR _info$[ebp]
	push	eax
	mov	ecx, DWORD PTR _this$[ebp]
	add	ecx, 20					; 00000014H
	call	?push_back@?$deque@VErrorInfo@Reader@Json@@V?$allocator@VErrorInfo@Reader@Json@@@std@@@std@@QAEXABVErrorInfo@Reader@Json@@@Z ; std::deque<Json::Reader::ErrorInfo,std::allocator<Json::Reader::ErrorInfo> >::push_back

; 769  :    return false;

	mov	BYTE PTR $T2[ebp], 0
	mov	DWORD PTR __$EHRec$[ebp+8], -1
	lea	ecx, DWORD PTR _info$[ebp]
	call	??1ErrorInfo@Reader@Json@@QAE@XZ
	mov	al, BYTE PTR $T2[ebp]

; 770  : }

	mov	ecx, DWORD PTR __$EHRec$[ebp]
	mov	DWORD PTR fs:0, ecx
	pop	ecx
	mov	ecx, DWORD PTR __$ArrayPad$[ebp]
	xor	ecx, ebp
	call	@__security_check_cookie@4
	mov	esp, ebp
	pop	ebp
	ret	12					; 0000000cH
_TEXT	ENDS
;	COMDAT text$x
text$x	SEGMENT
__unwindfunclet$?addError@Reader@Json@@AAE_NABV?$basic_string@DU?$char_traits@D@std@@V?$allocator@D@2@@std@@AAVToken@12@PBD@Z$0:
	lea	ecx, DWORD PTR _info$[ebp]
	jmp	??1ErrorInfo@Reader@Json@@QAE@XZ
__ehhandler$?addError@Reader@Json@@AAE_NABV?$basic_string@DU?$char_traits@D@std@@V?$allocator@D@2@@std@@AAVToken@12@PBD@Z:
	mov	edx, DWORD PTR [esp+8]
	lea	eax, DWORD PTR [edx+12]
	mov	ecx, DWORD PTR [edx-56]
	xor	ecx, eax
	call	@__security_check_cookie@4
	mov	ecx, DWORD PTR [edx-4]
	xor	ecx, eax
	call	@__security_check_cookie@4
	mov	eax, OFFSET __ehfuncinfo$?addError@Reader@Json@@AAE_NABV?$basic_string@DU?$char_traits@D@std@@V?$allocator@D@2@@std@@AAVToken@12@PBD@Z
	jmp	___CxxFrameHandler3
text$x	ENDS
?addError@Reader@Json@@AAE_NABV?$basic_string@DU?$char_traits@D@std@@V?$allocator@D@2@@std@@AAVToken@12@PBD@Z ENDP ; Json::Reader::addError
; Function compile flags: /Odtp
; File h:\source\hg\client\code_core\jsoncpp-src-0.5.0\src\lib_json\json_reader.cpp
;	COMDAT ?decodeUnicodeEscapeSequence@Reader@Json@@AAE_NAAVToken@12@AAPBDPBDAAI@Z
_TEXT	SEGMENT
_this$ = -76						; size = 4
_index$2 = -72						; size = 4
$T3 = -67						; size = 1
$T4 = -66						; size = 1
_c$5 = -65						; size = 1
$T6 = -64						; size = 24
$T7 = -40						; size = 24
__$ArrayPad$ = -16					; size = 4
__$EHRec$ = -12						; size = 12
_token$ = 8						; size = 4
_current$ = 12						; size = 4
_end$ = 16						; size = 4
_unicode$ = 20						; size = 4
?decodeUnicodeEscapeSequence@Reader@Json@@AAE_NAAVToken@12@AAPBDPBDAAI@Z PROC ; Json::Reader::decodeUnicodeEscapeSequence, COMDAT
; _this$ = ecx

; 738  : {

	push	ebp
	mov	ebp, esp
	push	-1
	push	__ehhandler$?decodeUnicodeEscapeSequence@Reader@Json@@AAE_NAAVToken@12@AAPBDPBDAAI@Z
	mov	eax, DWORD PTR fs:0
	push	eax
	sub	esp, 64					; 00000040H
	mov	eax, DWORD PTR ___security_cookie
	xor	eax, ebp
	mov	DWORD PTR __$ArrayPad$[ebp], eax
	push	eax
	lea	eax, DWORD PTR __$EHRec$[ebp]
	mov	DWORD PTR fs:0, eax
	mov	DWORD PTR _this$[ebp], ecx

; 739  :    if ( end - current < 4 )

	mov	eax, DWORD PTR _current$[ebp]
	mov	ecx, DWORD PTR _end$[ebp]
	sub	ecx, DWORD PTR [eax]
	cmp	ecx, 4
	jge	SHORT $LN10@decodeUnic

; 740  :       return addError( "Bad unicode escape sequence in string: four digits expected.", token, current );

	push	OFFSET ??_C@_0DN@BPAHJPFJ@Bad?5unicode?5escape?5sequence?5in?5s@
	lea	ecx, DWORD PTR $T6[ebp]
	call	??0?$basic_string@DU?$char_traits@D@std@@V?$allocator@D@2@@std@@QAE@PBD@Z ; std::basic_string<char,std::char_traits<char>,std::allocator<char> >::basic_string<char,std::char_traits<char>,std::allocator<char> >
	mov	DWORD PTR __$EHRec$[ebp+8], 0
	mov	edx, DWORD PTR _current$[ebp]
	mov	eax, DWORD PTR [edx]
	push	eax
	mov	ecx, DWORD PTR _token$[ebp]
	push	ecx
	lea	edx, DWORD PTR $T6[ebp]
	push	edx
	mov	ecx, DWORD PTR _this$[ebp]
	call	?addError@Reader@Json@@AAE_NABV?$basic_string@DU?$char_traits@D@std@@V?$allocator@D@2@@std@@AAVToken@12@PBD@Z ; Json::Reader::addError
	mov	BYTE PTR $T3[ebp], al
	mov	DWORD PTR __$EHRec$[ebp+8], -1
	lea	ecx, DWORD PTR $T6[ebp]
	call	??1?$basic_string@DU?$char_traits@D@std@@V?$allocator@D@2@@std@@QAE@XZ ; std::basic_string<char,std::char_traits<char>,std::allocator<char> >::~basic_string<char,std::char_traits<char>,std::allocator<char> >
	mov	al, BYTE PTR $T3[ebp]
	jmp	$LN11@decodeUnic
$LN10@decodeUnic:

; 741  :    unicode = 0;

	mov	eax, DWORD PTR _unicode$[ebp]
	mov	DWORD PTR [eax], 0

; 742  :    for ( int index =0; index < 4; ++index )

	mov	DWORD PTR _index$2[ebp], 0
	jmp	SHORT $LN9@decodeUnic
$LN8@decodeUnic:
	mov	ecx, DWORD PTR _index$2[ebp]
	add	ecx, 1
	mov	DWORD PTR _index$2[ebp], ecx
$LN9@decodeUnic:
	cmp	DWORD PTR _index$2[ebp], 4
	jge	$LN7@decodeUnic

; 743  :    {
; 744  :       Char c = *current++;

	mov	edx, DWORD PTR _current$[ebp]
	mov	eax, DWORD PTR [edx]
	mov	cl, BYTE PTR [eax]
	mov	BYTE PTR _c$5[ebp], cl
	mov	edx, DWORD PTR _current$[ebp]
	mov	eax, DWORD PTR [edx]
	add	eax, 1
	mov	ecx, DWORD PTR _current$[ebp]
	mov	DWORD PTR [ecx], eax

; 745  :       unicode *= 16;

	mov	edx, DWORD PTR _unicode$[ebp]
	mov	eax, DWORD PTR [edx]
	shl	eax, 4
	mov	ecx, DWORD PTR _unicode$[ebp]
	mov	DWORD PTR [ecx], eax

; 746  :       if ( c >= '0'  &&  c <= '9' )

	movsx	edx, BYTE PTR _c$5[ebp]
	cmp	edx, 48					; 00000030H
	jl	SHORT $LN6@decodeUnic
	movsx	eax, BYTE PTR _c$5[ebp]
	cmp	eax, 57					; 00000039H
	jg	SHORT $LN6@decodeUnic

; 747  :          unicode += c - '0';

	movsx	ecx, BYTE PTR _c$5[ebp]
	mov	edx, DWORD PTR _unicode$[ebp]
	mov	eax, DWORD PTR [edx]
	lea	ecx, DWORD PTR [ecx+eax-48]
	mov	edx, DWORD PTR _unicode$[ebp]
	mov	DWORD PTR [edx], ecx
	jmp	$LN5@decodeUnic
$LN6@decodeUnic:

; 748  :       else if ( c >= 'a'  &&  c <= 'f' )

	movsx	eax, BYTE PTR _c$5[ebp]
	cmp	eax, 97					; 00000061H
	jl	SHORT $LN4@decodeUnic
	movsx	ecx, BYTE PTR _c$5[ebp]
	cmp	ecx, 102				; 00000066H
	jg	SHORT $LN4@decodeUnic

; 749  :          unicode += c - 'a' + 10;

	movsx	edx, BYTE PTR _c$5[ebp]
	mov	eax, DWORD PTR _unicode$[ebp]
	mov	ecx, DWORD PTR [eax]
	lea	edx, DWORD PTR [edx+ecx-87]
	mov	eax, DWORD PTR _unicode$[ebp]
	mov	DWORD PTR [eax], edx
	jmp	SHORT $LN5@decodeUnic
$LN4@decodeUnic:

; 750  :       else if ( c >= 'A'  &&  c <= 'F' )

	movsx	ecx, BYTE PTR _c$5[ebp]
	cmp	ecx, 65					; 00000041H
	jl	SHORT $LN2@decodeUnic
	movsx	edx, BYTE PTR _c$5[ebp]
	cmp	edx, 70					; 00000046H
	jg	SHORT $LN2@decodeUnic

; 751  :          unicode += c - 'A' + 10;

	movsx	eax, BYTE PTR _c$5[ebp]
	mov	ecx, DWORD PTR _unicode$[ebp]
	mov	edx, DWORD PTR [ecx]
	lea	eax, DWORD PTR [eax+edx-55]
	mov	ecx, DWORD PTR _unicode$[ebp]
	mov	DWORD PTR [ecx], eax

; 752  :       else

	jmp	SHORT $LN5@decodeUnic
$LN2@decodeUnic:

; 753  :          return addError( "Bad unicode escape sequence in string: hexadecimal digit expected.", token, current );

	push	OFFSET ??_C@_0ED@FIDDECIG@Bad?5unicode?5escape?5sequence?5in?5s@
	lea	ecx, DWORD PTR $T7[ebp]
	call	??0?$basic_string@DU?$char_traits@D@std@@V?$allocator@D@2@@std@@QAE@PBD@Z ; std::basic_string<char,std::char_traits<char>,std::allocator<char> >::basic_string<char,std::char_traits<char>,std::allocator<char> >
	mov	DWORD PTR __$EHRec$[ebp+8], 1
	mov	edx, DWORD PTR _current$[ebp]
	mov	eax, DWORD PTR [edx]
	push	eax
	mov	ecx, DWORD PTR _token$[ebp]
	push	ecx
	lea	edx, DWORD PTR $T7[ebp]
	push	edx
	mov	ecx, DWORD PTR _this$[ebp]
	call	?addError@Reader@Json@@AAE_NABV?$basic_string@DU?$char_traits@D@std@@V?$allocator@D@2@@std@@AAVToken@12@PBD@Z ; Json::Reader::addError
	mov	BYTE PTR $T4[ebp], al
	mov	DWORD PTR __$EHRec$[ebp+8], -1
	lea	ecx, DWORD PTR $T7[ebp]
	call	??1?$basic_string@DU?$char_traits@D@std@@V?$allocator@D@2@@std@@QAE@XZ ; std::basic_string<char,std::char_traits<char>,std::allocator<char> >::~basic_string<char,std::char_traits<char>,std::allocator<char> >
	mov	al, BYTE PTR $T4[ebp]
	jmp	SHORT $LN11@decodeUnic
$LN5@decodeUnic:

; 754  :    }

	jmp	$LN8@decodeUnic
$LN7@decodeUnic:

; 755  :    return true;

	mov	al, 1
$LN11@decodeUnic:

; 756  : }

	mov	ecx, DWORD PTR __$EHRec$[ebp]
	mov	DWORD PTR fs:0, ecx
	pop	ecx
	mov	ecx, DWORD PTR __$ArrayPad$[ebp]
	xor	ecx, ebp
	call	@__security_check_cookie@4
	mov	esp, ebp
	pop	ebp
	ret	16					; 00000010H
_TEXT	ENDS
;	COMDAT text$x
text$x	SEGMENT
__unwindfunclet$?decodeUnicodeEscapeSequence@Reader@Json@@AAE_NAAVToken@12@AAPBDPBDAAI@Z$0:
	lea	ecx, DWORD PTR $T6[ebp]
	jmp	??1?$basic_string@DU?$char_traits@D@std@@V?$allocator@D@2@@std@@QAE@XZ ; std::basic_string<char,std::char_traits<char>,std::allocator<char> >::~basic_string<char,std::char_traits<char>,std::allocator<char> >
__unwindfunclet$?decodeUnicodeEscapeSequence@Reader@Json@@AAE_NAAVToken@12@AAPBDPBDAAI@Z$1:
	lea	ecx, DWORD PTR $T7[ebp]
	jmp	??1?$basic_string@DU?$char_traits@D@std@@V?$allocator@D@2@@std@@QAE@XZ ; std::basic_string<char,std::char_traits<char>,std::allocator<char> >::~basic_string<char,std::char_traits<char>,std::allocator<char> >
__ehhandler$?decodeUnicodeEscapeSequence@Reader@Json@@AAE_NAAVToken@12@AAPBDPBDAAI@Z:
	mov	edx, DWORD PTR [esp+8]
	lea	eax, DWORD PTR [edx+12]
	mov	ecx, DWORD PTR [edx-68]
	xor	ecx, eax
	call	@__security_check_cookie@4
	mov	ecx, DWORD PTR [edx-4]
	xor	ecx, eax
	call	@__security_check_cookie@4
	mov	eax, OFFSET __ehfuncinfo$?decodeUnicodeEscapeSequence@Reader@Json@@AAE_NAAVToken@12@AAPBDPBDAAI@Z
	jmp	___CxxFrameHandler3
text$x	ENDS
?decodeUnicodeEscapeSequence@Reader@Json@@AAE_NAAVToken@12@AAPBDPBDAAI@Z ENDP ; Json::Reader::decodeUnicodeEscapeSequence
; Function compile flags: /Odtp
; File h:\source\hg\client\code_core\jsoncpp-src-0.5.0\src\lib_json\json_reader.cpp
;	COMDAT ?decodeUnicodeCodePoint@Reader@Json@@AAE_NAAVToken@12@AAPBDPBDAAI@Z
_TEXT	SEGMENT
_surrogatePair$2 = -84					; size = 4
tv94 = -80						; size = 4
tv89 = -76						; size = 4
_this$ = -72						; size = 4
$T3 = -66						; size = 1
$T4 = -65						; size = 1
$T5 = -64						; size = 24
$T6 = -40						; size = 24
__$ArrayPad$ = -16					; size = 4
__$EHRec$ = -12						; size = 12
_token$ = 8						; size = 4
_current$ = 12						; size = 4
_end$ = 16						; size = 4
_unicode$ = 20						; size = 4
?decodeUnicodeCodePoint@Reader@Json@@AAE_NAAVToken@12@AAPBDPBDAAI@Z PROC ; Json::Reader::decodeUnicodeCodePoint, COMDAT
; _this$ = ecx

; 708  : {

	push	ebp
	mov	ebp, esp
	push	-1
	push	__ehhandler$?decodeUnicodeCodePoint@Reader@Json@@AAE_NAAVToken@12@AAPBDPBDAAI@Z
	mov	eax, DWORD PTR fs:0
	push	eax
	sub	esp, 72					; 00000048H
	mov	eax, DWORD PTR ___security_cookie
	xor	eax, ebp
	mov	DWORD PTR __$ArrayPad$[ebp], eax
	push	eax
	lea	eax, DWORD PTR __$EHRec$[ebp]
	mov	DWORD PTR fs:0, eax
	mov	DWORD PTR _this$[ebp], ecx

; 709  : 
; 710  :    if ( !decodeUnicodeEscapeSequence( token, current, end, unicode ) )

	mov	eax, DWORD PTR _unicode$[ebp]
	push	eax
	mov	ecx, DWORD PTR _end$[ebp]
	push	ecx
	mov	edx, DWORD PTR _current$[ebp]
	push	edx
	mov	eax, DWORD PTR _token$[ebp]
	push	eax
	mov	ecx, DWORD PTR _this$[ebp]
	call	?decodeUnicodeEscapeSequence@Reader@Json@@AAE_NAAVToken@12@AAPBDPBDAAI@Z ; Json::Reader::decodeUnicodeEscapeSequence
	movzx	ecx, al
	test	ecx, ecx
	jne	SHORT $LN7@decodeUnic

; 711  :       return false;

	xor	al, al
	jmp	$LN8@decodeUnic
$LN7@decodeUnic:

; 712  :    if (unicode >= 0xD800 && unicode <= 0xDBFF)

	mov	edx, DWORD PTR _unicode$[ebp]
	cmp	DWORD PTR [edx], 55296			; 0000d800H
	jb	$LN6@decodeUnic
	mov	eax, DWORD PTR _unicode$[ebp]
	cmp	DWORD PTR [eax], 56319			; 0000dbffH
	ja	$LN6@decodeUnic

; 713  :    {
; 714  :       // surrogate pairs
; 715  :       if (end - current < 6)

	mov	ecx, DWORD PTR _current$[ebp]
	mov	edx, DWORD PTR _end$[ebp]
	sub	edx, DWORD PTR [ecx]
	cmp	edx, 6
	jge	SHORT $LN5@decodeUnic

; 716  :          return addError( "additional six characters expected to parse unicode surrogate pair.", token, current );

	push	OFFSET ??_C@_0EE@LMPEHADE@additional?5six?5characters?5expect@
	lea	ecx, DWORD PTR $T5[ebp]
	call	??0?$basic_string@DU?$char_traits@D@std@@V?$allocator@D@2@@std@@QAE@PBD@Z ; std::basic_string<char,std::char_traits<char>,std::allocator<char> >::basic_string<char,std::char_traits<char>,std::allocator<char> >
	mov	DWORD PTR __$EHRec$[ebp+8], 0
	mov	eax, DWORD PTR _current$[ebp]
	mov	ecx, DWORD PTR [eax]
	push	ecx
	mov	edx, DWORD PTR _token$[ebp]
	push	edx
	lea	eax, DWORD PTR $T5[ebp]
	push	eax
	mov	ecx, DWORD PTR _this$[ebp]
	call	?addError@Reader@Json@@AAE_NABV?$basic_string@DU?$char_traits@D@std@@V?$allocator@D@2@@std@@AAVToken@12@PBD@Z ; Json::Reader::addError
	mov	BYTE PTR $T3[ebp], al
	mov	DWORD PTR __$EHRec$[ebp+8], -1
	lea	ecx, DWORD PTR $T5[ebp]
	call	??1?$basic_string@DU?$char_traits@D@std@@V?$allocator@D@2@@std@@QAE@XZ ; std::basic_string<char,std::char_traits<char>,std::allocator<char> >::~basic_string<char,std::char_traits<char>,std::allocator<char> >
	mov	al, BYTE PTR $T3[ebp]
	jmp	$LN8@decodeUnic
$LN5@decodeUnic:

; 717  :       unsigned int surrogatePair;
; 718  :       if (*(current++) == '\\' && *(current++)== 'u')

	mov	ecx, DWORD PTR _current$[ebp]
	mov	edx, DWORD PTR [ecx]
	movsx	eax, BYTE PTR [edx]
	mov	DWORD PTR tv89[ebp], eax
	mov	ecx, DWORD PTR _current$[ebp]
	mov	edx, DWORD PTR [ecx]
	add	edx, 1
	mov	eax, DWORD PTR _current$[ebp]
	mov	DWORD PTR [eax], edx
	cmp	DWORD PTR tv89[ebp], 92			; 0000005cH
	jne	SHORT $LN4@decodeUnic
	mov	ecx, DWORD PTR _current$[ebp]
	mov	edx, DWORD PTR [ecx]
	movsx	eax, BYTE PTR [edx]
	mov	DWORD PTR tv94[ebp], eax
	mov	ecx, DWORD PTR _current$[ebp]
	mov	edx, DWORD PTR [ecx]
	add	edx, 1
	mov	eax, DWORD PTR _current$[ebp]
	mov	DWORD PTR [eax], edx
	cmp	DWORD PTR tv94[ebp], 117		; 00000075H
	jne	SHORT $LN4@decodeUnic

; 719  :       {
; 720  :          if (decodeUnicodeEscapeSequence( token, current, end, surrogatePair ))

	lea	ecx, DWORD PTR _surrogatePair$2[ebp]
	push	ecx
	mov	edx, DWORD PTR _end$[ebp]
	push	edx
	mov	eax, DWORD PTR _current$[ebp]
	push	eax
	mov	ecx, DWORD PTR _token$[ebp]
	push	ecx
	mov	ecx, DWORD PTR _this$[ebp]
	call	?decodeUnicodeEscapeSequence@Reader@Json@@AAE_NAAVToken@12@AAPBDPBDAAI@Z ; Json::Reader::decodeUnicodeEscapeSequence
	movzx	edx, al
	test	edx, edx
	je	SHORT $LN3@decodeUnic

; 721  :          {
; 722  :             unicode = 0x10000 + ((unicode & 0x3FF) << 10) + (surrogatePair & 0x3FF);

	mov	eax, DWORD PTR _unicode$[ebp]
	mov	ecx, DWORD PTR [eax]
	and	ecx, 1023				; 000003ffH
	shl	ecx, 10					; 0000000aH
	mov	edx, DWORD PTR _surrogatePair$2[ebp]
	and	edx, 1023				; 000003ffH
	lea	eax, DWORD PTR [ecx+edx+65536]
	mov	ecx, DWORD PTR _unicode$[ebp]
	mov	DWORD PTR [ecx], eax

; 723  :          } 
; 724  :          else

	jmp	SHORT $LN2@decodeUnic
$LN3@decodeUnic:

; 725  :             return false;

	xor	al, al
	jmp	SHORT $LN8@decodeUnic
$LN2@decodeUnic:

; 726  :       } 
; 727  :       else

	jmp	SHORT $LN6@decodeUnic
$LN4@decodeUnic:

; 728  :          return addError( "expecting another \\u token to begin the second half of a unicode surrogate pair", token, current );

	push	OFFSET ??_C@_0FA@BGMMPLKB@expecting?5another?5?2u?5token?5to?5be@
	lea	ecx, DWORD PTR $T6[ebp]
	call	??0?$basic_string@DU?$char_traits@D@std@@V?$allocator@D@2@@std@@QAE@PBD@Z ; std::basic_string<char,std::char_traits<char>,std::allocator<char> >::basic_string<char,std::char_traits<char>,std::allocator<char> >
	mov	DWORD PTR __$EHRec$[ebp+8], 1
	mov	edx, DWORD PTR _current$[ebp]
	mov	eax, DWORD PTR [edx]
	push	eax
	mov	ecx, DWORD PTR _token$[ebp]
	push	ecx
	lea	edx, DWORD PTR $T6[ebp]
	push	edx
	mov	ecx, DWORD PTR _this$[ebp]
	call	?addError@Reader@Json@@AAE_NABV?$basic_string@DU?$char_traits@D@std@@V?$allocator@D@2@@std@@AAVToken@12@PBD@Z ; Json::Reader::addError
	mov	BYTE PTR $T4[ebp], al
	mov	DWORD PTR __$EHRec$[ebp+8], -1
	lea	ecx, DWORD PTR $T6[ebp]
	call	??1?$basic_string@DU?$char_traits@D@std@@V?$allocator@D@2@@std@@QAE@XZ ; std::basic_string<char,std::char_traits<char>,std::allocator<char> >::~basic_string<char,std::char_traits<char>,std::allocator<char> >
	mov	al, BYTE PTR $T4[ebp]
	jmp	SHORT $LN8@decodeUnic
$LN6@decodeUnic:

; 729  :    }
; 730  :    return true;

	mov	al, 1
$LN8@decodeUnic:

; 731  : }

	mov	ecx, DWORD PTR __$EHRec$[ebp]
	mov	DWORD PTR fs:0, ecx
	pop	ecx
	mov	ecx, DWORD PTR __$ArrayPad$[ebp]
	xor	ecx, ebp
	call	@__security_check_cookie@4
	mov	esp, ebp
	pop	ebp
	ret	16					; 00000010H
_TEXT	ENDS
;	COMDAT text$x
text$x	SEGMENT
__unwindfunclet$?decodeUnicodeCodePoint@Reader@Json@@AAE_NAAVToken@12@AAPBDPBDAAI@Z$0:
	lea	ecx, DWORD PTR $T5[ebp]
	jmp	??1?$basic_string@DU?$char_traits@D@std@@V?$allocator@D@2@@std@@QAE@XZ ; std::basic_string<char,std::char_traits<char>,std::allocator<char> >::~basic_string<char,std::char_traits<char>,std::allocator<char> >
__unwindfunclet$?decodeUnicodeCodePoint@Reader@Json@@AAE_NAAVToken@12@AAPBDPBDAAI@Z$1:
	lea	ecx, DWORD PTR $T6[ebp]
	jmp	??1?$basic_string@DU?$char_traits@D@std@@V?$allocator@D@2@@std@@QAE@XZ ; std::basic_string<char,std::char_traits<char>,std::allocator<char> >::~basic_string<char,std::char_traits<char>,std::allocator<char> >
__ehhandler$?decodeUnicodeCodePoint@Reader@Json@@AAE_NAAVToken@12@AAPBDPBDAAI@Z:
	mov	edx, DWORD PTR [esp+8]
	lea	eax, DWORD PTR [edx+12]
	mov	ecx, DWORD PTR [edx-76]
	xor	ecx, eax
	call	@__security_check_cookie@4
	mov	ecx, DWORD PTR [edx-4]
	xor	ecx, eax
	call	@__security_check_cookie@4
	mov	eax, OFFSET __ehfuncinfo$?decodeUnicodeCodePoint@Reader@Json@@AAE_NAAVToken@12@AAPBDPBDAAI@Z
	jmp	___CxxFrameHandler3
text$x	ENDS
?decodeUnicodeCodePoint@Reader@Json@@AAE_NAAVToken@12@AAPBDPBDAAI@Z ENDP ; Json::Reader::decodeUnicodeCodePoint
; Function compile flags: /Odtp
; File h:\source\hg\client\code_core\jsoncpp-src-0.5.0\src\lib_json\json_reader.cpp
;	COMDAT ?decodeDouble@Reader@Json@@AAE_NAAVToken@12@@Z
_TEXT	SEGMENT
$T2 = -216						; size = 16
_bufferSize$ = -200					; size = 4
tv79 = -196						; size = 4
tv163 = -192						; size = 4
tv161 = -188						; size = 4
_value$ = -184						; size = 8
tv165 = -176						; size = 4
tv159 = -172						; size = 4
tv166 = -168						; size = 4
_count$ = -164						; size = 4
$T3 = -160						; size = 4
_this$ = -156						; size = 4
_length$ = -152						; size = 4
$T4 = -145						; size = 1
$T5 = -144						; size = 24
$T6 = -120						; size = 24
$T7 = -96						; size = 24
_buffer$8 = -72						; size = 24
_buffer$9 = -48						; size = 32
__$ArrayPad$ = -16					; size = 4
__$EHRec$ = -12						; size = 12
_token$ = 8						; size = 4
?decodeDouble@Reader@Json@@AAE_NAAVToken@12@@Z PROC	; Json::Reader::decodeDouble, COMDAT
; _this$ = ecx

; 621  : {

	push	ebp
	mov	ebp, esp
	push	-1
	push	__ehhandler$?decodeDouble@Reader@Json@@AAE_NAAVToken@12@@Z
	mov	eax, DWORD PTR fs:0
	push	eax
	sub	esp, 204				; 000000ccH
	mov	eax, DWORD PTR ___security_cookie
	xor	eax, ebp
	mov	DWORD PTR __$ArrayPad$[ebp], eax
	push	eax
	lea	eax, DWORD PTR __$EHRec$[ebp]
	mov	DWORD PTR fs:0, eax
	mov	DWORD PTR _this$[ebp], ecx

; 622  :    double value = 0;

	movsd	xmm0, QWORD PTR __real@0000000000000000
	movsd	QWORD PTR _value$[ebp], xmm0

; 623  :    const int bufferSize = 32;

	mov	DWORD PTR _bufferSize$[ebp], 32		; 00000020H

; 624  :    int count;
; 625  :    int length = int(token.end_ - token.start_);

	mov	eax, DWORD PTR _token$[ebp]
	mov	ecx, DWORD PTR _token$[ebp]
	mov	edx, DWORD PTR [eax+8]
	sub	edx, DWORD PTR [ecx+4]
	mov	DWORD PTR _length$[ebp], edx

; 626  :    if ( length <= bufferSize )

	cmp	DWORD PTR _length$[ebp], 32		; 00000020H
	jg	SHORT $LN3@decodeDoub

; 627  :    {
; 628  :       Char buffer[bufferSize];
; 629  :       memcpy( buffer, token.start_, length );

	mov	eax, DWORD PTR _length$[ebp]
	push	eax
	mov	ecx, DWORD PTR _token$[ebp]
	mov	edx, DWORD PTR [ecx+4]
	push	edx
	lea	eax, DWORD PTR _buffer$9[ebp]
	push	eax
	call	_memcpy
	add	esp, 12					; 0000000cH

; 630  :       buffer[length] = 0;

	mov	ecx, DWORD PTR _length$[ebp]
	mov	DWORD PTR $T3[ebp], ecx
	cmp	DWORD PTR $T3[ebp], 32			; 00000020H
	jae	SHORT $LN6@decodeDoub
	jmp	SHORT $LN7@decodeDoub
$LN6@decodeDoub:
	call	___report_rangecheckfailure
$LN7@decodeDoub:
	mov	edx, DWORD PTR $T3[ebp]
	mov	BYTE PTR _buffer$9[ebp+edx], 0

; 631  :       count = sscanf( buffer, "%lf", &value );

	lea	eax, DWORD PTR _value$[ebp]
	push	eax
	push	OFFSET ??_C@_03DLDNIBIK@?$CFlf?$AA@
	lea	ecx, DWORD PTR _buffer$9[ebp]
	push	ecx
	call	DWORD PTR __imp__sscanf
	add	esp, 12					; 0000000cH
	mov	DWORD PTR _count$[ebp], eax

; 632  :    }
; 633  :    else

	jmp	SHORT $LN2@decodeDoub
$LN3@decodeDoub:

; 634  :    {
; 635  :       std::string buffer( token.start_, token.end_ );

	mov	edx, DWORD PTR _token$[ebp]
	mov	eax, DWORD PTR [edx+8]
	push	eax
	mov	ecx, DWORD PTR _token$[ebp]
	mov	edx, DWORD PTR [ecx+4]
	push	edx
	lea	ecx, DWORD PTR _buffer$8[ebp]
	call	??0?$basic_string@DU?$char_traits@D@std@@V?$allocator@D@2@@std@@QAE@PBD0@Z ; std::basic_string<char,std::char_traits<char>,std::allocator<char> >::basic_string<char,std::char_traits<char>,std::allocator<char> >

; 636  :       count = sscanf( buffer.c_str(), "%lf", &value );

	lea	eax, DWORD PTR _value$[ebp]
	push	eax
	push	OFFSET ??_C@_03DLDNIBIK@?$CFlf?$AA@
	lea	ecx, DWORD PTR _buffer$8[ebp]
	call	?c_str@?$basic_string@DU?$char_traits@D@std@@V?$allocator@D@2@@std@@QBEPBDXZ ; std::basic_string<char,std::char_traits<char>,std::allocator<char> >::c_str
	push	eax
	call	DWORD PTR __imp__sscanf
	add	esp, 12					; 0000000cH
	mov	DWORD PTR _count$[ebp], eax

; 637  :    }

	lea	ecx, DWORD PTR _buffer$8[ebp]
	call	??1?$basic_string@DU?$char_traits@D@std@@V?$allocator@D@2@@std@@QAE@XZ ; std::basic_string<char,std::char_traits<char>,std::allocator<char> >::~basic_string<char,std::char_traits<char>,std::allocator<char> >
$LN2@decodeDoub:

; 638  : 
; 639  :    if ( count != 1 )

	cmp	DWORD PTR _count$[ebp], 1
	je	$LN1@decodeDoub

; 640  :       return addError( "'" + std::string( token.start_, token.end_ ) + "' is not a number.", token );

	push	0
	mov	ecx, DWORD PTR _token$[ebp]
	push	ecx
	push	OFFSET ??_C@_0BD@HHNBFDKF@?8?5is?5not?5a?5number?4?$AA@
	mov	edx, DWORD PTR _token$[ebp]
	mov	eax, DWORD PTR [edx+8]
	push	eax
	mov	ecx, DWORD PTR _token$[ebp]
	mov	edx, DWORD PTR [ecx+4]
	push	edx
	lea	ecx, DWORD PTR $T7[ebp]
	call	??0?$basic_string@DU?$char_traits@D@std@@V?$allocator@D@2@@std@@QAE@PBD0@Z ; std::basic_string<char,std::char_traits<char>,std::allocator<char> >::basic_string<char,std::char_traits<char>,std::allocator<char> >
	mov	DWORD PTR tv79[ebp], eax
	mov	eax, DWORD PTR tv79[ebp]
	mov	DWORD PTR tv159[ebp], eax
	mov	DWORD PTR __$EHRec$[ebp+8], 0
	mov	ecx, DWORD PTR tv159[ebp]
	push	ecx
	push	OFFSET ??_C@_01GEODFPGF@?8?$AA@
	lea	edx, DWORD PTR $T6[ebp]
	push	edx
	call	??$?HDU?$char_traits@D@std@@V?$allocator@D@1@@std@@YA?AV?$basic_string@DU?$char_traits@D@std@@V?$allocator@D@2@@0@PBD$$QAV10@@Z ; std::operator+<char,std::char_traits<char>,std::allocator<char> >
	add	esp, 12					; 0000000cH
	mov	DWORD PTR tv165[ebp], eax
	mov	eax, DWORD PTR tv165[ebp]
	mov	DWORD PTR tv161[ebp], eax
	mov	BYTE PTR __$EHRec$[ebp+8], 1
	mov	ecx, DWORD PTR tv161[ebp]
	push	ecx
	lea	edx, DWORD PTR $T5[ebp]
	push	edx
	call	??$?HDU?$char_traits@D@std@@V?$allocator@D@1@@std@@YA?AV?$basic_string@DU?$char_traits@D@std@@V?$allocator@D@2@@0@$$QAV10@PBD@Z ; std::operator+<char,std::char_traits<char>,std::allocator<char> >
	add	esp, 12					; 0000000cH
	mov	DWORD PTR tv166[ebp], eax
	mov	eax, DWORD PTR tv166[ebp]
	mov	DWORD PTR tv163[ebp], eax
	mov	BYTE PTR __$EHRec$[ebp+8], 2
	mov	ecx, DWORD PTR tv163[ebp]
	push	ecx
	mov	ecx, DWORD PTR _this$[ebp]
	call	?addError@Reader@Json@@AAE_NABV?$basic_string@DU?$char_traits@D@std@@V?$allocator@D@2@@std@@AAVToken@12@PBD@Z ; Json::Reader::addError
	mov	BYTE PTR $T4[ebp], al
	mov	BYTE PTR __$EHRec$[ebp+8], 1
	lea	ecx, DWORD PTR $T5[ebp]
	call	??1?$basic_string@DU?$char_traits@D@std@@V?$allocator@D@2@@std@@QAE@XZ ; std::basic_string<char,std::char_traits<char>,std::allocator<char> >::~basic_string<char,std::char_traits<char>,std::allocator<char> >
	mov	BYTE PTR __$EHRec$[ebp+8], 0
	lea	ecx, DWORD PTR $T6[ebp]
	call	??1?$basic_string@DU?$char_traits@D@std@@V?$allocator@D@2@@std@@QAE@XZ ; std::basic_string<char,std::char_traits<char>,std::allocator<char> >::~basic_string<char,std::char_traits<char>,std::allocator<char> >
	mov	DWORD PTR __$EHRec$[ebp+8], -1
	lea	ecx, DWORD PTR $T7[ebp]
	call	??1?$basic_string@DU?$char_traits@D@std@@V?$allocator@D@2@@std@@QAE@XZ ; std::basic_string<char,std::char_traits<char>,std::allocator<char> >::~basic_string<char,std::char_traits<char>,std::allocator<char> >
	mov	al, BYTE PTR $T4[ebp]
	jmp	SHORT $LN4@decodeDoub
$LN1@decodeDoub:

; 641  :    currentValue() = value;

	sub	esp, 8
	movsd	xmm0, QWORD PTR _value$[ebp]
	movsd	QWORD PTR [esp], xmm0
	lea	ecx, DWORD PTR $T2[ebp]
	call	??0Value@Json@@QAE@N@Z			; Json::Value::Value
	mov	DWORD PTR __$EHRec$[ebp+8], 3
	lea	edx, DWORD PTR $T2[ebp]
	push	edx
	mov	ecx, DWORD PTR _this$[ebp]
	call	?currentValue@Reader@Json@@AAEAAVValue@2@XZ ; Json::Reader::currentValue
	mov	ecx, eax
	call	??4Value@Json@@QAEAAV01@ABV01@@Z	; Json::Value::operator=
	mov	DWORD PTR __$EHRec$[ebp+8], -1
	lea	ecx, DWORD PTR $T2[ebp]
	call	??1Value@Json@@QAE@XZ			; Json::Value::~Value

; 642  :    return true;

	mov	al, 1
$LN4@decodeDoub:

; 643  : }

	mov	ecx, DWORD PTR __$EHRec$[ebp]
	mov	DWORD PTR fs:0, ecx
	pop	ecx
	mov	ecx, DWORD PTR __$ArrayPad$[ebp]
	xor	ecx, ebp
	call	@__security_check_cookie@4
	mov	esp, ebp
	pop	ebp
	ret	4
_TEXT	ENDS
;	COMDAT text$x
text$x	SEGMENT
__unwindfunclet$?decodeDouble@Reader@Json@@AAE_NAAVToken@12@@Z$1:
	lea	ecx, DWORD PTR $T7[ebp]
	jmp	??1?$basic_string@DU?$char_traits@D@std@@V?$allocator@D@2@@std@@QAE@XZ ; std::basic_string<char,std::char_traits<char>,std::allocator<char> >::~basic_string<char,std::char_traits<char>,std::allocator<char> >
__unwindfunclet$?decodeDouble@Reader@Json@@AAE_NAAVToken@12@@Z$2:
	lea	ecx, DWORD PTR $T6[ebp]
	jmp	??1?$basic_string@DU?$char_traits@D@std@@V?$allocator@D@2@@std@@QAE@XZ ; std::basic_string<char,std::char_traits<char>,std::allocator<char> >::~basic_string<char,std::char_traits<char>,std::allocator<char> >
__unwindfunclet$?decodeDouble@Reader@Json@@AAE_NAAVToken@12@@Z$3:
	lea	ecx, DWORD PTR $T5[ebp]
	jmp	??1?$basic_string@DU?$char_traits@D@std@@V?$allocator@D@2@@std@@QAE@XZ ; std::basic_string<char,std::char_traits<char>,std::allocator<char> >::~basic_string<char,std::char_traits<char>,std::allocator<char> >
__unwindfunclet$?decodeDouble@Reader@Json@@AAE_NAAVToken@12@@Z$4:
	lea	ecx, DWORD PTR $T2[ebp]
	jmp	??1Value@Json@@QAE@XZ			; Json::Value::~Value
__ehhandler$?decodeDouble@Reader@Json@@AAE_NAAVToken@12@@Z:
	mov	edx, DWORD PTR [esp+8]
	lea	eax, DWORD PTR [edx+12]
	mov	ecx, DWORD PTR [edx-208]
	xor	ecx, eax
	call	@__security_check_cookie@4
	mov	ecx, DWORD PTR [edx-4]
	xor	ecx, eax
	call	@__security_check_cookie@4
	mov	eax, OFFSET __ehfuncinfo$?decodeDouble@Reader@Json@@AAE_NAAVToken@12@@Z
	jmp	___CxxFrameHandler3
text$x	ENDS
?decodeDouble@Reader@Json@@AAE_NAAVToken@12@@Z ENDP	; Json::Reader::decodeDouble
; Function compile flags: /Odtp
; File h:\source\hg\client\code_core\jsoncpp-src-0.5.0\src\lib_json\json_reader.cpp
;	COMDAT ?decodeString@Reader@Json@@AAE_NAAVToken@12@AAV?$basic_string@DU?$char_traits@D@std@@V?$allocator@D@2@@std@@@Z
_TEXT	SEGMENT
tv86 = -124						; size = 4
tv171 = -120						; size = 4
_unicode$2 = -116					; size = 4
_this$ = -112						; size = 4
_end$ = -108						; size = 4
tv92 = -104						; size = 4
$T3 = -99						; size = 1
$T4 = -98						; size = 1
_escape$5 = -97						; size = 1
_current$ = -96						; size = 4
_c$6 = -89						; size = 1
$T7 = -88						; size = 24
$T8 = -64						; size = 24
$T9 = -40						; size = 24
__$ArrayPad$ = -16					; size = 4
__$EHRec$ = -12						; size = 12
_token$ = 8						; size = 4
_decoded$ = 12						; size = 4
?decodeString@Reader@Json@@AAE_NAAVToken@12@AAV?$basic_string@DU?$char_traits@D@std@@V?$allocator@D@2@@std@@@Z PROC ; Json::Reader::decodeString, COMDAT
; _this$ = ecx

; 659  : {

	push	ebp
	mov	ebp, esp
	push	-1
	push	__ehhandler$?decodeString@Reader@Json@@AAE_NAAVToken@12@AAV?$basic_string@DU?$char_traits@D@std@@V?$allocator@D@2@@std@@@Z
	mov	eax, DWORD PTR fs:0
	push	eax
	sub	esp, 112				; 00000070H
	mov	eax, DWORD PTR ___security_cookie
	xor	eax, ebp
	mov	DWORD PTR __$ArrayPad$[ebp], eax
	push	eax
	lea	eax, DWORD PTR __$EHRec$[ebp]
	mov	DWORD PTR fs:0, eax
	mov	DWORD PTR _this$[ebp], ecx

; 660  :    decoded.reserve( token.end_ - token.start_ - 2 );

	mov	eax, DWORD PTR _token$[ebp]
	mov	ecx, DWORD PTR _token$[ebp]
	mov	edx, DWORD PTR [eax+8]
	sub	edx, DWORD PTR [ecx+4]
	sub	edx, 2
	push	edx
	mov	ecx, DWORD PTR _decoded$[ebp]
	call	?reserve@?$basic_string@DU?$char_traits@D@std@@V?$allocator@D@2@@std@@QAEXI@Z ; std::basic_string<char,std::char_traits<char>,std::allocator<char> >::reserve

; 661  :    Location current = token.start_ + 1; // skip '"'

	mov	eax, DWORD PTR _token$[ebp]
	mov	ecx, DWORD PTR [eax+4]
	add	ecx, 1
	mov	DWORD PTR _current$[ebp], ecx

; 662  :    Location end = token.end_ - 1;      // do not include '"'

	mov	edx, DWORD PTR _token$[ebp]
	mov	eax, DWORD PTR [edx+8]
	sub	eax, 1
	mov	DWORD PTR _end$[ebp], eax
$LN20@decodeStri:

; 663  :    while ( current != end )

	mov	ecx, DWORD PTR _current$[ebp]
	cmp	ecx, DWORD PTR _end$[ebp]
	je	$LN19@decodeStri

; 664  :    {
; 665  :       Char c = *current++;

	mov	edx, DWORD PTR _current$[ebp]
	mov	al, BYTE PTR [edx]
	mov	BYTE PTR _c$6[ebp], al
	mov	ecx, DWORD PTR _current$[ebp]
	add	ecx, 1
	mov	DWORD PTR _current$[ebp], ecx

; 666  :       if ( c == '"' )

	movsx	edx, BYTE PTR _c$6[ebp]
	cmp	edx, 34					; 00000022H
	jne	SHORT $LN18@decodeStri

; 667  :          break;

	jmp	$LN19@decodeStri
	jmp	$LN17@decodeStri
$LN18@decodeStri:

; 668  :       else if ( c == '\\' )

	movsx	eax, BYTE PTR _c$6[ebp]
	cmp	eax, 92					; 0000005cH
	jne	$LN16@decodeStri

; 669  :       {
; 670  :          if ( current == end )

	mov	ecx, DWORD PTR _current$[ebp]
	cmp	ecx, DWORD PTR _end$[ebp]
	jne	SHORT $LN15@decodeStri

; 671  :             return addError( "Empty escape sequence in string", token, current );

	push	OFFSET ??_C@_0CA@DPGKPPOE@Empty?5escape?5sequence?5in?5string?$AA@
	lea	ecx, DWORD PTR $T9[ebp]
	call	??0?$basic_string@DU?$char_traits@D@std@@V?$allocator@D@2@@std@@QAE@PBD@Z ; std::basic_string<char,std::char_traits<char>,std::allocator<char> >::basic_string<char,std::char_traits<char>,std::allocator<char> >
	mov	DWORD PTR __$EHRec$[ebp+8], 0
	mov	edx, DWORD PTR _current$[ebp]
	push	edx
	mov	eax, DWORD PTR _token$[ebp]
	push	eax
	lea	ecx, DWORD PTR $T9[ebp]
	push	ecx
	mov	ecx, DWORD PTR _this$[ebp]
	call	?addError@Reader@Json@@AAE_NABV?$basic_string@DU?$char_traits@D@std@@V?$allocator@D@2@@std@@AAVToken@12@PBD@Z ; Json::Reader::addError
	mov	BYTE PTR $T3[ebp], al
	mov	DWORD PTR __$EHRec$[ebp+8], -1
	lea	ecx, DWORD PTR $T9[ebp]
	call	??1?$basic_string@DU?$char_traits@D@std@@V?$allocator@D@2@@std@@QAE@XZ ; std::basic_string<char,std::char_traits<char>,std::allocator<char> >::~basic_string<char,std::char_traits<char>,std::allocator<char> >
	mov	al, BYTE PTR $T3[ebp]
	jmp	$LN21@decodeStri
$LN15@decodeStri:

; 672  :          Char escape = *current++;

	mov	edx, DWORD PTR _current$[ebp]
	mov	al, BYTE PTR [edx]
	mov	BYTE PTR _escape$5[ebp], al
	mov	ecx, DWORD PTR _current$[ebp]
	add	ecx, 1
	mov	DWORD PTR _current$[ebp], ecx

; 673  :          switch ( escape )

	movsx	edx, BYTE PTR _escape$5[ebp]
	mov	DWORD PTR tv92[ebp], edx
	mov	eax, DWORD PTR tv92[ebp]
	sub	eax, 34					; 00000022H
	mov	DWORD PTR tv92[ebp], eax
	cmp	DWORD PTR tv92[ebp], 83			; 00000053H
	ja	$LN2@decodeStri
	mov	ecx, DWORD PTR tv92[ebp]
	movzx	edx, BYTE PTR $LN26@decodeStri[ecx]
	jmp	DWORD PTR $LN28@decodeStri[edx*4]
$LN12@decodeStri:

; 674  :          {
; 675  :          case '"': decoded += '"'; break;

	push	34					; 00000022H
	mov	ecx, DWORD PTR _decoded$[ebp]
	call	??Y?$basic_string@DU?$char_traits@D@std@@V?$allocator@D@2@@std@@QAEAAV01@D@Z ; std::basic_string<char,std::char_traits<char>,std::allocator<char> >::operator+=
	jmp	$LN13@decodeStri
$LN11@decodeStri:

; 676  :          case '/': decoded += '/'; break;

	push	47					; 0000002fH
	mov	ecx, DWORD PTR _decoded$[ebp]
	call	??Y?$basic_string@DU?$char_traits@D@std@@V?$allocator@D@2@@std@@QAEAAV01@D@Z ; std::basic_string<char,std::char_traits<char>,std::allocator<char> >::operator+=
	jmp	$LN13@decodeStri
$LN10@decodeStri:

; 677  :          case '\\': decoded += '\\'; break;

	push	92					; 0000005cH
	mov	ecx, DWORD PTR _decoded$[ebp]
	call	??Y?$basic_string@DU?$char_traits@D@std@@V?$allocator@D@2@@std@@QAEAAV01@D@Z ; std::basic_string<char,std::char_traits<char>,std::allocator<char> >::operator+=
	jmp	$LN13@decodeStri
$LN9@decodeStri:

; 678  :          case 'b': decoded += '\b'; break;

	push	8
	mov	ecx, DWORD PTR _decoded$[ebp]
	call	??Y?$basic_string@DU?$char_traits@D@std@@V?$allocator@D@2@@std@@QAEAAV01@D@Z ; std::basic_string<char,std::char_traits<char>,std::allocator<char> >::operator+=
	jmp	$LN13@decodeStri
$LN8@decodeStri:

; 679  :          case 'f': decoded += '\f'; break;

	push	12					; 0000000cH
	mov	ecx, DWORD PTR _decoded$[ebp]
	call	??Y?$basic_string@DU?$char_traits@D@std@@V?$allocator@D@2@@std@@QAEAAV01@D@Z ; std::basic_string<char,std::char_traits<char>,std::allocator<char> >::operator+=
	jmp	$LN13@decodeStri
$LN7@decodeStri:

; 680  :          case 'n': decoded += '\n'; break;

	push	10					; 0000000aH
	mov	ecx, DWORD PTR _decoded$[ebp]
	call	??Y?$basic_string@DU?$char_traits@D@std@@V?$allocator@D@2@@std@@QAEAAV01@D@Z ; std::basic_string<char,std::char_traits<char>,std::allocator<char> >::operator+=
	jmp	$LN13@decodeStri
$LN6@decodeStri:

; 681  :          case 'r': decoded += '\r'; break;

	push	13					; 0000000dH
	mov	ecx, DWORD PTR _decoded$[ebp]
	call	??Y?$basic_string@DU?$char_traits@D@std@@V?$allocator@D@2@@std@@QAEAAV01@D@Z ; std::basic_string<char,std::char_traits<char>,std::allocator<char> >::operator+=
	jmp	$LN13@decodeStri
$LN5@decodeStri:

; 682  :          case 't': decoded += '\t'; break;

	push	9
	mov	ecx, DWORD PTR _decoded$[ebp]
	call	??Y?$basic_string@DU?$char_traits@D@std@@V?$allocator@D@2@@std@@QAEAAV01@D@Z ; std::basic_string<char,std::char_traits<char>,std::allocator<char> >::operator+=
	jmp	$LN13@decodeStri
$LN4@decodeStri:

; 683  :          case 'u':
; 684  :             {
; 685  :                unsigned int unicode;
; 686  :                if ( !decodeUnicodeCodePoint( token, current, end, unicode ) )

	lea	eax, DWORD PTR _unicode$2[ebp]
	push	eax
	mov	ecx, DWORD PTR _end$[ebp]
	push	ecx
	lea	edx, DWORD PTR _current$[ebp]
	push	edx
	mov	eax, DWORD PTR _token$[ebp]
	push	eax
	mov	ecx, DWORD PTR _this$[ebp]
	call	?decodeUnicodeCodePoint@Reader@Json@@AAE_NAAVToken@12@AAPBDPBDAAI@Z ; Json::Reader::decodeUnicodeCodePoint
	movzx	ecx, al
	test	ecx, ecx
	jne	SHORT $LN3@decodeStri

; 687  :                   return false;

	xor	al, al
	jmp	$LN21@decodeStri
$LN3@decodeStri:

; 688  :                decoded += codePointToUTF8(unicode);

	mov	edx, DWORD PTR _unicode$2[ebp]
	push	edx
	lea	eax, DWORD PTR $T7[ebp]
	push	eax
	call	?codePointToUTF8@Json@@YA?AV?$basic_string@DU?$char_traits@D@std@@V?$allocator@D@2@@std@@I@Z ; Json::codePointToUTF8
	add	esp, 8
	mov	DWORD PTR tv86[ebp], eax
	mov	ecx, DWORD PTR tv86[ebp]
	mov	DWORD PTR tv171[ebp], ecx
	mov	DWORD PTR __$EHRec$[ebp+8], 1
	mov	edx, DWORD PTR tv171[ebp]
	push	edx
	mov	ecx, DWORD PTR _decoded$[ebp]
	call	??Y?$basic_string@DU?$char_traits@D@std@@V?$allocator@D@2@@std@@QAEAAV01@ABV01@@Z ; std::basic_string<char,std::char_traits<char>,std::allocator<char> >::operator+=
	mov	DWORD PTR __$EHRec$[ebp+8], -1
	lea	ecx, DWORD PTR $T7[ebp]
	call	??1?$basic_string@DU?$char_traits@D@std@@V?$allocator@D@2@@std@@QAE@XZ ; std::basic_string<char,std::char_traits<char>,std::allocator<char> >::~basic_string<char,std::char_traits<char>,std::allocator<char> >

; 689  :             }
; 690  :             break;

	jmp	SHORT $LN13@decodeStri
$LN2@decodeStri:

; 691  :          default:
; 692  :             return addError( "Bad escape sequence in string", token, current );

	push	OFFSET ??_C@_0BO@NDEEJNNB@Bad?5escape?5sequence?5in?5string?$AA@
	lea	ecx, DWORD PTR $T8[ebp]
	call	??0?$basic_string@DU?$char_traits@D@std@@V?$allocator@D@2@@std@@QAE@PBD@Z ; std::basic_string<char,std::char_traits<char>,std::allocator<char> >::basic_string<char,std::char_traits<char>,std::allocator<char> >
	mov	DWORD PTR __$EHRec$[ebp+8], 2
	mov	eax, DWORD PTR _current$[ebp]
	push	eax
	mov	ecx, DWORD PTR _token$[ebp]
	push	ecx
	lea	edx, DWORD PTR $T8[ebp]
	push	edx
	mov	ecx, DWORD PTR _this$[ebp]
	call	?addError@Reader@Json@@AAE_NABV?$basic_string@DU?$char_traits@D@std@@V?$allocator@D@2@@std@@AAVToken@12@PBD@Z ; Json::Reader::addError
	mov	BYTE PTR $T4[ebp], al
	mov	DWORD PTR __$EHRec$[ebp+8], -1
	lea	ecx, DWORD PTR $T8[ebp]
	call	??1?$basic_string@DU?$char_traits@D@std@@V?$allocator@D@2@@std@@QAE@XZ ; std::basic_string<char,std::char_traits<char>,std::allocator<char> >::~basic_string<char,std::char_traits<char>,std::allocator<char> >
	mov	al, BYTE PTR $T4[ebp]
	jmp	SHORT $LN21@decodeStri
$LN13@decodeStri:

; 693  :          }
; 694  :       }
; 695  :       else

	jmp	SHORT $LN17@decodeStri
$LN16@decodeStri:

; 696  :       {
; 697  :          decoded += c;

	movzx	eax, BYTE PTR _c$6[ebp]
	push	eax
	mov	ecx, DWORD PTR _decoded$[ebp]
	call	??Y?$basic_string@DU?$char_traits@D@std@@V?$allocator@D@2@@std@@QAEAAV01@D@Z ; std::basic_string<char,std::char_traits<char>,std::allocator<char> >::operator+=
$LN17@decodeStri:

; 698  :       }
; 699  :    }

	jmp	$LN20@decodeStri
$LN19@decodeStri:

; 700  :    return true;

	mov	al, 1
$LN21@decodeStri:

; 701  : }

	mov	ecx, DWORD PTR __$EHRec$[ebp]
	mov	DWORD PTR fs:0, ecx
	pop	ecx
	mov	ecx, DWORD PTR __$ArrayPad$[ebp]
	xor	ecx, ebp
	call	@__security_check_cookie@4
	mov	esp, ebp
	pop	ebp
	ret	8
	npad	3
$LN28@decodeStri:
	DD	$LN12@decodeStri
	DD	$LN11@decodeStri
	DD	$LN10@decodeStri
	DD	$LN9@decodeStri
	DD	$LN8@decodeStri
	DD	$LN7@decodeStri
	DD	$LN6@decodeStri
	DD	$LN5@decodeStri
	DD	$LN4@decodeStri
	DD	$LN2@decodeStri
$LN26@decodeStri:
	DB	0
	DB	9
	DB	9
	DB	9
	DB	9
	DB	9
	DB	9
	DB	9
	DB	9
	DB	9
	DB	9
	DB	9
	DB	9
	DB	1
	DB	9
	DB	9
	DB	9
	DB	9
	DB	9
	DB	9
	DB	9
	DB	9
	DB	9
	DB	9
	DB	9
	DB	9
	DB	9
	DB	9
	DB	9
	DB	9
	DB	9
	DB	9
	DB	9
	DB	9
	DB	9
	DB	9
	DB	9
	DB	9
	DB	9
	DB	9
	DB	9
	DB	9
	DB	9
	DB	9
	DB	9
	DB	9
	DB	9
	DB	9
	DB	9
	DB	9
	DB	9
	DB	9
	DB	9
	DB	9
	DB	9
	DB	9
	DB	9
	DB	9
	DB	2
	DB	9
	DB	9
	DB	9
	DB	9
	DB	9
	DB	3
	DB	9
	DB	9
	DB	9
	DB	4
	DB	9
	DB	9
	DB	9
	DB	9
	DB	9
	DB	9
	DB	9
	DB	5
	DB	9
	DB	9
	DB	9
	DB	6
	DB	9
	DB	7
	DB	8
_TEXT	ENDS
;	COMDAT text$x
text$x	SEGMENT
__unwindfunclet$?decodeString@Reader@Json@@AAE_NAAVToken@12@AAV?$basic_string@DU?$char_traits@D@std@@V?$allocator@D@2@@std@@@Z$0:
	lea	ecx, DWORD PTR $T9[ebp]
	jmp	??1?$basic_string@DU?$char_traits@D@std@@V?$allocator@D@2@@std@@QAE@XZ ; std::basic_string<char,std::char_traits<char>,std::allocator<char> >::~basic_string<char,std::char_traits<char>,std::allocator<char> >
__unwindfunclet$?decodeString@Reader@Json@@AAE_NAAVToken@12@AAV?$basic_string@DU?$char_traits@D@std@@V?$allocator@D@2@@std@@@Z$1:
	lea	ecx, DWORD PTR $T7[ebp]
	jmp	??1?$basic_string@DU?$char_traits@D@std@@V?$allocator@D@2@@std@@QAE@XZ ; std::basic_string<char,std::char_traits<char>,std::allocator<char> >::~basic_string<char,std::char_traits<char>,std::allocator<char> >
__unwindfunclet$?decodeString@Reader@Json@@AAE_NAAVToken@12@AAV?$basic_string@DU?$char_traits@D@std@@V?$allocator@D@2@@std@@@Z$2:
	lea	ecx, DWORD PTR $T8[ebp]
	jmp	??1?$basic_string@DU?$char_traits@D@std@@V?$allocator@D@2@@std@@QAE@XZ ; std::basic_string<char,std::char_traits<char>,std::allocator<char> >::~basic_string<char,std::char_traits<char>,std::allocator<char> >
__ehhandler$?decodeString@Reader@Json@@AAE_NAAVToken@12@AAV?$basic_string@DU?$char_traits@D@std@@V?$allocator@D@2@@std@@@Z:
	mov	edx, DWORD PTR [esp+8]
	lea	eax, DWORD PTR [edx+12]
	mov	ecx, DWORD PTR [edx-116]
	xor	ecx, eax
	call	@__security_check_cookie@4
	mov	ecx, DWORD PTR [edx-4]
	xor	ecx, eax
	call	@__security_check_cookie@4
	mov	eax, OFFSET __ehfuncinfo$?decodeString@Reader@Json@@AAE_NAAVToken@12@AAV?$basic_string@DU?$char_traits@D@std@@V?$allocator@D@2@@std@@@Z
	jmp	___CxxFrameHandler3
text$x	ENDS
?decodeString@Reader@Json@@AAE_NAAVToken@12@AAV?$basic_string@DU?$char_traits@D@std@@V?$allocator@D@2@@std@@@Z ENDP ; Json::Reader::decodeString
; Function compile flags: /Odtp
; File h:\source\hg\client\code_core\jsoncpp-src-0.5.0\src\lib_json\json_reader.cpp
;	COMDAT ?decodeString@Reader@Json@@AAE_NAAVToken@12@@Z
_TEXT	SEGMENT
$T2 = -64						; size = 16
_this$ = -48						; size = 4
$T3 = -42						; size = 1
$T4 = -41						; size = 1
_decoded$ = -40						; size = 24
__$ArrayPad$ = -16					; size = 4
__$EHRec$ = -12						; size = 12
_token$ = 8						; size = 4
?decodeString@Reader@Json@@AAE_NAAVToken@12@@Z PROC	; Json::Reader::decodeString, COMDAT
; _this$ = ecx

; 648  : {

	push	ebp
	mov	ebp, esp
	push	-1
	push	__ehhandler$?decodeString@Reader@Json@@AAE_NAAVToken@12@@Z
	mov	eax, DWORD PTR fs:0
	push	eax
	sub	esp, 52					; 00000034H
	mov	eax, DWORD PTR ___security_cookie
	xor	eax, ebp
	mov	DWORD PTR __$ArrayPad$[ebp], eax
	push	eax
	lea	eax, DWORD PTR __$EHRec$[ebp]
	mov	DWORD PTR fs:0, eax
	mov	DWORD PTR _this$[ebp], ecx

; 649  :    std::string decoded;

	lea	ecx, DWORD PTR _decoded$[ebp]
	call	??0?$basic_string@DU?$char_traits@D@std@@V?$allocator@D@2@@std@@QAE@XZ ; std::basic_string<char,std::char_traits<char>,std::allocator<char> >::basic_string<char,std::char_traits<char>,std::allocator<char> >
	mov	DWORD PTR __$EHRec$[ebp+8], 0

; 650  :    if ( !decodeString( token, decoded ) )

	lea	eax, DWORD PTR _decoded$[ebp]
	push	eax
	mov	ecx, DWORD PTR _token$[ebp]
	push	ecx
	mov	ecx, DWORD PTR _this$[ebp]
	call	?decodeString@Reader@Json@@AAE_NAAVToken@12@AAV?$basic_string@DU?$char_traits@D@std@@V?$allocator@D@2@@std@@@Z ; Json::Reader::decodeString
	movzx	edx, al
	test	edx, edx
	jne	SHORT $LN1@decodeStri

; 651  :       return false;

	mov	BYTE PTR $T3[ebp], 0
	mov	DWORD PTR __$EHRec$[ebp+8], -1
	lea	ecx, DWORD PTR _decoded$[ebp]
	call	??1?$basic_string@DU?$char_traits@D@std@@V?$allocator@D@2@@std@@QAE@XZ ; std::basic_string<char,std::char_traits<char>,std::allocator<char> >::~basic_string<char,std::char_traits<char>,std::allocator<char> >
	mov	al, BYTE PTR $T3[ebp]
	jmp	SHORT $LN2@decodeStri
$LN1@decodeStri:

; 652  :    currentValue() = decoded;

	lea	eax, DWORD PTR _decoded$[ebp]
	push	eax
	lea	ecx, DWORD PTR $T2[ebp]
	call	??0Value@Json@@QAE@ABV?$basic_string@DU?$char_traits@D@std@@V?$allocator@D@2@@std@@@Z ; Json::Value::Value
	mov	BYTE PTR __$EHRec$[ebp+8], 1
	lea	ecx, DWORD PTR $T2[ebp]
	push	ecx
	mov	ecx, DWORD PTR _this$[ebp]
	call	?currentValue@Reader@Json@@AAEAAVValue@2@XZ ; Json::Reader::currentValue
	mov	ecx, eax
	call	??4Value@Json@@QAEAAV01@ABV01@@Z	; Json::Value::operator=
	mov	BYTE PTR __$EHRec$[ebp+8], 0
	lea	ecx, DWORD PTR $T2[ebp]
	call	??1Value@Json@@QAE@XZ			; Json::Value::~Value

; 653  :    return true;

	mov	BYTE PTR $T4[ebp], 1
	mov	DWORD PTR __$EHRec$[ebp+8], -1
	lea	ecx, DWORD PTR _decoded$[ebp]
	call	??1?$basic_string@DU?$char_traits@D@std@@V?$allocator@D@2@@std@@QAE@XZ ; std::basic_string<char,std::char_traits<char>,std::allocator<char> >::~basic_string<char,std::char_traits<char>,std::allocator<char> >
	mov	al, BYTE PTR $T4[ebp]
$LN2@decodeStri:

; 654  : }

	mov	ecx, DWORD PTR __$EHRec$[ebp]
	mov	DWORD PTR fs:0, ecx
	pop	ecx
	mov	ecx, DWORD PTR __$ArrayPad$[ebp]
	xor	ecx, ebp
	call	@__security_check_cookie@4
	mov	esp, ebp
	pop	ebp
	ret	4
_TEXT	ENDS
;	COMDAT text$x
text$x	SEGMENT
__unwindfunclet$?decodeString@Reader@Json@@AAE_NAAVToken@12@@Z$0:
	lea	ecx, DWORD PTR _decoded$[ebp]
	jmp	??1?$basic_string@DU?$char_traits@D@std@@V?$allocator@D@2@@std@@QAE@XZ ; std::basic_string<char,std::char_traits<char>,std::allocator<char> >::~basic_string<char,std::char_traits<char>,std::allocator<char> >
__unwindfunclet$?decodeString@Reader@Json@@AAE_NAAVToken@12@@Z$1:
	lea	ecx, DWORD PTR $T2[ebp]
	jmp	??1Value@Json@@QAE@XZ			; Json::Value::~Value
__ehhandler$?decodeString@Reader@Json@@AAE_NAAVToken@12@@Z:
	mov	edx, DWORD PTR [esp+8]
	lea	eax, DWORD PTR [edx+12]
	mov	ecx, DWORD PTR [edx-56]
	xor	ecx, eax
	call	@__security_check_cookie@4
	mov	ecx, DWORD PTR [edx-4]
	xor	ecx, eax
	call	@__security_check_cookie@4
	mov	eax, OFFSET __ehfuncinfo$?decodeString@Reader@Json@@AAE_NAAVToken@12@@Z
	jmp	___CxxFrameHandler3
text$x	ENDS
?decodeString@Reader@Json@@AAE_NAAVToken@12@@Z ENDP	; Json::Reader::decodeString
; Function compile flags: /Odtp
; File h:\source\hg\client\code_core\jsoncpp-src-0.5.0\src\lib_json\json_reader.cpp
;	COMDAT ?decodeNumber@Reader@Json@@AAE_NAAVToken@12@@Z
_TEXT	SEGMENT
$T2 = -200						; size = 16
$T3 = -184						; size = 16
$T4 = -168						; size = 16
tv212 = -152						; size = 4
tv205 = -148						; size = 4
tv203 = -144						; size = 4
tv207 = -140						; size = 4
tv213 = -136						; size = 4
_threshold$ = -132					; size = 4
tv211 = -128						; size = 4
tv92 = -124						; size = 4
tv132 = -120						; size = 4
tv82 = -116						; size = 4
_this$ = -112						; size = 4
_inspect$5 = -108					; size = 4
$T6 = -101						; size = 1
_value$ = -100						; size = 4
_current$ = -96						; size = 4
_isDouble$ = -91					; size = 1
_c$7 = -90						; size = 1
_isNegative$ = -89					; size = 1
$T8 = -88						; size = 24
$T9 = -64						; size = 24
$T10 = -40						; size = 24
__$ArrayPad$ = -16					; size = 4
__$EHRec$ = -12						; size = 12
_token$ = 8						; size = 4
?decodeNumber@Reader@Json@@AAE_NAAVToken@12@@Z PROC	; Json::Reader::decodeNumber, COMDAT
; _this$ = ecx

; 583  : {

	push	ebp
	mov	ebp, esp
	push	-1
	push	__ehhandler$?decodeNumber@Reader@Json@@AAE_NAAVToken@12@@Z
	mov	eax, DWORD PTR fs:0
	push	eax
	sub	esp, 188				; 000000bcH
	mov	eax, DWORD PTR ___security_cookie
	xor	eax, ebp
	mov	DWORD PTR __$ArrayPad$[ebp], eax
	push	eax
	lea	eax, DWORD PTR __$EHRec$[ebp]
	mov	DWORD PTR fs:0, eax
	mov	DWORD PTR _this$[ebp], ecx

; 584  :    bool isDouble = false;

	mov	BYTE PTR _isDouble$[ebp], 0

; 585  :    for ( Location inspect = token.start_; inspect != token.end_; ++inspect )

	mov	eax, DWORD PTR _token$[ebp]
	mov	ecx, DWORD PTR [eax+4]
	mov	DWORD PTR _inspect$5[ebp], ecx
	jmp	SHORT $LN14@decodeNumb
$LN13@decodeNumb:
	mov	edx, DWORD PTR _inspect$5[ebp]
	add	edx, 1
	mov	DWORD PTR _inspect$5[ebp], edx
$LN14@decodeNumb:
	mov	eax, DWORD PTR _token$[ebp]
	mov	ecx, DWORD PTR _inspect$5[ebp]
	cmp	ecx, DWORD PTR [eax+8]
	je	SHORT $LN12@decodeNumb

; 586  :    {
; 587  :       isDouble = isDouble  
; 588  :                  ||  in( *inspect, '.', 'e', 'E', '+' )  
; 589  :                  ||  ( *inspect == '-'  &&  inspect != token.start_ );

	movzx	edx, BYTE PTR _isDouble$[ebp]
	test	edx, edx
	jne	SHORT $LN17@decodeNumb
	push	43					; 0000002bH
	push	69					; 00000045H
	push	101					; 00000065H
	push	46					; 0000002eH
	mov	eax, DWORD PTR _inspect$5[ebp]
	movzx	ecx, BYTE PTR [eax]
	push	ecx
	call	?in@Json@@YA_NDDDDD@Z			; Json::in
	add	esp, 20					; 00000014H
	movzx	edx, al
	test	edx, edx
	jne	SHORT $LN17@decodeNumb
	mov	eax, DWORD PTR _inspect$5[ebp]
	movsx	ecx, BYTE PTR [eax]
	cmp	ecx, 45					; 0000002dH
	jne	SHORT $LN18@decodeNumb
	mov	edx, DWORD PTR _token$[ebp]
	mov	eax, DWORD PTR _inspect$5[ebp]
	cmp	eax, DWORD PTR [edx+4]
	jne	SHORT $LN17@decodeNumb
$LN18@decodeNumb:
	mov	DWORD PTR tv82[ebp], 0
	jmp	SHORT $LN19@decodeNumb
$LN17@decodeNumb:
	mov	DWORD PTR tv82[ebp], 1
$LN19@decodeNumb:
	mov	cl, BYTE PTR tv82[ebp]
	mov	BYTE PTR _isDouble$[ebp], cl

; 590  :    }

	jmp	SHORT $LN13@decodeNumb
$LN12@decodeNumb:

; 591  :    if ( isDouble )

	movzx	edx, BYTE PTR _isDouble$[ebp]
	test	edx, edx
	je	SHORT $LN11@decodeNumb

; 592  :       return decodeDouble( token );

	mov	eax, DWORD PTR _token$[ebp]
	push	eax
	mov	ecx, DWORD PTR _this$[ebp]
	call	?decodeDouble@Reader@Json@@AAE_NAAVToken@12@@Z ; Json::Reader::decodeDouble
	jmp	$LN15@decodeNumb
$LN11@decodeNumb:

; 593  :    Location current = token.start_;

	mov	ecx, DWORD PTR _token$[ebp]
	mov	edx, DWORD PTR [ecx+4]
	mov	DWORD PTR _current$[ebp], edx

; 594  :    bool isNegative = *current == '-';

	mov	eax, DWORD PTR _current$[ebp]
	movsx	ecx, BYTE PTR [eax]
	cmp	ecx, 45					; 0000002dH
	jne	SHORT $LN20@decodeNumb
	mov	DWORD PTR tv92[ebp], 1
	jmp	SHORT $LN21@decodeNumb
$LN20@decodeNumb:
	mov	DWORD PTR tv92[ebp], 0
$LN21@decodeNumb:
	mov	dl, BYTE PTR tv92[ebp]
	mov	BYTE PTR _isNegative$[ebp], dl

; 595  :    if ( isNegative )

	movzx	eax, BYTE PTR _isNegative$[ebp]
	test	eax, eax
	je	SHORT $LN10@decodeNumb

; 596  :       ++current;

	mov	ecx, DWORD PTR _current$[ebp]
	add	ecx, 1
	mov	DWORD PTR _current$[ebp], ecx
$LN10@decodeNumb:

; 597  :    Value::UInt threshold = (isNegative ? Value::UInt(-Value::minInt) 
; 598  :                                        : Value::maxUInt) / 10;

	movzx	edx, BYTE PTR _isNegative$[ebp]
	test	edx, edx
	je	SHORT $LN22@decodeNumb
	mov	eax, DWORD PTR ?minInt@Value@Json@@2HB	; Json::Value::minInt
	neg	eax
	mov	DWORD PTR tv132[ebp], eax
	jmp	SHORT $LN23@decodeNumb
$LN22@decodeNumb:
	mov	ecx, DWORD PTR ?maxUInt@Value@Json@@2IB	; Json::Value::maxUInt
	mov	DWORD PTR tv132[ebp], ecx
$LN23@decodeNumb:
	mov	eax, DWORD PTR tv132[ebp]
	xor	edx, edx
	mov	ecx, 10					; 0000000aH
	div	ecx
	mov	DWORD PTR _threshold$[ebp], eax

; 599  :    Value::UInt value = 0;

	mov	DWORD PTR _value$[ebp], 0
$LN9@decodeNumb:

; 600  :    while ( current < token.end_ )

	mov	edx, DWORD PTR _token$[ebp]
	mov	eax, DWORD PTR _current$[ebp]
	cmp	eax, DWORD PTR [edx+8]
	jae	$LN8@decodeNumb

; 601  :    {
; 602  :       Char c = *current++;

	mov	ecx, DWORD PTR _current$[ebp]
	mov	dl, BYTE PTR [ecx]
	mov	BYTE PTR _c$7[ebp], dl
	mov	eax, DWORD PTR _current$[ebp]
	add	eax, 1
	mov	DWORD PTR _current$[ebp], eax

; 603  :       if ( c < '0'  ||  c > '9' )

	movsx	ecx, BYTE PTR _c$7[ebp]
	cmp	ecx, 48					; 00000030H
	jl	SHORT $LN6@decodeNumb
	movsx	edx, BYTE PTR _c$7[ebp]
	cmp	edx, 57					; 00000039H
	jle	$LN7@decodeNumb
$LN6@decodeNumb:

; 604  :          return addError( "'" + std::string( token.start_, token.end_ ) + "' is not a number.", token );

	push	0
	mov	eax, DWORD PTR _token$[ebp]
	push	eax
	push	OFFSET ??_C@_0BD@HHNBFDKF@?8?5is?5not?5a?5number?4?$AA@
	mov	ecx, DWORD PTR _token$[ebp]
	mov	edx, DWORD PTR [ecx+8]
	push	edx
	mov	eax, DWORD PTR _token$[ebp]
	mov	ecx, DWORD PTR [eax+4]
	push	ecx
	lea	ecx, DWORD PTR $T9[ebp]
	call	??0?$basic_string@DU?$char_traits@D@std@@V?$allocator@D@2@@std@@QAE@PBD0@Z ; std::basic_string<char,std::char_traits<char>,std::allocator<char> >::basic_string<char,std::char_traits<char>,std::allocator<char> >
	mov	DWORD PTR tv211[ebp], eax
	mov	edx, DWORD PTR tv211[ebp]
	mov	DWORD PTR tv203[ebp], edx
	mov	DWORD PTR __$EHRec$[ebp+8], 0
	mov	eax, DWORD PTR tv203[ebp]
	push	eax
	push	OFFSET ??_C@_01GEODFPGF@?8?$AA@
	lea	ecx, DWORD PTR $T8[ebp]
	push	ecx
	call	??$?HDU?$char_traits@D@std@@V?$allocator@D@1@@std@@YA?AV?$basic_string@DU?$char_traits@D@std@@V?$allocator@D@2@@0@PBD$$QAV10@@Z ; std::operator+<char,std::char_traits<char>,std::allocator<char> >
	add	esp, 12					; 0000000cH
	mov	DWORD PTR tv212[ebp], eax
	mov	edx, DWORD PTR tv212[ebp]
	mov	DWORD PTR tv205[ebp], edx
	mov	BYTE PTR __$EHRec$[ebp+8], 1
	mov	eax, DWORD PTR tv205[ebp]
	push	eax
	lea	ecx, DWORD PTR $T10[ebp]
	push	ecx
	call	??$?HDU?$char_traits@D@std@@V?$allocator@D@1@@std@@YA?AV?$basic_string@DU?$char_traits@D@std@@V?$allocator@D@2@@0@$$QAV10@PBD@Z ; std::operator+<char,std::char_traits<char>,std::allocator<char> >
	add	esp, 12					; 0000000cH
	mov	DWORD PTR tv213[ebp], eax
	mov	edx, DWORD PTR tv213[ebp]
	mov	DWORD PTR tv207[ebp], edx
	mov	BYTE PTR __$EHRec$[ebp+8], 2
	mov	eax, DWORD PTR tv207[ebp]
	push	eax
	mov	ecx, DWORD PTR _this$[ebp]
	call	?addError@Reader@Json@@AAE_NABV?$basic_string@DU?$char_traits@D@std@@V?$allocator@D@2@@std@@AAVToken@12@PBD@Z ; Json::Reader::addError
	mov	BYTE PTR $T6[ebp], al
	mov	BYTE PTR __$EHRec$[ebp+8], 1
	lea	ecx, DWORD PTR $T10[ebp]
	call	??1?$basic_string@DU?$char_traits@D@std@@V?$allocator@D@2@@std@@QAE@XZ ; std::basic_string<char,std::char_traits<char>,std::allocator<char> >::~basic_string<char,std::char_traits<char>,std::allocator<char> >
	mov	BYTE PTR __$EHRec$[ebp+8], 0
	lea	ecx, DWORD PTR $T8[ebp]
	call	??1?$basic_string@DU?$char_traits@D@std@@V?$allocator@D@2@@std@@QAE@XZ ; std::basic_string<char,std::char_traits<char>,std::allocator<char> >::~basic_string<char,std::char_traits<char>,std::allocator<char> >
	mov	DWORD PTR __$EHRec$[ebp+8], -1
	lea	ecx, DWORD PTR $T9[ebp]
	call	??1?$basic_string@DU?$char_traits@D@std@@V?$allocator@D@2@@std@@QAE@XZ ; std::basic_string<char,std::char_traits<char>,std::allocator<char> >::~basic_string<char,std::char_traits<char>,std::allocator<char> >
	mov	al, BYTE PTR $T6[ebp]
	jmp	$LN15@decodeNumb
$LN7@decodeNumb:

; 605  :       if ( value >= threshold )

	mov	ecx, DWORD PTR _value$[ebp]
	cmp	ecx, DWORD PTR _threshold$[ebp]
	jb	SHORT $LN5@decodeNumb

; 606  :          return decodeDouble( token );

	mov	edx, DWORD PTR _token$[ebp]
	push	edx
	mov	ecx, DWORD PTR _this$[ebp]
	call	?decodeDouble@Reader@Json@@AAE_NAAVToken@12@@Z ; Json::Reader::decodeDouble
	jmp	$LN15@decodeNumb
$LN5@decodeNumb:

; 607  :       value = value * 10 + Value::UInt(c - '0');

	imul	eax, DWORD PTR _value$[ebp], 10
	movsx	ecx, BYTE PTR _c$7[ebp]
	lea	edx, DWORD PTR [eax+ecx-48]
	mov	DWORD PTR _value$[ebp], edx

; 608  :    }

	jmp	$LN9@decodeNumb
$LN8@decodeNumb:

; 609  :    if ( isNegative )

	movzx	eax, BYTE PTR _isNegative$[ebp]
	test	eax, eax
	je	SHORT $LN4@decodeNumb

; 610  :       currentValue() = -Value::Int( value );

	mov	ecx, DWORD PTR _value$[ebp]
	neg	ecx
	push	ecx
	lea	ecx, DWORD PTR $T2[ebp]
	call	??0Value@Json@@QAE@H@Z			; Json::Value::Value
	mov	DWORD PTR __$EHRec$[ebp+8], 3
	lea	edx, DWORD PTR $T2[ebp]
	push	edx
	mov	ecx, DWORD PTR _this$[ebp]
	call	?currentValue@Reader@Json@@AAEAAVValue@2@XZ ; Json::Reader::currentValue
	mov	ecx, eax
	call	??4Value@Json@@QAEAAV01@ABV01@@Z	; Json::Value::operator=
	mov	DWORD PTR __$EHRec$[ebp+8], -1
	lea	ecx, DWORD PTR $T2[ebp]
	call	??1Value@Json@@QAE@XZ			; Json::Value::~Value
	jmp	$LN3@decodeNumb
$LN4@decodeNumb:

; 611  :    else if ( value <= Value::UInt(Value::maxInt) )

	mov	eax, DWORD PTR _value$[ebp]
	cmp	eax, DWORD PTR ?maxInt@Value@Json@@2HB	; Json::Value::maxInt
	ja	SHORT $LN2@decodeNumb

; 612  :       currentValue() = Value::Int( value );

	mov	ecx, DWORD PTR _value$[ebp]
	push	ecx
	lea	ecx, DWORD PTR $T4[ebp]
	call	??0Value@Json@@QAE@H@Z			; Json::Value::Value
	mov	DWORD PTR __$EHRec$[ebp+8], 4
	lea	edx, DWORD PTR $T4[ebp]
	push	edx
	mov	ecx, DWORD PTR _this$[ebp]
	call	?currentValue@Reader@Json@@AAEAAVValue@2@XZ ; Json::Reader::currentValue
	mov	ecx, eax
	call	??4Value@Json@@QAEAAV01@ABV01@@Z	; Json::Value::operator=
	mov	DWORD PTR __$EHRec$[ebp+8], -1
	lea	ecx, DWORD PTR $T4[ebp]
	call	??1Value@Json@@QAE@XZ			; Json::Value::~Value

; 613  :    else

	jmp	SHORT $LN3@decodeNumb
$LN2@decodeNumb:

; 614  :       currentValue() = value;

	mov	eax, DWORD PTR _value$[ebp]
	push	eax
	lea	ecx, DWORD PTR $T3[ebp]
	call	??0Value@Json@@QAE@I@Z			; Json::Value::Value
	mov	DWORD PTR __$EHRec$[ebp+8], 5
	lea	ecx, DWORD PTR $T3[ebp]
	push	ecx
	mov	ecx, DWORD PTR _this$[ebp]
	call	?currentValue@Reader@Json@@AAEAAVValue@2@XZ ; Json::Reader::currentValue
	mov	ecx, eax
	call	??4Value@Json@@QAEAAV01@ABV01@@Z	; Json::Value::operator=
	mov	DWORD PTR __$EHRec$[ebp+8], -1
	lea	ecx, DWORD PTR $T3[ebp]
	call	??1Value@Json@@QAE@XZ			; Json::Value::~Value
$LN3@decodeNumb:

; 615  :    return true;

	mov	al, 1
$LN15@decodeNumb:

; 616  : }

	mov	ecx, DWORD PTR __$EHRec$[ebp]
	mov	DWORD PTR fs:0, ecx
	pop	ecx
	mov	ecx, DWORD PTR __$ArrayPad$[ebp]
	xor	ecx, ebp
	call	@__security_check_cookie@4
	mov	esp, ebp
	pop	ebp
	ret	4
_TEXT	ENDS
;	COMDAT text$x
text$x	SEGMENT
__unwindfunclet$?decodeNumber@Reader@Json@@AAE_NAAVToken@12@@Z$0:
	lea	ecx, DWORD PTR $T9[ebp]
	jmp	??1?$basic_string@DU?$char_traits@D@std@@V?$allocator@D@2@@std@@QAE@XZ ; std::basic_string<char,std::char_traits<char>,std::allocator<char> >::~basic_string<char,std::char_traits<char>,std::allocator<char> >
__unwindfunclet$?decodeNumber@Reader@Json@@AAE_NAAVToken@12@@Z$1:
	lea	ecx, DWORD PTR $T8[ebp]
	jmp	??1?$basic_string@DU?$char_traits@D@std@@V?$allocator@D@2@@std@@QAE@XZ ; std::basic_string<char,std::char_traits<char>,std::allocator<char> >::~basic_string<char,std::char_traits<char>,std::allocator<char> >
__unwindfunclet$?decodeNumber@Reader@Json@@AAE_NAAVToken@12@@Z$2:
	lea	ecx, DWORD PTR $T10[ebp]
	jmp	??1?$basic_string@DU?$char_traits@D@std@@V?$allocator@D@2@@std@@QAE@XZ ; std::basic_string<char,std::char_traits<char>,std::allocator<char> >::~basic_string<char,std::char_traits<char>,std::allocator<char> >
__unwindfunclet$?decodeNumber@Reader@Json@@AAE_NAAVToken@12@@Z$3:
	lea	ecx, DWORD PTR $T2[ebp]
	jmp	??1Value@Json@@QAE@XZ			; Json::Value::~Value
__unwindfunclet$?decodeNumber@Reader@Json@@AAE_NAAVToken@12@@Z$4:
	lea	ecx, DWORD PTR $T4[ebp]
	jmp	??1Value@Json@@QAE@XZ			; Json::Value::~Value
__unwindfunclet$?decodeNumber@Reader@Json@@AAE_NAAVToken@12@@Z$5:
	lea	ecx, DWORD PTR $T3[ebp]
	jmp	??1Value@Json@@QAE@XZ			; Json::Value::~Value
__ehhandler$?decodeNumber@Reader@Json@@AAE_NAAVToken@12@@Z:
	mov	edx, DWORD PTR [esp+8]
	lea	eax, DWORD PTR [edx+12]
	mov	ecx, DWORD PTR [edx-192]
	xor	ecx, eax
	call	@__security_check_cookie@4
	mov	ecx, DWORD PTR [edx-4]
	xor	ecx, eax
	call	@__security_check_cookie@4
	mov	eax, OFFSET __ehfuncinfo$?decodeNumber@Reader@Json@@AAE_NAAVToken@12@@Z
	jmp	___CxxFrameHandler3
text$x	ENDS
?decodeNumber@Reader@Json@@AAE_NAAVToken@12@@Z ENDP	; Json::Reader::decodeNumber
; Function compile flags: /Odtp
; File h:\source\hg\client\code_core\jsoncpp-src-0.5.0\src\lib_json\json_reader.cpp
;	COMDAT ?readArray@Reader@Json@@AAE_NAAVToken@12@@Z
_TEXT	SEGMENT
_endArray$2 = -116					; size = 12
$T3 = -104						; size = 16
tv86 = -88						; size = 4
_value$4 = -84						; size = 4
tv160 = -80						; size = 4
tv162 = -76						; size = 4
_token$5 = -72						; size = 12
tv143 = -60						; size = 4
_index$ = -56						; size = 4
$T6 = -50						; size = 1
_badTokenType$7 = -49					; size = 1
_this$ = -48						; size = 4
_ok$8 = -41						; size = 1
$T9 = -40						; size = 24
__$ArrayPad$ = -16					; size = 4
__$EHRec$ = -12						; size = 12
_tokenStart$ = 8					; size = 4
?readArray@Reader@Json@@AAE_NAAVToken@12@@Z PROC	; Json::Reader::readArray, COMDAT
; _this$ = ecx

; 540  : {

	push	ebp
	mov	ebp, esp
	push	-1
	push	__ehhandler$?readArray@Reader@Json@@AAE_NAAVToken@12@@Z
	mov	eax, DWORD PTR fs:0
	push	eax
	sub	esp, 104				; 00000068H
	mov	eax, DWORD PTR ___security_cookie
	xor	eax, ebp
	mov	DWORD PTR __$ArrayPad$[ebp], eax
	push	eax
	lea	eax, DWORD PTR __$EHRec$[ebp]
	mov	DWORD PTR fs:0, eax
	mov	DWORD PTR _this$[ebp], ecx

; 541  :    currentValue() = Value( arrayValue );

	push	6
	lea	ecx, DWORD PTR $T3[ebp]
	call	??0Value@Json@@QAE@W4ValueType@1@@Z	; Json::Value::Value
	mov	DWORD PTR tv162[ebp], eax
	mov	eax, DWORD PTR tv162[ebp]
	mov	DWORD PTR tv160[ebp], eax
	mov	DWORD PTR __$EHRec$[ebp+8], 0
	mov	ecx, DWORD PTR tv160[ebp]
	push	ecx
	mov	ecx, DWORD PTR _this$[ebp]
	call	?currentValue@Reader@Json@@AAEAAVValue@2@XZ ; Json::Reader::currentValue
	mov	ecx, eax
	call	??4Value@Json@@QAEAAV01@ABV01@@Z	; Json::Value::operator=
	mov	DWORD PTR __$EHRec$[ebp+8], -1
	lea	ecx, DWORD PTR $T3[ebp]
	call	??1Value@Json@@QAE@XZ			; Json::Value::~Value

; 542  :    skipSpaces();

	mov	ecx, DWORD PTR _this$[ebp]
	call	?skipSpaces@Reader@Json@@AAEXXZ		; Json::Reader::skipSpaces

; 543  :    if ( *current_ == ']' ) // empty array

	mov	edx, DWORD PTR _this$[ebp]
	mov	eax, DWORD PTR [edx+72]
	movsx	ecx, BYTE PTR [eax]
	cmp	ecx, 93					; 0000005dH
	jne	SHORT $LN9@readArray

; 544  :    {
; 545  :       Token endArray;
; 546  :       readToken( endArray );

	lea	edx, DWORD PTR _endArray$2[ebp]
	push	edx
	mov	ecx, DWORD PTR _this$[ebp]
	call	?readToken@Reader@Json@@AAE_NAAVToken@12@@Z ; Json::Reader::readToken

; 547  :       return true;

	mov	al, 1
	jmp	$LN10@readArray
$LN9@readArray:

; 548  :    }
; 549  :    int index = 0;

	mov	DWORD PTR _index$[ebp], 0
$LN8@readArray:

; 550  :    while ( true )

	mov	eax, 1
	test	eax, eax
	je	$LN7@readArray

; 551  :    {
; 552  :       Value &value = currentValue()[ index++ ];

	mov	ecx, DWORD PTR _index$[ebp]
	mov	DWORD PTR tv86[ebp], ecx
	mov	edx, DWORD PTR tv86[ebp]
	push	edx
	mov	ecx, DWORD PTR _this$[ebp]
	call	?currentValue@Reader@Json@@AAEAAVValue@2@XZ ; Json::Reader::currentValue
	mov	ecx, eax
	call	??AValue@Json@@QAEAAV01@I@Z		; Json::Value::operator[]
	mov	DWORD PTR _value$4[ebp], eax
	mov	eax, DWORD PTR _index$[ebp]
	add	eax, 1
	mov	DWORD PTR _index$[ebp], eax

; 553  :       nodes_.push( &value );

	lea	ecx, DWORD PTR _value$4[ebp]
	push	ecx
	mov	ecx, DWORD PTR _this$[ebp]
	call	?push@?$stack@PAVValue@Json@@V?$deque@PAVValue@Json@@V?$allocator@PAVValue@Json@@@std@@@std@@@std@@QAEX$$QAPAVValue@Json@@@Z ; std::stack<Json::Value *,std::deque<Json::Value *,std::allocator<Json::Value *> > >::push

; 554  :       bool ok = readValue();

	mov	ecx, DWORD PTR _this$[ebp]
	call	?readValue@Reader@Json@@AAE_NXZ		; Json::Reader::readValue
	mov	BYTE PTR _ok$8[ebp], al

; 555  :       nodes_.pop();

	mov	ecx, DWORD PTR _this$[ebp]
	call	?pop@?$stack@PAVValue@Json@@V?$deque@PAVValue@Json@@V?$allocator@PAVValue@Json@@@std@@@std@@@std@@QAEXXZ ; std::stack<Json::Value *,std::deque<Json::Value *,std::allocator<Json::Value *> > >::pop

; 556  :       if ( !ok ) // error already set

	movzx	edx, BYTE PTR _ok$8[ebp]
	test	edx, edx
	jne	SHORT $LN6@readArray

; 557  :          return recoverFromError( tokenArrayEnd );

	push	4
	mov	ecx, DWORD PTR _this$[ebp]
	call	?recoverFromError@Reader@Json@@AAE_NW4TokenType@12@@Z ; Json::Reader::recoverFromError
	jmp	$LN10@readArray
$LN6@readArray:

; 558  : 
; 559  :       Token token;
; 560  :       // Accept Comment after last item in the array.
; 561  :       ok = readToken( token );

	lea	eax, DWORD PTR _token$5[ebp]
	push	eax
	mov	ecx, DWORD PTR _this$[ebp]
	call	?readToken@Reader@Json@@AAE_NAAVToken@12@@Z ; Json::Reader::readToken
	mov	BYTE PTR _ok$8[ebp], al
$LN5@readArray:

; 562  :       while ( token.type_ == tokenComment  &&  ok )

	cmp	DWORD PTR _token$5[ebp], 12		; 0000000cH
	jne	SHORT $LN4@readArray
	movzx	ecx, BYTE PTR _ok$8[ebp]
	test	ecx, ecx
	je	SHORT $LN4@readArray

; 563  :       {
; 564  :          ok = readToken( token );

	lea	edx, DWORD PTR _token$5[ebp]
	push	edx
	mov	ecx, DWORD PTR _this$[ebp]
	call	?readToken@Reader@Json@@AAE_NAAVToken@12@@Z ; Json::Reader::readToken
	mov	BYTE PTR _ok$8[ebp], al

; 565  :       }

	jmp	SHORT $LN5@readArray
$LN4@readArray:

; 566  :       bool badTokenType = ( token.type_ == tokenArraySeparator  &&  
; 567  :                             token.type_ == tokenArrayEnd );

	cmp	DWORD PTR _token$5[ebp], 10		; 0000000aH
	jne	SHORT $LN12@readArray
	cmp	DWORD PTR _token$5[ebp], 4
	jne	SHORT $LN12@readArray
	mov	DWORD PTR tv143[ebp], 1
	jmp	SHORT $LN13@readArray
$LN12@readArray:
	mov	DWORD PTR tv143[ebp], 0
$LN13@readArray:
	mov	al, BYTE PTR tv143[ebp]
	mov	BYTE PTR _badTokenType$7[ebp], al

; 568  :       if ( !ok  ||  badTokenType )

	movzx	ecx, BYTE PTR _ok$8[ebp]
	test	ecx, ecx
	je	SHORT $LN2@readArray
	movzx	edx, BYTE PTR _badTokenType$7[ebp]
	test	edx, edx
	je	SHORT $LN3@readArray
$LN2@readArray:

; 569  :       {
; 570  :          return addErrorAndRecover( "Missing ',' or ']' in array declaration", 
; 571  :                                     token, 
; 572  :                                     tokenArrayEnd );

	push	OFFSET ??_C@_0CI@DPCANLPO@Missing?5?8?0?8?5or?5?8?$FN?8?5in?5array?5decl@
	lea	ecx, DWORD PTR $T9[ebp]
	call	??0?$basic_string@DU?$char_traits@D@std@@V?$allocator@D@2@@std@@QAE@PBD@Z ; std::basic_string<char,std::char_traits<char>,std::allocator<char> >::basic_string<char,std::char_traits<char>,std::allocator<char> >
	mov	DWORD PTR __$EHRec$[ebp+8], 1
	push	4
	lea	eax, DWORD PTR _token$5[ebp]
	push	eax
	lea	ecx, DWORD PTR $T9[ebp]
	push	ecx
	mov	ecx, DWORD PTR _this$[ebp]
	call	?addErrorAndRecover@Reader@Json@@AAE_NABV?$basic_string@DU?$char_traits@D@std@@V?$allocator@D@2@@std@@AAVToken@12@W4TokenType@12@@Z ; Json::Reader::addErrorAndRecover
	mov	BYTE PTR $T6[ebp], al
	mov	DWORD PTR __$EHRec$[ebp+8], -1
	lea	ecx, DWORD PTR $T9[ebp]
	call	??1?$basic_string@DU?$char_traits@D@std@@V?$allocator@D@2@@std@@QAE@XZ ; std::basic_string<char,std::char_traits<char>,std::allocator<char> >::~basic_string<char,std::char_traits<char>,std::allocator<char> >
	mov	al, BYTE PTR $T6[ebp]
	jmp	SHORT $LN10@readArray
$LN3@readArray:

; 573  :       }
; 574  :       if ( token.type_ == tokenArrayEnd )

	cmp	DWORD PTR _token$5[ebp], 4
	jne	SHORT $LN1@readArray

; 575  :          break;

	jmp	SHORT $LN7@readArray
$LN1@readArray:

; 576  :    }

	jmp	$LN8@readArray
$LN7@readArray:

; 577  :    return true;

	mov	al, 1
$LN10@readArray:

; 578  : }

	mov	ecx, DWORD PTR __$EHRec$[ebp]
	mov	DWORD PTR fs:0, ecx
	pop	ecx
	mov	ecx, DWORD PTR __$ArrayPad$[ebp]
	xor	ecx, ebp
	call	@__security_check_cookie@4
	mov	esp, ebp
	pop	ebp
	ret	4
_TEXT	ENDS
;	COMDAT text$x
text$x	SEGMENT
__unwindfunclet$?readArray@Reader@Json@@AAE_NAAVToken@12@@Z$0:
	lea	ecx, DWORD PTR $T3[ebp]
	jmp	??1Value@Json@@QAE@XZ			; Json::Value::~Value
__unwindfunclet$?readArray@Reader@Json@@AAE_NAAVToken@12@@Z$1:
	lea	ecx, DWORD PTR $T9[ebp]
	jmp	??1?$basic_string@DU?$char_traits@D@std@@V?$allocator@D@2@@std@@QAE@XZ ; std::basic_string<char,std::char_traits<char>,std::allocator<char> >::~basic_string<char,std::char_traits<char>,std::allocator<char> >
__ehhandler$?readArray@Reader@Json@@AAE_NAAVToken@12@@Z:
	mov	edx, DWORD PTR [esp+8]
	lea	eax, DWORD PTR [edx+12]
	mov	ecx, DWORD PTR [edx-108]
	xor	ecx, eax
	call	@__security_check_cookie@4
	mov	ecx, DWORD PTR [edx-4]
	xor	ecx, eax
	call	@__security_check_cookie@4
	mov	eax, OFFSET __ehfuncinfo$?readArray@Reader@Json@@AAE_NAAVToken@12@@Z
	jmp	___CxxFrameHandler3
text$x	ENDS
?readArray@Reader@Json@@AAE_NAAVToken@12@@Z ENDP	; Json::Reader::readArray
; Function compile flags: /Odtp
; File h:\source\hg\client\code_core\jsoncpp-src-0.5.0\src\lib_json\json_reader.cpp
;	COMDAT ?readObject@Reader@Json@@AAE_NAAVToken@12@@Z
_TEXT	SEGMENT
$T2 = -192						; size = 16
_colon$3 = -176						; size = 12
tv205 = -164						; size = 4
tv65 = -160						; size = 4
_value$4 = -156						; size = 4
_tokenName$ = -152					; size = 12
_comma$5 = -140						; size = 12
$T6 = -126						; size = 1
$T7 = -125						; size = 1
$T8 = -124						; size = 1
$T9 = -123						; size = 1
$T10 = -122						; size = 1
$T11 = -121						; size = 1
$T12 = -120						; size = 1
_ok$13 = -119						; size = 1
_finalizeTokenOk$14 = -118				; size = 1
_initialTokenOk$15 = -117				; size = 1
_this$ = -116						; size = 4
$T16 = -112						; size = 24
$T17 = -88						; size = 24
$T18 = -64						; size = 24
_name$ = -40						; size = 24
__$ArrayPad$ = -16					; size = 4
__$EHRec$ = -12						; size = 12
_tokenStart$ = 8					; size = 4
?readObject@Reader@Json@@AAE_NAAVToken@12@@Z PROC	; Json::Reader::readObject, COMDAT
; _this$ = ecx

; 481  : {

	push	ebp
	mov	ebp, esp
	push	-1
	push	__ehhandler$?readObject@Reader@Json@@AAE_NAAVToken@12@@Z
	mov	eax, DWORD PTR fs:0
	push	eax
	sub	esp, 180				; 000000b4H
	mov	eax, DWORD PTR ___security_cookie
	xor	eax, ebp
	mov	DWORD PTR __$ArrayPad$[ebp], eax
	push	eax
	lea	eax, DWORD PTR __$EHRec$[ebp]
	mov	DWORD PTR fs:0, eax
	mov	DWORD PTR _this$[ebp], ecx

; 482  :    Token tokenName;
; 483  :    std::string name;

	lea	ecx, DWORD PTR _name$[ebp]
	call	??0?$basic_string@DU?$char_traits@D@std@@V?$allocator@D@2@@std@@QAE@XZ ; std::basic_string<char,std::char_traits<char>,std::allocator<char> >::basic_string<char,std::char_traits<char>,std::allocator<char> >
	mov	DWORD PTR __$EHRec$[ebp+8], 0

; 484  :    currentValue() = Value( objectValue );

	push	7
	lea	ecx, DWORD PTR $T2[ebp]
	call	??0Value@Json@@QAE@W4ValueType@1@@Z	; Json::Value::Value
	mov	DWORD PTR tv65[ebp], eax
	mov	eax, DWORD PTR tv65[ebp]
	mov	DWORD PTR tv205[ebp], eax
	mov	BYTE PTR __$EHRec$[ebp+8], 1
	mov	ecx, DWORD PTR tv205[ebp]
	push	ecx
	mov	ecx, DWORD PTR _this$[ebp]
	call	?currentValue@Reader@Json@@AAEAAVValue@2@XZ ; Json::Reader::currentValue
	mov	ecx, eax
	call	??4Value@Json@@QAEAAV01@ABV01@@Z	; Json::Value::operator=
	mov	BYTE PTR __$EHRec$[ebp+8], 0
	lea	ecx, DWORD PTR $T2[ebp]
	call	??1Value@Json@@QAE@XZ			; Json::Value::~Value
$LN16@readObject:

; 485  :    while ( readToken( tokenName ) )

	lea	edx, DWORD PTR _tokenName$[ebp]
	push	edx
	mov	ecx, DWORD PTR _this$[ebp]
	call	?readToken@Reader@Json@@AAE_NAAVToken@12@@Z ; Json::Reader::readToken
	movzx	eax, al
	test	eax, eax
	je	$LN15@readObject

; 486  :    {
; 487  :       bool initialTokenOk = true;

	mov	BYTE PTR _initialTokenOk$15[ebp], 1
$LN14@readObject:

; 488  :       while ( tokenName.type_ == tokenComment  &&  initialTokenOk )

	cmp	DWORD PTR _tokenName$[ebp], 12		; 0000000cH
	jne	SHORT $LN13@readObject
	movzx	ecx, BYTE PTR _initialTokenOk$15[ebp]
	test	ecx, ecx
	je	SHORT $LN13@readObject

; 489  :          initialTokenOk = readToken( tokenName );

	lea	edx, DWORD PTR _tokenName$[ebp]
	push	edx
	mov	ecx, DWORD PTR _this$[ebp]
	call	?readToken@Reader@Json@@AAE_NAAVToken@12@@Z ; Json::Reader::readToken
	mov	BYTE PTR _initialTokenOk$15[ebp], al
	jmp	SHORT $LN14@readObject
$LN13@readObject:

; 490  :       if  ( !initialTokenOk )

	movzx	eax, BYTE PTR _initialTokenOk$15[ebp]
	test	eax, eax
	jne	SHORT $LN12@readObject

; 491  :          break;

	jmp	$LN15@readObject
$LN12@readObject:

; 492  :       if ( tokenName.type_ == tokenObjectEnd  &&  name.empty() )  // empty object

	cmp	DWORD PTR _tokenName$[ebp], 2
	jne	SHORT $LN11@readObject
	lea	ecx, DWORD PTR _name$[ebp]
	call	?empty@?$basic_string@DU?$char_traits@D@std@@V?$allocator@D@2@@std@@QBE_NXZ ; std::basic_string<char,std::char_traits<char>,std::allocator<char> >::empty
	movzx	ecx, al
	test	ecx, ecx
	je	SHORT $LN11@readObject

; 493  :          return true;

	mov	BYTE PTR $T6[ebp], 1
	mov	DWORD PTR __$EHRec$[ebp+8], -1
	lea	ecx, DWORD PTR _name$[ebp]
	call	??1?$basic_string@DU?$char_traits@D@std@@V?$allocator@D@2@@std@@QAE@XZ ; std::basic_string<char,std::char_traits<char>,std::allocator<char> >::~basic_string<char,std::char_traits<char>,std::allocator<char> >
	mov	al, BYTE PTR $T6[ebp]
	jmp	$LN17@readObject
$LN11@readObject:

; 494  :       if ( tokenName.type_ != tokenString )

	cmp	DWORD PTR _tokenName$[ebp], 5
	je	SHORT $LN10@readObject

; 495  :          break;

	jmp	$LN15@readObject
$LN10@readObject:

; 496  :       
; 497  :       name = "";

	push	OFFSET ??_C@_00CNPNBAHC@?$AA@
	lea	ecx, DWORD PTR _name$[ebp]
	call	??4?$basic_string@DU?$char_traits@D@std@@V?$allocator@D@2@@std@@QAEAAV01@PBD@Z ; std::basic_string<char,std::char_traits<char>,std::allocator<char> >::operator=

; 498  :       if ( !decodeString( tokenName, name ) )

	lea	edx, DWORD PTR _name$[ebp]
	push	edx
	lea	eax, DWORD PTR _tokenName$[ebp]
	push	eax
	mov	ecx, DWORD PTR _this$[ebp]
	call	?decodeString@Reader@Json@@AAE_NAAVToken@12@AAV?$basic_string@DU?$char_traits@D@std@@V?$allocator@D@2@@std@@@Z ; Json::Reader::decodeString
	movzx	ecx, al
	test	ecx, ecx
	jne	SHORT $LN9@readObject

; 499  :          return recoverFromError( tokenObjectEnd );

	push	2
	mov	ecx, DWORD PTR _this$[ebp]
	call	?recoverFromError@Reader@Json@@AAE_NW4TokenType@12@@Z ; Json::Reader::recoverFromError
	mov	BYTE PTR $T11[ebp], al
	mov	DWORD PTR __$EHRec$[ebp+8], -1
	lea	ecx, DWORD PTR _name$[ebp]
	call	??1?$basic_string@DU?$char_traits@D@std@@V?$allocator@D@2@@std@@QAE@XZ ; std::basic_string<char,std::char_traits<char>,std::allocator<char> >::~basic_string<char,std::char_traits<char>,std::allocator<char> >
	mov	al, BYTE PTR $T11[ebp]
	jmp	$LN17@readObject
$LN9@readObject:

; 500  : 
; 501  :       Token colon;
; 502  :       if ( !readToken( colon ) ||  colon.type_ != tokenMemberSeparator )

	lea	edx, DWORD PTR _colon$3[ebp]
	push	edx
	mov	ecx, DWORD PTR _this$[ebp]
	call	?readToken@Reader@Json@@AAE_NAAVToken@12@@Z ; Json::Reader::readToken
	movzx	eax, al
	test	eax, eax
	je	SHORT $LN7@readObject
	cmp	DWORD PTR _colon$3[ebp], 11		; 0000000bH
	je	SHORT $LN8@readObject
$LN7@readObject:

; 503  :       {
; 504  :          return addErrorAndRecover( "Missing ':' after object member name", 
; 505  :                                     colon, 
; 506  :                                     tokenObjectEnd );

	push	OFFSET ??_C@_0CF@GCCDMCPH@Missing?5?8?3?8?5after?5object?5member?5@
	lea	ecx, DWORD PTR $T18[ebp]
	call	??0?$basic_string@DU?$char_traits@D@std@@V?$allocator@D@2@@std@@QAE@PBD@Z ; std::basic_string<char,std::char_traits<char>,std::allocator<char> >::basic_string<char,std::char_traits<char>,std::allocator<char> >
	mov	BYTE PTR __$EHRec$[ebp+8], 2
	push	2
	lea	ecx, DWORD PTR _colon$3[ebp]
	push	ecx
	lea	edx, DWORD PTR $T18[ebp]
	push	edx
	mov	ecx, DWORD PTR _this$[ebp]
	call	?addErrorAndRecover@Reader@Json@@AAE_NABV?$basic_string@DU?$char_traits@D@std@@V?$allocator@D@2@@std@@AAVToken@12@W4TokenType@12@@Z ; Json::Reader::addErrorAndRecover
	mov	BYTE PTR $T9[ebp], al
	mov	BYTE PTR __$EHRec$[ebp+8], 0
	lea	ecx, DWORD PTR $T18[ebp]
	call	??1?$basic_string@DU?$char_traits@D@std@@V?$allocator@D@2@@std@@QAE@XZ ; std::basic_string<char,std::char_traits<char>,std::allocator<char> >::~basic_string<char,std::char_traits<char>,std::allocator<char> >
	mov	DWORD PTR __$EHRec$[ebp+8], -1
	lea	ecx, DWORD PTR _name$[ebp]
	call	??1?$basic_string@DU?$char_traits@D@std@@V?$allocator@D@2@@std@@QAE@XZ ; std::basic_string<char,std::char_traits<char>,std::allocator<char> >::~basic_string<char,std::char_traits<char>,std::allocator<char> >
	mov	al, BYTE PTR $T9[ebp]
	jmp	$LN17@readObject
$LN8@readObject:

; 507  :       }
; 508  :       Value &value = currentValue()[ name ];

	lea	eax, DWORD PTR _name$[ebp]
	push	eax
	mov	ecx, DWORD PTR _this$[ebp]
	call	?currentValue@Reader@Json@@AAEAAVValue@2@XZ ; Json::Reader::currentValue
	mov	ecx, eax
	call	??AValue@Json@@QAEAAV01@ABV?$basic_string@DU?$char_traits@D@std@@V?$allocator@D@2@@std@@@Z ; Json::Value::operator[]
	mov	DWORD PTR _value$4[ebp], eax

; 509  :       nodes_.push( &value );

	lea	ecx, DWORD PTR _value$4[ebp]
	push	ecx
	mov	ecx, DWORD PTR _this$[ebp]
	call	?push@?$stack@PAVValue@Json@@V?$deque@PAVValue@Json@@V?$allocator@PAVValue@Json@@@std@@@std@@@std@@QAEX$$QAPAVValue@Json@@@Z ; std::stack<Json::Value *,std::deque<Json::Value *,std::allocator<Json::Value *> > >::push

; 510  :       bool ok = readValue();

	mov	ecx, DWORD PTR _this$[ebp]
	call	?readValue@Reader@Json@@AAE_NXZ		; Json::Reader::readValue
	mov	BYTE PTR _ok$13[ebp], al

; 511  :       nodes_.pop();

	mov	ecx, DWORD PTR _this$[ebp]
	call	?pop@?$stack@PAVValue@Json@@V?$deque@PAVValue@Json@@V?$allocator@PAVValue@Json@@@std@@@std@@@std@@QAEXXZ ; std::stack<Json::Value *,std::deque<Json::Value *,std::allocator<Json::Value *> > >::pop

; 512  :       if ( !ok ) // error already set

	movzx	edx, BYTE PTR _ok$13[ebp]
	test	edx, edx
	jne	SHORT $LN6@readObject

; 513  :          return recoverFromError( tokenObjectEnd );

	push	2
	mov	ecx, DWORD PTR _this$[ebp]
	call	?recoverFromError@Reader@Json@@AAE_NW4TokenType@12@@Z ; Json::Reader::recoverFromError
	mov	BYTE PTR $T12[ebp], al
	mov	DWORD PTR __$EHRec$[ebp+8], -1
	lea	ecx, DWORD PTR _name$[ebp]
	call	??1?$basic_string@DU?$char_traits@D@std@@V?$allocator@D@2@@std@@QAE@XZ ; std::basic_string<char,std::char_traits<char>,std::allocator<char> >::~basic_string<char,std::char_traits<char>,std::allocator<char> >
	mov	al, BYTE PTR $T12[ebp]
	jmp	$LN17@readObject
$LN6@readObject:

; 514  : 
; 515  :       Token comma;
; 516  :       if ( !readToken( comma )
; 517  :             ||  ( comma.type_ != tokenObjectEnd  &&  
; 518  :                   comma.type_ != tokenArraySeparator &&
; 519  : 		  comma.type_ != tokenComment ) )

	lea	eax, DWORD PTR _comma$5[ebp]
	push	eax
	mov	ecx, DWORD PTR _this$[ebp]
	call	?readToken@Reader@Json@@AAE_NAAVToken@12@@Z ; Json::Reader::readToken
	movzx	ecx, al
	test	ecx, ecx
	je	SHORT $LN4@readObject
	cmp	DWORD PTR _comma$5[ebp], 2
	je	SHORT $LN5@readObject
	cmp	DWORD PTR _comma$5[ebp], 10		; 0000000aH
	je	SHORT $LN5@readObject
	cmp	DWORD PTR _comma$5[ebp], 12		; 0000000cH
	je	SHORT $LN5@readObject
$LN4@readObject:

; 520  :       {
; 521  :          return addErrorAndRecover( "Missing ',' or '}' in object declaration", 
; 522  :                                     comma, 
; 523  :                                     tokenObjectEnd );

	push	OFFSET ??_C@_0CJ@NGKOAFKA@Missing?5?8?0?8?5or?5?8?$HN?8?5in?5object?5dec@
	lea	ecx, DWORD PTR $T16[ebp]
	call	??0?$basic_string@DU?$char_traits@D@std@@V?$allocator@D@2@@std@@QAE@PBD@Z ; std::basic_string<char,std::char_traits<char>,std::allocator<char> >::basic_string<char,std::char_traits<char>,std::allocator<char> >
	mov	BYTE PTR __$EHRec$[ebp+8], 3
	push	2
	lea	edx, DWORD PTR _comma$5[ebp]
	push	edx
	lea	eax, DWORD PTR $T16[ebp]
	push	eax
	mov	ecx, DWORD PTR _this$[ebp]
	call	?addErrorAndRecover@Reader@Json@@AAE_NABV?$basic_string@DU?$char_traits@D@std@@V?$allocator@D@2@@std@@AAVToken@12@W4TokenType@12@@Z ; Json::Reader::addErrorAndRecover
	mov	BYTE PTR $T8[ebp], al
	mov	BYTE PTR __$EHRec$[ebp+8], 0
	lea	ecx, DWORD PTR $T16[ebp]
	call	??1?$basic_string@DU?$char_traits@D@std@@V?$allocator@D@2@@std@@QAE@XZ ; std::basic_string<char,std::char_traits<char>,std::allocator<char> >::~basic_string<char,std::char_traits<char>,std::allocator<char> >
	mov	DWORD PTR __$EHRec$[ebp+8], -1
	lea	ecx, DWORD PTR _name$[ebp]
	call	??1?$basic_string@DU?$char_traits@D@std@@V?$allocator@D@2@@std@@QAE@XZ ; std::basic_string<char,std::char_traits<char>,std::allocator<char> >::~basic_string<char,std::char_traits<char>,std::allocator<char> >
	mov	al, BYTE PTR $T8[ebp]
	jmp	$LN17@readObject
$LN5@readObject:

; 524  :       }
; 525  :       bool finalizeTokenOk = true;

	mov	BYTE PTR _finalizeTokenOk$14[ebp], 1
$LN3@readObject:

; 526  :       while ( comma.type_ == tokenComment &&
; 527  :               finalizeTokenOk )

	cmp	DWORD PTR _comma$5[ebp], 12		; 0000000cH
	jne	SHORT $LN2@readObject
	movzx	ecx, BYTE PTR _finalizeTokenOk$14[ebp]
	test	ecx, ecx
	je	SHORT $LN2@readObject

; 528  :          finalizeTokenOk = readToken( comma );

	lea	edx, DWORD PTR _comma$5[ebp]
	push	edx
	mov	ecx, DWORD PTR _this$[ebp]
	call	?readToken@Reader@Json@@AAE_NAAVToken@12@@Z ; Json::Reader::readToken
	mov	BYTE PTR _finalizeTokenOk$14[ebp], al
	jmp	SHORT $LN3@readObject
$LN2@readObject:

; 529  :       if ( comma.type_ == tokenObjectEnd )

	cmp	DWORD PTR _comma$5[ebp], 2
	jne	SHORT $LN1@readObject

; 530  :          return true;

	mov	BYTE PTR $T10[ebp], 1
	mov	DWORD PTR __$EHRec$[ebp+8], -1
	lea	ecx, DWORD PTR _name$[ebp]
	call	??1?$basic_string@DU?$char_traits@D@std@@V?$allocator@D@2@@std@@QAE@XZ ; std::basic_string<char,std::char_traits<char>,std::allocator<char> >::~basic_string<char,std::char_traits<char>,std::allocator<char> >
	mov	al, BYTE PTR $T10[ebp]
	jmp	SHORT $LN17@readObject
$LN1@readObject:

; 531  :    }

	jmp	$LN16@readObject
$LN15@readObject:

; 532  :    return addErrorAndRecover( "Missing '}' or object member name", 
; 533  :                               tokenName, 
; 534  :                               tokenObjectEnd );

	push	OFFSET ??_C@_0CC@JNCGHFHN@Missing?5?8?$HN?8?5or?5object?5member?5nam@
	lea	ecx, DWORD PTR $T17[ebp]
	call	??0?$basic_string@DU?$char_traits@D@std@@V?$allocator@D@2@@std@@QAE@PBD@Z ; std::basic_string<char,std::char_traits<char>,std::allocator<char> >::basic_string<char,std::char_traits<char>,std::allocator<char> >
	mov	BYTE PTR __$EHRec$[ebp+8], 4
	push	2
	lea	eax, DWORD PTR _tokenName$[ebp]
	push	eax
	lea	ecx, DWORD PTR $T17[ebp]
	push	ecx
	mov	ecx, DWORD PTR _this$[ebp]
	call	?addErrorAndRecover@Reader@Json@@AAE_NABV?$basic_string@DU?$char_traits@D@std@@V?$allocator@D@2@@std@@AAVToken@12@W4TokenType@12@@Z ; Json::Reader::addErrorAndRecover
	mov	BYTE PTR $T7[ebp], al
	mov	BYTE PTR __$EHRec$[ebp+8], 0
	lea	ecx, DWORD PTR $T17[ebp]
	call	??1?$basic_string@DU?$char_traits@D@std@@V?$allocator@D@2@@std@@QAE@XZ ; std::basic_string<char,std::char_traits<char>,std::allocator<char> >::~basic_string<char,std::char_traits<char>,std::allocator<char> >
	mov	DWORD PTR __$EHRec$[ebp+8], -1
	lea	ecx, DWORD PTR _name$[ebp]
	call	??1?$basic_string@DU?$char_traits@D@std@@V?$allocator@D@2@@std@@QAE@XZ ; std::basic_string<char,std::char_traits<char>,std::allocator<char> >::~basic_string<char,std::char_traits<char>,std::allocator<char> >
	mov	al, BYTE PTR $T7[ebp]
$LN17@readObject:

; 535  : }

	mov	ecx, DWORD PTR __$EHRec$[ebp]
	mov	DWORD PTR fs:0, ecx
	pop	ecx
	mov	ecx, DWORD PTR __$ArrayPad$[ebp]
	xor	ecx, ebp
	call	@__security_check_cookie@4
	mov	esp, ebp
	pop	ebp
	ret	4
_TEXT	ENDS
;	COMDAT text$x
text$x	SEGMENT
__unwindfunclet$?readObject@Reader@Json@@AAE_NAAVToken@12@@Z$0:
	lea	ecx, DWORD PTR _name$[ebp]
	jmp	??1?$basic_string@DU?$char_traits@D@std@@V?$allocator@D@2@@std@@QAE@XZ ; std::basic_string<char,std::char_traits<char>,std::allocator<char> >::~basic_string<char,std::char_traits<char>,std::allocator<char> >
__unwindfunclet$?readObject@Reader@Json@@AAE_NAAVToken@12@@Z$1:
	lea	ecx, DWORD PTR $T2[ebp]
	jmp	??1Value@Json@@QAE@XZ			; Json::Value::~Value
__unwindfunclet$?readObject@Reader@Json@@AAE_NAAVToken@12@@Z$2:
	lea	ecx, DWORD PTR $T18[ebp]
	jmp	??1?$basic_string@DU?$char_traits@D@std@@V?$allocator@D@2@@std@@QAE@XZ ; std::basic_string<char,std::char_traits<char>,std::allocator<char> >::~basic_string<char,std::char_traits<char>,std::allocator<char> >
__unwindfunclet$?readObject@Reader@Json@@AAE_NAAVToken@12@@Z$3:
	lea	ecx, DWORD PTR $T16[ebp]
	jmp	??1?$basic_string@DU?$char_traits@D@std@@V?$allocator@D@2@@std@@QAE@XZ ; std::basic_string<char,std::char_traits<char>,std::allocator<char> >::~basic_string<char,std::char_traits<char>,std::allocator<char> >
__unwindfunclet$?readObject@Reader@Json@@AAE_NAAVToken@12@@Z$4:
	lea	ecx, DWORD PTR $T17[ebp]
	jmp	??1?$basic_string@DU?$char_traits@D@std@@V?$allocator@D@2@@std@@QAE@XZ ; std::basic_string<char,std::char_traits<char>,std::allocator<char> >::~basic_string<char,std::char_traits<char>,std::allocator<char> >
__ehhandler$?readObject@Reader@Json@@AAE_NAAVToken@12@@Z:
	mov	edx, DWORD PTR [esp+8]
	lea	eax, DWORD PTR [edx+12]
	mov	ecx, DWORD PTR [edx-184]
	xor	ecx, eax
	call	@__security_check_cookie@4
	mov	ecx, DWORD PTR [edx-4]
	xor	ecx, eax
	call	@__security_check_cookie@4
	mov	eax, OFFSET __ehfuncinfo$?readObject@Reader@Json@@AAE_NAAVToken@12@@Z
	jmp	___CxxFrameHandler3
text$x	ENDS
?readObject@Reader@Json@@AAE_NAAVToken@12@@Z ENDP	; Json::Reader::readObject
; Function compile flags: /Odtp
; File h:\source\hg\client\code_core\jsoncpp-src-0.5.0\src\lib_json\json_reader.cpp
;	COMDAT ?readValue@Reader@Json@@AAE_NXZ
_TEXT	SEGMENT
$T2 = -124						; size = 16
$T3 = -108						; size = 16
$T4 = -92						; size = 16
tv141 = -76						; size = 4
tv175 = -72						; size = 4
_token$ = -68						; size = 12
tv82 = -56						; size = 4
$T5 = -49						; size = 1
_this$ = -48						; size = 4
_successful$ = -41					; size = 1
$T6 = -40						; size = 24
__$ArrayPad$ = -16					; size = 4
__$EHRec$ = -12						; size = 12
?readValue@Reader@Json@@AAE_NXZ PROC			; Json::Reader::readValue, COMDAT
; _this$ = ecx

; 196  : {

	push	ebp
	mov	ebp, esp
	push	-1
	push	__ehhandler$?readValue@Reader@Json@@AAE_NXZ
	mov	eax, DWORD PTR fs:0
	push	eax
	sub	esp, 112				; 00000070H
	mov	eax, DWORD PTR ___security_cookie
	xor	eax, ebp
	mov	DWORD PTR __$ArrayPad$[ebp], eax
	push	eax
	lea	eax, DWORD PTR __$EHRec$[ebp]
	mov	DWORD PTR fs:0, eax
	mov	DWORD PTR _this$[ebp], ecx

; 197  :    Token token;
; 198  :    skipCommentTokens( token );

	lea	eax, DWORD PTR _token$[ebp]
	push	eax
	mov	ecx, DWORD PTR _this$[ebp]
	call	?skipCommentTokens@Reader@Json@@AAEXAAVToken@12@@Z ; Json::Reader::skipCommentTokens

; 199  :    bool successful = true;

	mov	BYTE PTR _successful$[ebp], 1

; 200  : 
; 201  :    if ( collectComments_  &&  !commentsBefore_.empty() )

	mov	ecx, DWORD PTR _this$[ebp]
	movzx	edx, BYTE PTR [ecx+110]
	test	edx, edx
	je	SHORT $LN12@readValue
	mov	ecx, DWORD PTR _this$[ebp]
	add	ecx, 84					; 00000054H
	call	?empty@?$basic_string@DU?$char_traits@D@std@@V?$allocator@D@2@@std@@QBE_NXZ ; std::basic_string<char,std::char_traits<char>,std::allocator<char> >::empty
	movzx	eax, al
	test	eax, eax
	jne	SHORT $LN12@readValue

; 202  :    {
; 203  :       currentValue().setComment( commentsBefore_, commentBefore );

	push	0
	mov	ecx, DWORD PTR _this$[ebp]
	add	ecx, 84					; 00000054H
	push	ecx
	mov	ecx, DWORD PTR _this$[ebp]
	call	?currentValue@Reader@Json@@AAEAAVValue@2@XZ ; Json::Reader::currentValue
	mov	ecx, eax
	call	?setComment@Value@Json@@QAEXABV?$basic_string@DU?$char_traits@D@std@@V?$allocator@D@2@@std@@W4CommentPlacement@2@@Z ; Json::Value::setComment

; 204  :       commentsBefore_ = "";

	push	OFFSET ??_C@_00CNPNBAHC@?$AA@
	mov	ecx, DWORD PTR _this$[ebp]
	add	ecx, 84					; 00000054H
	call	??4?$basic_string@DU?$char_traits@D@std@@V?$allocator@D@2@@std@@QAEAAV01@PBD@Z ; std::basic_string<char,std::char_traits<char>,std::allocator<char> >::operator=
$LN12@readValue:

; 205  :    }
; 206  : 
; 207  : 
; 208  :    switch ( token.type_ )

	mov	edx, DWORD PTR _token$[ebp]
	mov	DWORD PTR tv82[ebp], edx
	mov	eax, DWORD PTR tv82[ebp]
	sub	eax, 1
	mov	DWORD PTR tv82[ebp], eax
	cmp	DWORD PTR tv82[ebp], 8
	ja	$LN2@readValue
	mov	ecx, DWORD PTR tv82[ebp]
	jmp	DWORD PTR $LN20@readValue[ecx*4]
$LN9@readValue:

; 209  :    {
; 210  :    case tokenObjectBegin:
; 211  :       successful = readObject( token );

	lea	edx, DWORD PTR _token$[ebp]
	push	edx
	mov	ecx, DWORD PTR _this$[ebp]
	call	?readObject@Reader@Json@@AAE_NAAVToken@12@@Z ; Json::Reader::readObject
	mov	BYTE PTR _successful$[ebp], al

; 212  :       break;

	jmp	$LN10@readValue
$LN8@readValue:

; 213  :    case tokenArrayBegin:
; 214  :       successful = readArray( token );

	lea	eax, DWORD PTR _token$[ebp]
	push	eax
	mov	ecx, DWORD PTR _this$[ebp]
	call	?readArray@Reader@Json@@AAE_NAAVToken@12@@Z ; Json::Reader::readArray
	mov	BYTE PTR _successful$[ebp], al

; 215  :       break;

	jmp	$LN10@readValue
$LN7@readValue:

; 216  :    case tokenNumber:
; 217  :       successful = decodeNumber( token );

	lea	ecx, DWORD PTR _token$[ebp]
	push	ecx
	mov	ecx, DWORD PTR _this$[ebp]
	call	?decodeNumber@Reader@Json@@AAE_NAAVToken@12@@Z ; Json::Reader::decodeNumber
	mov	BYTE PTR _successful$[ebp], al

; 218  :       break;

	jmp	$LN10@readValue
$LN6@readValue:

; 219  :    case tokenString:
; 220  :       successful = decodeString( token );

	lea	edx, DWORD PTR _token$[ebp]
	push	edx
	mov	ecx, DWORD PTR _this$[ebp]
	call	?decodeString@Reader@Json@@AAE_NAAVToken@12@@Z ; Json::Reader::decodeString
	mov	BYTE PTR _successful$[ebp], al

; 221  :       break;

	jmp	$LN10@readValue
$LN5@readValue:

; 222  :    case tokenTrue:
; 223  :       currentValue() = true;

	push	1
	lea	ecx, DWORD PTR $T3[ebp]
	call	??0Value@Json@@QAE@_N@Z			; Json::Value::Value
	mov	DWORD PTR __$EHRec$[ebp+8], 0
	lea	eax, DWORD PTR $T3[ebp]
	push	eax
	mov	ecx, DWORD PTR _this$[ebp]
	call	?currentValue@Reader@Json@@AAEAAVValue@2@XZ ; Json::Reader::currentValue
	mov	ecx, eax
	call	??4Value@Json@@QAEAAV01@ABV01@@Z	; Json::Value::operator=
	mov	DWORD PTR __$EHRec$[ebp+8], -1
	lea	ecx, DWORD PTR $T3[ebp]
	call	??1Value@Json@@QAE@XZ			; Json::Value::~Value

; 224  :       break;

	jmp	$LN10@readValue
$LN4@readValue:

; 225  :    case tokenFalse:
; 226  :       currentValue() = false;

	push	0
	lea	ecx, DWORD PTR $T4[ebp]
	call	??0Value@Json@@QAE@_N@Z			; Json::Value::Value
	mov	DWORD PTR __$EHRec$[ebp+8], 1
	lea	ecx, DWORD PTR $T4[ebp]
	push	ecx
	mov	ecx, DWORD PTR _this$[ebp]
	call	?currentValue@Reader@Json@@AAEAAVValue@2@XZ ; Json::Reader::currentValue
	mov	ecx, eax
	call	??4Value@Json@@QAEAAV01@ABV01@@Z	; Json::Value::operator=
	mov	DWORD PTR __$EHRec$[ebp+8], -1
	lea	ecx, DWORD PTR $T4[ebp]
	call	??1Value@Json@@QAE@XZ			; Json::Value::~Value

; 227  :       break;

	jmp	SHORT $LN10@readValue
$LN3@readValue:

; 228  :    case tokenNull:
; 229  :       currentValue() = Value();

	push	0
	lea	ecx, DWORD PTR $T2[ebp]
	call	??0Value@Json@@QAE@W4ValueType@1@@Z	; Json::Value::Value
	mov	DWORD PTR tv141[ebp], eax
	mov	edx, DWORD PTR tv141[ebp]
	mov	DWORD PTR tv175[ebp], edx
	mov	DWORD PTR __$EHRec$[ebp+8], 2
	mov	eax, DWORD PTR tv175[ebp]
	push	eax
	mov	ecx, DWORD PTR _this$[ebp]
	call	?currentValue@Reader@Json@@AAEAAVValue@2@XZ ; Json::Reader::currentValue
	mov	ecx, eax
	call	??4Value@Json@@QAEAAV01@ABV01@@Z	; Json::Value::operator=
	mov	DWORD PTR __$EHRec$[ebp+8], -1
	lea	ecx, DWORD PTR $T2[ebp]
	call	??1Value@Json@@QAE@XZ			; Json::Value::~Value

; 230  :       break;

	jmp	SHORT $LN10@readValue
$LN2@readValue:

; 231  :    default:
; 232  :       return addError( "Syntax error: value, object or array expected.", token );

	push	OFFSET ??_C@_0CP@GDDNKEK@Syntax?5error?3?5value?0?5object?5or?5a@
	lea	ecx, DWORD PTR $T6[ebp]
	call	??0?$basic_string@DU?$char_traits@D@std@@V?$allocator@D@2@@std@@QAE@PBD@Z ; std::basic_string<char,std::char_traits<char>,std::allocator<char> >::basic_string<char,std::char_traits<char>,std::allocator<char> >
	mov	DWORD PTR __$EHRec$[ebp+8], 3
	push	0
	lea	ecx, DWORD PTR _token$[ebp]
	push	ecx
	lea	edx, DWORD PTR $T6[ebp]
	push	edx
	mov	ecx, DWORD PTR _this$[ebp]
	call	?addError@Reader@Json@@AAE_NABV?$basic_string@DU?$char_traits@D@std@@V?$allocator@D@2@@std@@AAVToken@12@PBD@Z ; Json::Reader::addError
	mov	BYTE PTR $T5[ebp], al
	mov	DWORD PTR __$EHRec$[ebp+8], -1
	lea	ecx, DWORD PTR $T6[ebp]
	call	??1?$basic_string@DU?$char_traits@D@std@@V?$allocator@D@2@@std@@QAE@XZ ; std::basic_string<char,std::char_traits<char>,std::allocator<char> >::~basic_string<char,std::char_traits<char>,std::allocator<char> >
	mov	al, BYTE PTR $T5[ebp]
	jmp	SHORT $LN13@readValue
$LN10@readValue:

; 233  :    }
; 234  : 
; 235  :    if ( collectComments_ )

	mov	eax, DWORD PTR _this$[ebp]
	movzx	ecx, BYTE PTR [eax+110]
	test	ecx, ecx
	je	SHORT $LN1@readValue

; 236  :    {
; 237  :       lastValueEnd_ = current_;

	mov	edx, DWORD PTR _this$[ebp]
	mov	eax, DWORD PTR _this$[ebp]
	mov	ecx, DWORD PTR [eax+72]
	mov	DWORD PTR [edx+76], ecx

; 238  :       lastValue_ = &currentValue();

	mov	ecx, DWORD PTR _this$[ebp]
	call	?currentValue@Reader@Json@@AAEAAVValue@2@XZ ; Json::Reader::currentValue
	mov	edx, DWORD PTR _this$[ebp]
	mov	DWORD PTR [edx+80], eax
$LN1@readValue:

; 239  :    }
; 240  : 
; 241  :    return successful;

	mov	al, BYTE PTR _successful$[ebp]
$LN13@readValue:

; 242  : }

	mov	ecx, DWORD PTR __$EHRec$[ebp]
	mov	DWORD PTR fs:0, ecx
	pop	ecx
	mov	ecx, DWORD PTR __$ArrayPad$[ebp]
	xor	ecx, ebp
	call	@__security_check_cookie@4
	mov	esp, ebp
	pop	ebp
	ret	0
$LN20@readValue:
	DD	$LN9@readValue
	DD	$LN2@readValue
	DD	$LN8@readValue
	DD	$LN2@readValue
	DD	$LN6@readValue
	DD	$LN7@readValue
	DD	$LN5@readValue
	DD	$LN4@readValue
	DD	$LN3@readValue
_TEXT	ENDS
;	COMDAT text$x
text$x	SEGMENT
__unwindfunclet$?readValue@Reader@Json@@AAE_NXZ$0:
	lea	ecx, DWORD PTR $T3[ebp]
	jmp	??1Value@Json@@QAE@XZ			; Json::Value::~Value
__unwindfunclet$?readValue@Reader@Json@@AAE_NXZ$1:
	lea	ecx, DWORD PTR $T4[ebp]
	jmp	??1Value@Json@@QAE@XZ			; Json::Value::~Value
__unwindfunclet$?readValue@Reader@Json@@AAE_NXZ$2:
	lea	ecx, DWORD PTR $T2[ebp]
	jmp	??1Value@Json@@QAE@XZ			; Json::Value::~Value
__unwindfunclet$?readValue@Reader@Json@@AAE_NXZ$3:
	lea	ecx, DWORD PTR $T6[ebp]
	jmp	??1?$basic_string@DU?$char_traits@D@std@@V?$allocator@D@2@@std@@QAE@XZ ; std::basic_string<char,std::char_traits<char>,std::allocator<char> >::~basic_string<char,std::char_traits<char>,std::allocator<char> >
__ehhandler$?readValue@Reader@Json@@AAE_NXZ:
	mov	edx, DWORD PTR [esp+8]
	lea	eax, DWORD PTR [edx+12]
	mov	ecx, DWORD PTR [edx-116]
	xor	ecx, eax
	call	@__security_check_cookie@4
	mov	ecx, DWORD PTR [edx-4]
	xor	ecx, eax
	call	@__security_check_cookie@4
	mov	eax, OFFSET __ehfuncinfo$?readValue@Reader@Json@@AAE_NXZ
	jmp	___CxxFrameHandler3
text$x	ENDS
?readValue@Reader@Json@@AAE_NXZ ENDP			; Json::Reader::readValue
; Function compile flags: /Odtp
; File h:\source\hg\client\code_core\jsoncpp-src-0.5.0\src\lib_json\json_reader.cpp
;	COMDAT ?readNumber@Reader@Json@@AAEXXZ
_TEXT	SEGMENT
_this$ = -4						; size = 4
?readNumber@Reader@Json@@AAEXXZ PROC			; Json::Reader::readNumber, COMDAT
; _this$ = ecx

; 453  : {

	push	ebp
	mov	ebp, esp
	push	ecx
	mov	DWORD PTR _this$[ebp], ecx
$LN4@readNumber:

; 454  :    while ( current_ != end_ )

	mov	eax, DWORD PTR _this$[ebp]
	mov	ecx, DWORD PTR _this$[ebp]
	mov	edx, DWORD PTR [eax+72]
	cmp	edx, DWORD PTR [ecx+68]
	je	SHORT $LN5@readNumber

; 455  :    {
; 456  :       if ( !(*current_ >= '0'  &&  *current_ <= '9')  &&
; 457  :            !in( *current_, '.', 'e', 'E', '+', '-' ) )

	mov	eax, DWORD PTR _this$[ebp]
	mov	ecx, DWORD PTR [eax+72]
	movsx	edx, BYTE PTR [ecx]
	cmp	edx, 48					; 00000030H
	jl	SHORT $LN1@readNumber
	mov	eax, DWORD PTR _this$[ebp]
	mov	ecx, DWORD PTR [eax+72]
	movsx	edx, BYTE PTR [ecx]
	cmp	edx, 57					; 00000039H
	jle	SHORT $LN2@readNumber
$LN1@readNumber:
	push	45					; 0000002dH
	push	43					; 0000002bH
	push	69					; 00000045H
	push	101					; 00000065H
	push	46					; 0000002eH
	mov	eax, DWORD PTR _this$[ebp]
	mov	ecx, DWORD PTR [eax+72]
	movzx	edx, BYTE PTR [ecx]
	push	edx
	call	?in@Json@@YA_NDDDDDD@Z			; Json::in
	add	esp, 24					; 00000018H
	movzx	eax, al
	test	eax, eax
	jne	SHORT $LN2@readNumber

; 458  :          break;

	jmp	SHORT $LN5@readNumber
$LN2@readNumber:

; 459  :       ++current_;

	mov	ecx, DWORD PTR _this$[ebp]
	mov	edx, DWORD PTR [ecx+72]
	add	edx, 1
	mov	eax, DWORD PTR _this$[ebp]
	mov	DWORD PTR [eax+72], edx

; 460  :    }

	jmp	SHORT $LN4@readNumber
$LN5@readNumber:

; 461  : }

	mov	esp, ebp
	pop	ebp
	ret	0
?readNumber@Reader@Json@@AAEXXZ ENDP			; Json::Reader::readNumber
_TEXT	ENDS
; Function compile flags: /Odtp
; File h:\source\hg\client\code_core\jsoncpp-src-0.5.0\src\lib_json\json_reader.cpp
;	COMDAT ?readString@Reader@Json@@AAE_NXZ
_TEXT	SEGMENT
tv76 = -12						; size = 4
_this$ = -8						; size = 4
_c$ = -1						; size = 1
?readString@Reader@Json@@AAE_NXZ PROC			; Json::Reader::readString, COMDAT
; _this$ = ecx

; 465  : {

	push	ebp
	mov	ebp, esp
	sub	esp, 12					; 0000000cH
	mov	DWORD PTR _this$[ebp], ecx

; 466  :    Char c = 0;

	mov	BYTE PTR _c$[ebp], 0
$LN5@readString:

; 467  :    while ( current_ != end_ )

	mov	eax, DWORD PTR _this$[ebp]
	mov	ecx, DWORD PTR _this$[ebp]
	mov	edx, DWORD PTR [eax+72]
	cmp	edx, DWORD PTR [ecx+68]
	je	SHORT $LN4@readString

; 468  :    {
; 469  :       c = getNextChar();

	mov	ecx, DWORD PTR _this$[ebp]
	call	?getNextChar@Reader@Json@@AAEDXZ	; Json::Reader::getNextChar
	mov	BYTE PTR _c$[ebp], al

; 470  :       if ( c == '\\' )

	movsx	eax, BYTE PTR _c$[ebp]
	cmp	eax, 92					; 0000005cH
	jne	SHORT $LN3@readString

; 471  :          getNextChar();

	mov	ecx, DWORD PTR _this$[ebp]
	call	?getNextChar@Reader@Json@@AAEDXZ	; Json::Reader::getNextChar
	jmp	SHORT $LN2@readString
$LN3@readString:

; 472  :       else if ( c == '"' )

	movsx	ecx, BYTE PTR _c$[ebp]
	cmp	ecx, 34					; 00000022H
	jne	SHORT $LN2@readString

; 473  :          break;

	jmp	SHORT $LN4@readString
$LN2@readString:

; 474  :    }

	jmp	SHORT $LN5@readString
$LN4@readString:

; 475  :    return c == '"';

	movsx	edx, BYTE PTR _c$[ebp]
	cmp	edx, 34					; 00000022H
	jne	SHORT $LN8@readString
	mov	DWORD PTR tv76[ebp], 1
	jmp	SHORT $LN9@readString
$LN8@readString:
	mov	DWORD PTR tv76[ebp], 0
$LN9@readString:
	mov	al, BYTE PTR tv76[ebp]

; 476  : }

	mov	esp, ebp
	pop	ebp
	ret	0
?readString@Reader@Json@@AAE_NXZ ENDP			; Json::Reader::readString
_TEXT	ENDS
; Function compile flags: /Odtp
; File h:\source\hg\client\code_core\jsoncpp-src-0.5.0\src\lib_json\json_reader.cpp
;	COMDAT ?readCppStyleComment@Reader@Json@@AAE_NXZ
_TEXT	SEGMENT
_this$ = -8						; size = 4
_c$1 = -1						; size = 1
?readCppStyleComment@Reader@Json@@AAE_NXZ PROC		; Json::Reader::readCppStyleComment, COMDAT
; _this$ = ecx

; 440  : {

	push	ebp
	mov	ebp, esp
	sub	esp, 8
	mov	DWORD PTR _this$[ebp], ecx
$LN4@readCppSty:

; 441  :    while ( current_ != end_ )

	mov	eax, DWORD PTR _this$[ebp]
	mov	ecx, DWORD PTR _this$[ebp]
	mov	edx, DWORD PTR [eax+72]
	cmp	edx, DWORD PTR [ecx+68]
	je	SHORT $LN3@readCppSty

; 442  :    {
; 443  :       Char c = getNextChar();

	mov	ecx, DWORD PTR _this$[ebp]
	call	?getNextChar@Reader@Json@@AAEDXZ	; Json::Reader::getNextChar
	mov	BYTE PTR _c$1[ebp], al

; 444  :       if (  c == '\r'  ||  c == '\n' )

	movsx	eax, BYTE PTR _c$1[ebp]
	cmp	eax, 13					; 0000000dH
	je	SHORT $LN1@readCppSty
	movsx	ecx, BYTE PTR _c$1[ebp]
	cmp	ecx, 10					; 0000000aH
	jne	SHORT $LN2@readCppSty
$LN1@readCppSty:

; 445  :          break;

	jmp	SHORT $LN3@readCppSty
$LN2@readCppSty:

; 446  :    }

	jmp	SHORT $LN4@readCppSty
$LN3@readCppSty:

; 447  :    return true;

	mov	al, 1

; 448  : }

	mov	esp, ebp
	pop	ebp
	ret	0
?readCppStyleComment@Reader@Json@@AAE_NXZ ENDP		; Json::Reader::readCppStyleComment
_TEXT	ENDS
; Function compile flags: /Odtp
; File h:\source\hg\client\code_core\jsoncpp-src-0.5.0\src\lib_json\json_reader.cpp
;	COMDAT ?readCStyleComment@Reader@Json@@AAE_NXZ
_TEXT	SEGMENT
tv79 = -12						; size = 4
_this$ = -8						; size = 4
_c$1 = -1						; size = 1
?readCStyleComment@Reader@Json@@AAE_NXZ PROC		; Json::Reader::readCStyleComment, COMDAT
; _this$ = ecx

; 427  : {

	push	ebp
	mov	ebp, esp
	sub	esp, 12					; 0000000cH
	mov	DWORD PTR _this$[ebp], ecx
$LN3@readCStyle:

; 428  :    while ( current_ != end_ )

	mov	eax, DWORD PTR _this$[ebp]
	mov	ecx, DWORD PTR _this$[ebp]
	mov	edx, DWORD PTR [eax+72]
	cmp	edx, DWORD PTR [ecx+68]
	je	SHORT $LN2@readCStyle

; 429  :    {
; 430  :       Char c = getNextChar();

	mov	ecx, DWORD PTR _this$[ebp]
	call	?getNextChar@Reader@Json@@AAEDXZ	; Json::Reader::getNextChar
	mov	BYTE PTR _c$1[ebp], al

; 431  :       if ( c == '*'  &&  *current_ == '/' )

	movsx	eax, BYTE PTR _c$1[ebp]
	cmp	eax, 42					; 0000002aH
	jne	SHORT $LN1@readCStyle
	mov	ecx, DWORD PTR _this$[ebp]
	mov	edx, DWORD PTR [ecx+72]
	movsx	eax, BYTE PTR [edx]
	cmp	eax, 47					; 0000002fH
	jne	SHORT $LN1@readCStyle

; 432  :          break;

	jmp	SHORT $LN2@readCStyle
$LN1@readCStyle:

; 433  :    }

	jmp	SHORT $LN3@readCStyle
$LN2@readCStyle:

; 434  :    return getNextChar() == '/';

	mov	ecx, DWORD PTR _this$[ebp]
	call	?getNextChar@Reader@Json@@AAEDXZ	; Json::Reader::getNextChar
	movsx	ecx, al
	cmp	ecx, 47					; 0000002fH
	jne	SHORT $LN6@readCStyle
	mov	DWORD PTR tv79[ebp], 1
	jmp	SHORT $LN7@readCStyle
$LN6@readCStyle:
	mov	DWORD PTR tv79[ebp], 0
$LN7@readCStyle:
	mov	al, BYTE PTR tv79[ebp]

; 435  : }

	mov	esp, ebp
	pop	ebp
	ret	0
?readCStyleComment@Reader@Json@@AAE_NXZ ENDP		; Json::Reader::readCStyleComment
_TEXT	ENDS
; Function compile flags: /Odtp
; File h:\source\hg\client\code_core\jsoncpp-src-0.5.0\src\lib_json\json_reader.cpp
;	COMDAT ?readComment@Reader@Json@@AAE_NXZ
_TEXT	SEGMENT
_placement$1 = -16					; size = 4
_commentBegin$ = -12					; size = 4
_this$ = -8						; size = 4
_c$ = -2						; size = 1
_successful$ = -1					; size = 1
?readComment@Reader@Json@@AAE_NXZ PROC			; Json::Reader::readComment, COMDAT
; _this$ = ecx

; 379  : {

	push	ebp
	mov	ebp, esp
	sub	esp, 16					; 00000010H
	mov	DWORD PTR _this$[ebp], ecx

; 380  :    Location commentBegin = current_ - 1;

	mov	eax, DWORD PTR _this$[ebp]
	mov	ecx, DWORD PTR [eax+72]
	sub	ecx, 1
	mov	DWORD PTR _commentBegin$[ebp], ecx

; 381  :    Char c = getNextChar();

	mov	ecx, DWORD PTR _this$[ebp]
	call	?getNextChar@Reader@Json@@AAEDXZ	; Json::Reader::getNextChar
	mov	BYTE PTR _c$[ebp], al

; 382  :    bool successful = false;

	mov	BYTE PTR _successful$[ebp], 0

; 383  :    if ( c == '*' )

	movsx	edx, BYTE PTR _c$[ebp]
	cmp	edx, 42					; 0000002aH
	jne	SHORT $LN8@readCommen

; 384  :       successful = readCStyleComment();

	mov	ecx, DWORD PTR _this$[ebp]
	call	?readCStyleComment@Reader@Json@@AAE_NXZ	; Json::Reader::readCStyleComment
	mov	BYTE PTR _successful$[ebp], al
	jmp	SHORT $LN7@readCommen
$LN8@readCommen:

; 385  :    else if ( c == '/' )

	movsx	eax, BYTE PTR _c$[ebp]
	cmp	eax, 47					; 0000002fH
	jne	SHORT $LN7@readCommen

; 386  :       successful = readCppStyleComment();

	mov	ecx, DWORD PTR _this$[ebp]
	call	?readCppStyleComment@Reader@Json@@AAE_NXZ ; Json::Reader::readCppStyleComment
	mov	BYTE PTR _successful$[ebp], al
$LN7@readCommen:

; 387  :    if ( !successful )

	movzx	ecx, BYTE PTR _successful$[ebp]
	test	ecx, ecx
	jne	SHORT $LN5@readCommen

; 388  :       return false;

	xor	al, al
	jmp	SHORT $LN9@readCommen
$LN5@readCommen:

; 389  : 
; 390  :    if ( collectComments_ )

	mov	edx, DWORD PTR _this$[ebp]
	movzx	eax, BYTE PTR [edx+110]
	test	eax, eax
	je	SHORT $LN4@readCommen

; 391  :    {
; 392  :       CommentPlacement placement = commentBefore;

	mov	DWORD PTR _placement$1[ebp], 0

; 393  :       if ( lastValueEnd_  &&  !containsNewLine( lastValueEnd_, commentBegin ) )

	mov	ecx, DWORD PTR _this$[ebp]
	cmp	DWORD PTR [ecx+76], 0
	je	SHORT $LN3@readCommen
	mov	edx, DWORD PTR _commentBegin$[ebp]
	push	edx
	mov	eax, DWORD PTR _this$[ebp]
	mov	ecx, DWORD PTR [eax+76]
	push	ecx
	call	?containsNewLine@Json@@YA_NPBD0@Z	; Json::containsNewLine
	add	esp, 8
	movzx	edx, al
	test	edx, edx
	jne	SHORT $LN3@readCommen

; 394  :       {
; 395  :          if ( c != '*'  ||  !containsNewLine( commentBegin, current_ ) )

	movsx	eax, BYTE PTR _c$[ebp]
	cmp	eax, 42					; 0000002aH
	jne	SHORT $LN1@readCommen
	mov	ecx, DWORD PTR _this$[ebp]
	mov	edx, DWORD PTR [ecx+72]
	push	edx
	mov	eax, DWORD PTR _commentBegin$[ebp]
	push	eax
	call	?containsNewLine@Json@@YA_NPBD0@Z	; Json::containsNewLine
	add	esp, 8
	movzx	ecx, al
	test	ecx, ecx
	jne	SHORT $LN3@readCommen
$LN1@readCommen:

; 396  :             placement = commentAfterOnSameLine;

	mov	DWORD PTR _placement$1[ebp], 1
$LN3@readCommen:

; 397  :       }
; 398  : 
; 399  :       addComment( commentBegin, current_, placement );

	mov	edx, DWORD PTR _placement$1[ebp]
	push	edx
	mov	eax, DWORD PTR _this$[ebp]
	mov	ecx, DWORD PTR [eax+72]
	push	ecx
	mov	edx, DWORD PTR _commentBegin$[ebp]
	push	edx
	mov	ecx, DWORD PTR _this$[ebp]
	call	?addComment@Reader@Json@@AAEXPBD0W4CommentPlacement@2@@Z ; Json::Reader::addComment
$LN4@readCommen:

; 400  :    }
; 401  :    return true;

	mov	al, 1
$LN9@readCommen:

; 402  : }

	mov	esp, ebp
	pop	ebp
	ret	0
?readComment@Reader@Json@@AAE_NXZ ENDP			; Json::Reader::readComment
_TEXT	ENDS
; Function compile flags: /Odtp
; File h:\source\hg\client\code_core\jsoncpp-src-0.5.0\src\lib_json\json_reader.cpp
;	COMDAT ?match@Reader@Json@@AAE_NPBDH@Z
_TEXT	SEGMENT
tv70 = -12						; size = 4
_this$ = -8						; size = 4
_index$ = -4						; size = 4
_pattern$ = 8						; size = 4
_patternLength$ = 12					; size = 4
?match@Reader@Json@@AAE_NPBDH@Z PROC			; Json::Reader::match, COMDAT
; _this$ = ecx

; 365  : {

	push	ebp
	mov	ebp, esp
	sub	esp, 12					; 0000000cH
	mov	DWORD PTR _this$[ebp], ecx

; 366  :    if ( end_ - current_ < patternLength )

	mov	eax, DWORD PTR _this$[ebp]
	mov	ecx, DWORD PTR _this$[ebp]
	mov	edx, DWORD PTR [eax+68]
	sub	edx, DWORD PTR [ecx+72]
	cmp	edx, DWORD PTR _patternLength$[ebp]
	jge	SHORT $LN4@match

; 367  :       return false;

	xor	al, al
	jmp	SHORT $LN5@match
$LN4@match:

; 368  :    int index = patternLength;

	mov	eax, DWORD PTR _patternLength$[ebp]
	mov	DWORD PTR _index$[ebp], eax
$LN3@match:

; 369  :    while ( index-- )

	mov	ecx, DWORD PTR _index$[ebp]
	mov	DWORD PTR tv70[ebp], ecx
	mov	edx, DWORD PTR _index$[ebp]
	sub	edx, 1
	mov	DWORD PTR _index$[ebp], edx
	cmp	DWORD PTR tv70[ebp], 0
	je	SHORT $LN2@match

; 370  :       if ( current_[index] != pattern[index] )

	mov	eax, DWORD PTR _this$[ebp]
	mov	ecx, DWORD PTR [eax+72]
	mov	edx, DWORD PTR _index$[ebp]
	movsx	eax, BYTE PTR [ecx+edx]
	mov	ecx, DWORD PTR _pattern$[ebp]
	add	ecx, DWORD PTR _index$[ebp]
	movsx	edx, BYTE PTR [ecx]
	cmp	eax, edx
	je	SHORT $LN1@match

; 371  :          return false;

	xor	al, al
	jmp	SHORT $LN5@match
$LN1@match:

; 372  :    current_ += patternLength;

	jmp	SHORT $LN3@match
$LN2@match:
	mov	eax, DWORD PTR _this$[ebp]
	mov	ecx, DWORD PTR [eax+72]
	add	ecx, DWORD PTR _patternLength$[ebp]
	mov	edx, DWORD PTR _this$[ebp]
	mov	DWORD PTR [edx+72], ecx

; 373  :    return true;

	mov	al, 1
$LN5@match:

; 374  : }

	mov	esp, ebp
	pop	ebp
	ret	8
?match@Reader@Json@@AAE_NPBDH@Z ENDP			; Json::Reader::match
_TEXT	ENDS
; Function compile flags: /Odtp
; File h:\source\hg\client\code_core\jsoncpp-src-0.5.0\src\lib_json\json_reader.cpp
;	COMDAT ?skipSpaces@Reader@Json@@AAEXXZ
_TEXT	SEGMENT
_this$ = -8						; size = 4
_c$1 = -1						; size = 1
?skipSpaces@Reader@Json@@AAEXXZ PROC			; Json::Reader::skipSpaces, COMDAT
; _this$ = ecx

; 350  : {

	push	ebp
	mov	ebp, esp
	sub	esp, 8
	mov	DWORD PTR _this$[ebp], ecx
$LN5@skipSpaces:

; 351  :    while ( current_ != end_ )

	mov	eax, DWORD PTR _this$[ebp]
	mov	ecx, DWORD PTR _this$[ebp]
	mov	edx, DWORD PTR [eax+72]
	cmp	edx, DWORD PTR [ecx+68]
	je	SHORT $LN6@skipSpaces

; 352  :    {
; 353  :       Char c = *current_;

	mov	eax, DWORD PTR _this$[ebp]
	mov	ecx, DWORD PTR [eax+72]
	mov	dl, BYTE PTR [ecx]
	mov	BYTE PTR _c$1[ebp], dl

; 354  :       if ( c == ' '  ||  c == '\t'  ||  c == '\r'  ||  c == '\n' )

	movsx	eax, BYTE PTR _c$1[ebp]
	cmp	eax, 32					; 00000020H
	je	SHORT $LN2@skipSpaces
	movsx	ecx, BYTE PTR _c$1[ebp]
	cmp	ecx, 9
	je	SHORT $LN2@skipSpaces
	movsx	edx, BYTE PTR _c$1[ebp]
	cmp	edx, 13					; 0000000dH
	je	SHORT $LN2@skipSpaces
	movsx	eax, BYTE PTR _c$1[ebp]
	cmp	eax, 10					; 0000000aH
	jne	SHORT $LN3@skipSpaces
$LN2@skipSpaces:

; 355  :          ++current_;

	mov	ecx, DWORD PTR _this$[ebp]
	mov	edx, DWORD PTR [ecx+72]
	add	edx, 1
	mov	eax, DWORD PTR _this$[ebp]
	mov	DWORD PTR [eax+72], edx

; 356  :       else

	jmp	SHORT $LN1@skipSpaces
$LN3@skipSpaces:

; 357  :          break;

	jmp	SHORT $LN6@skipSpaces
$LN1@skipSpaces:

; 358  :    }

	jmp	SHORT $LN5@skipSpaces
$LN6@skipSpaces:

; 359  : }

	mov	esp, ebp
	pop	ebp
	ret	0
?skipSpaces@Reader@Json@@AAEXXZ ENDP			; Json::Reader::skipSpaces
_TEXT	ENDS
; Function compile flags: /Odtp
; File h:\source\hg\client\code_core\jsoncpp-src-0.5.0\src\lib_json\json_reader.cpp
;	COMDAT ?readToken@Reader@Json@@AAE_NAAVToken@12@@Z
_TEXT	SEGMENT
tv70 = -12						; size = 4
_this$ = -8						; size = 4
_c$ = -2						; size = 1
_ok$ = -1						; size = 1
_token$ = 8						; size = 4
?readToken@Reader@Json@@AAE_NAAVToken@12@@Z PROC	; Json::Reader::readToken, COMDAT
; _this$ = ecx

; 275  : {

	push	ebp
	mov	ebp, esp
	sub	esp, 12					; 0000000cH
	mov	DWORD PTR _this$[ebp], ecx

; 276  :    skipSpaces();

	mov	ecx, DWORD PTR _this$[ebp]
	call	?skipSpaces@Reader@Json@@AAEXXZ		; Json::Reader::skipSpaces

; 277  :    token.start_ = current_;

	mov	eax, DWORD PTR _token$[ebp]
	mov	ecx, DWORD PTR _this$[ebp]
	mov	edx, DWORD PTR [ecx+72]
	mov	DWORD PTR [eax+4], edx

; 278  :    Char c = getNextChar();

	mov	ecx, DWORD PTR _this$[ebp]
	call	?getNextChar@Reader@Json@@AAEDXZ	; Json::Reader::getNextChar
	mov	BYTE PTR _c$[ebp], al

; 279  :    bool ok = true;

	mov	BYTE PTR _ok$[ebp], 1

; 280  :    switch ( c )

	movsx	eax, BYTE PTR _c$[ebp]
	mov	DWORD PTR tv70[ebp], eax
	cmp	DWORD PTR tv70[ebp], 125		; 0000007dH
	ja	$LN2@readToken
	mov	ecx, DWORD PTR tv70[ebp]
	movzx	edx, BYTE PTR $LN20@readToken[ecx]
	jmp	DWORD PTR $LN21@readToken[edx*4]
$LN15@readToken:

; 281  :    {
; 282  :    case '{':
; 283  :       token.type_ = tokenObjectBegin;

	mov	eax, DWORD PTR _token$[ebp]
	mov	DWORD PTR [eax], 1

; 284  :       break;

	jmp	$LN16@readToken
$LN14@readToken:

; 285  :    case '}':
; 286  :       token.type_ = tokenObjectEnd;

	mov	ecx, DWORD PTR _token$[ebp]
	mov	DWORD PTR [ecx], 2

; 287  :       break;

	jmp	$LN16@readToken
$LN13@readToken:

; 288  :    case '[':
; 289  :       token.type_ = tokenArrayBegin;

	mov	edx, DWORD PTR _token$[ebp]
	mov	DWORD PTR [edx], 3

; 290  :       break;

	jmp	$LN16@readToken
$LN12@readToken:

; 291  :    case ']':
; 292  :       token.type_ = tokenArrayEnd;

	mov	eax, DWORD PTR _token$[ebp]
	mov	DWORD PTR [eax], 4

; 293  :       break;

	jmp	$LN16@readToken
$LN11@readToken:

; 294  :    case '"':
; 295  :       token.type_ = tokenString;

	mov	ecx, DWORD PTR _token$[ebp]
	mov	DWORD PTR [ecx], 5

; 296  :       ok = readString();

	mov	ecx, DWORD PTR _this$[ebp]
	call	?readString@Reader@Json@@AAE_NXZ	; Json::Reader::readString
	mov	BYTE PTR _ok$[ebp], al

; 297  :       break;

	jmp	$LN16@readToken
$LN10@readToken:

; 298  :    case '/':
; 299  :       token.type_ = tokenComment;

	mov	edx, DWORD PTR _token$[ebp]
	mov	DWORD PTR [edx], 12			; 0000000cH

; 300  :       ok = readComment();

	mov	ecx, DWORD PTR _this$[ebp]
	call	?readComment@Reader@Json@@AAE_NXZ	; Json::Reader::readComment
	mov	BYTE PTR _ok$[ebp], al

; 301  :       break;

	jmp	$LN16@readToken
$LN9@readToken:

; 302  :    case '0':
; 303  :    case '1':
; 304  :    case '2':
; 305  :    case '3':
; 306  :    case '4':
; 307  :    case '5':
; 308  :    case '6':
; 309  :    case '7':
; 310  :    case '8':
; 311  :    case '9':
; 312  :    case '-':
; 313  :       token.type_ = tokenNumber;

	mov	eax, DWORD PTR _token$[ebp]
	mov	DWORD PTR [eax], 6

; 314  :       readNumber();

	mov	ecx, DWORD PTR _this$[ebp]
	call	?readNumber@Reader@Json@@AAEXXZ		; Json::Reader::readNumber

; 315  :       break;

	jmp	SHORT $LN16@readToken
$LN8@readToken:

; 316  :    case 't':
; 317  :       token.type_ = tokenTrue;

	mov	ecx, DWORD PTR _token$[ebp]
	mov	DWORD PTR [ecx], 7

; 318  :       ok = match( "rue", 3 );

	push	3
	push	OFFSET ??_C@_03FFDNHNKN@rue?$AA@
	mov	ecx, DWORD PTR _this$[ebp]
	call	?match@Reader@Json@@AAE_NPBDH@Z		; Json::Reader::match
	mov	BYTE PTR _ok$[ebp], al

; 319  :       break;

	jmp	SHORT $LN16@readToken
$LN7@readToken:

; 320  :    case 'f':
; 321  :       token.type_ = tokenFalse;

	mov	edx, DWORD PTR _token$[ebp]
	mov	DWORD PTR [edx], 8

; 322  :       ok = match( "alse", 4 );

	push	4
	push	OFFSET ??_C@_04KCECFHEP@alse?$AA@
	mov	ecx, DWORD PTR _this$[ebp]
	call	?match@Reader@Json@@AAE_NPBDH@Z		; Json::Reader::match
	mov	BYTE PTR _ok$[ebp], al

; 323  :       break;

	jmp	SHORT $LN16@readToken
$LN6@readToken:

; 324  :    case 'n':
; 325  :       token.type_ = tokenNull;

	mov	eax, DWORD PTR _token$[ebp]
	mov	DWORD PTR [eax], 9

; 326  :       ok = match( "ull", 3 );

	push	3
	push	OFFSET ??_C@_03KNPGGKC@ull?$AA@
	mov	ecx, DWORD PTR _this$[ebp]
	call	?match@Reader@Json@@AAE_NPBDH@Z		; Json::Reader::match
	mov	BYTE PTR _ok$[ebp], al

; 327  :       break;

	jmp	SHORT $LN16@readToken
$LN5@readToken:

; 328  :    case ',':
; 329  :       token.type_ = tokenArraySeparator;

	mov	ecx, DWORD PTR _token$[ebp]
	mov	DWORD PTR [ecx], 10			; 0000000aH

; 330  :       break;

	jmp	SHORT $LN16@readToken
$LN4@readToken:

; 331  :    case ':':
; 332  :       token.type_ = tokenMemberSeparator;

	mov	edx, DWORD PTR _token$[ebp]
	mov	DWORD PTR [edx], 11			; 0000000bH

; 333  :       break;

	jmp	SHORT $LN16@readToken
$LN3@readToken:

; 334  :    case 0:
; 335  :       token.type_ = tokenEndOfStream;

	mov	eax, DWORD PTR _token$[ebp]
	mov	DWORD PTR [eax], 0

; 336  :       break;

	jmp	SHORT $LN16@readToken
$LN2@readToken:

; 337  :    default:
; 338  :       ok = false;

	mov	BYTE PTR _ok$[ebp], 0
$LN16@readToken:

; 339  :       break;
; 340  :    }
; 341  :    if ( !ok )

	movzx	ecx, BYTE PTR _ok$[ebp]
	test	ecx, ecx
	jne	SHORT $LN1@readToken

; 342  :       token.type_ = tokenError;

	mov	edx, DWORD PTR _token$[ebp]
	mov	DWORD PTR [edx], 13			; 0000000dH
$LN1@readToken:

; 343  :    token.end_ = current_;

	mov	eax, DWORD PTR _token$[ebp]
	mov	ecx, DWORD PTR _this$[ebp]
	mov	edx, DWORD PTR [ecx+72]
	mov	DWORD PTR [eax+8], edx

; 344  :    return true;

	mov	al, 1

; 345  : }

	mov	esp, ebp
	pop	ebp
	ret	4
$LN21@readToken:
	DD	$LN3@readToken
	DD	$LN11@readToken
	DD	$LN5@readToken
	DD	$LN9@readToken
	DD	$LN10@readToken
	DD	$LN4@readToken
	DD	$LN13@readToken
	DD	$LN12@readToken
	DD	$LN7@readToken
	DD	$LN6@readToken
	DD	$LN8@readToken
	DD	$LN15@readToken
	DD	$LN14@readToken
	DD	$LN2@readToken
$LN20@readToken:
	DB	0
	DB	13					; 0000000dH
	DB	13					; 0000000dH
	DB	13					; 0000000dH
	DB	13					; 0000000dH
	DB	13					; 0000000dH
	DB	13					; 0000000dH
	DB	13					; 0000000dH
	DB	13					; 0000000dH
	DB	13					; 0000000dH
	DB	13					; 0000000dH
	DB	13					; 0000000dH
	DB	13					; 0000000dH
	DB	13					; 0000000dH
	DB	13					; 0000000dH
	DB	13					; 0000000dH
	DB	13					; 0000000dH
	DB	13					; 0000000dH
	DB	13					; 0000000dH
	DB	13					; 0000000dH
	DB	13					; 0000000dH
	DB	13					; 0000000dH
	DB	13					; 0000000dH
	DB	13					; 0000000dH
	DB	13					; 0000000dH
	DB	13					; 0000000dH
	DB	13					; 0000000dH
	DB	13					; 0000000dH
	DB	13					; 0000000dH
	DB	13					; 0000000dH
	DB	13					; 0000000dH
	DB	13					; 0000000dH
	DB	13					; 0000000dH
	DB	13					; 0000000dH
	DB	1
	DB	13					; 0000000dH
	DB	13					; 0000000dH
	DB	13					; 0000000dH
	DB	13					; 0000000dH
	DB	13					; 0000000dH
	DB	13					; 0000000dH
	DB	13					; 0000000dH
	DB	13					; 0000000dH
	DB	13					; 0000000dH
	DB	2
	DB	3
	DB	13					; 0000000dH
	DB	4
	DB	3
	DB	3
	DB	3
	DB	3
	DB	3
	DB	3
	DB	3
	DB	3
	DB	3
	DB	3
	DB	5
	DB	13					; 0000000dH
	DB	13					; 0000000dH
	DB	13					; 0000000dH
	DB	13					; 0000000dH
	DB	13					; 0000000dH
	DB	13					; 0000000dH
	DB	13					; 0000000dH
	DB	13					; 0000000dH
	DB	13					; 0000000dH
	DB	13					; 0000000dH
	DB	13					; 0000000dH
	DB	13					; 0000000dH
	DB	13					; 0000000dH
	DB	13					; 0000000dH
	DB	13					; 0000000dH
	DB	13					; 0000000dH
	DB	13					; 0000000dH
	DB	13					; 0000000dH
	DB	13					; 0000000dH
	DB	13					; 0000000dH
	DB	13					; 0000000dH
	DB	13					; 0000000dH
	DB	13					; 0000000dH
	DB	13					; 0000000dH
	DB	13					; 0000000dH
	DB	13					; 0000000dH
	DB	13					; 0000000dH
	DB	13					; 0000000dH
	DB	13					; 0000000dH
	DB	13					; 0000000dH
	DB	13					; 0000000dH
	DB	13					; 0000000dH
	DB	6
	DB	13					; 0000000dH
	DB	7
	DB	13					; 0000000dH
	DB	13					; 0000000dH
	DB	13					; 0000000dH
	DB	13					; 0000000dH
	DB	13					; 0000000dH
	DB	13					; 0000000dH
	DB	13					; 0000000dH
	DB	13					; 0000000dH
	DB	8
	DB	13					; 0000000dH
	DB	13					; 0000000dH
	DB	13					; 0000000dH
	DB	13					; 0000000dH
	DB	13					; 0000000dH
	DB	13					; 0000000dH
	DB	13					; 0000000dH
	DB	9
	DB	13					; 0000000dH
	DB	13					; 0000000dH
	DB	13					; 0000000dH
	DB	13					; 0000000dH
	DB	13					; 0000000dH
	DB	10					; 0000000aH
	DB	13					; 0000000dH
	DB	13					; 0000000dH
	DB	13					; 0000000dH
	DB	13					; 0000000dH
	DB	13					; 0000000dH
	DB	13					; 0000000dH
	DB	11					; 0000000bH
	DB	13					; 0000000dH
	DB	12					; 0000000cH
?readToken@Reader@Json@@AAE_NAAVToken@12@@Z ENDP	; Json::Reader::readToken
_TEXT	ENDS
; Function compile flags: /Odtp
; File h:\source\hg\client\code_core\jsoncpp-src-0.5.0\src\lib_json\json_reader.cpp
;	COMDAT ?expectToken@Reader@Json@@AAE_NW4TokenType@12@AAVToken@12@PBD@Z
_TEXT	SEGMENT
_this$ = -48						; size = 4
$T2 = -41						; size = 1
$T3 = -40						; size = 24
__$ArrayPad$ = -16					; size = 4
__$EHRec$ = -12						; size = 12
_type$ = 8						; size = 4
_token$ = 12						; size = 4
_message$ = 16						; size = 4
?expectToken@Reader@Json@@AAE_NW4TokenType@12@AAVToken@12@PBD@Z PROC ; Json::Reader::expectToken, COMDAT
; _this$ = ecx

; 265  : {

	push	ebp
	mov	ebp, esp
	push	-1
	push	__ehhandler$?expectToken@Reader@Json@@AAE_NW4TokenType@12@AAVToken@12@PBD@Z
	mov	eax, DWORD PTR fs:0
	push	eax
	sub	esp, 36					; 00000024H
	mov	eax, DWORD PTR ___security_cookie
	xor	eax, ebp
	mov	DWORD PTR __$ArrayPad$[ebp], eax
	push	eax
	lea	eax, DWORD PTR __$EHRec$[ebp]
	mov	DWORD PTR fs:0, eax
	mov	DWORD PTR _this$[ebp], ecx

; 266  :    readToken( token );

	mov	eax, DWORD PTR _token$[ebp]
	push	eax
	mov	ecx, DWORD PTR _this$[ebp]
	call	?readToken@Reader@Json@@AAE_NAAVToken@12@@Z ; Json::Reader::readToken

; 267  :    if ( token.type_ != type )

	mov	ecx, DWORD PTR _token$[ebp]
	mov	edx, DWORD PTR [ecx]
	cmp	edx, DWORD PTR _type$[ebp]
	je	SHORT $LN1@expectToke

; 268  :       return addError( message, token );

	mov	eax, DWORD PTR _message$[ebp]
	push	eax
	lea	ecx, DWORD PTR $T3[ebp]
	call	??0?$basic_string@DU?$char_traits@D@std@@V?$allocator@D@2@@std@@QAE@PBD@Z ; std::basic_string<char,std::char_traits<char>,std::allocator<char> >::basic_string<char,std::char_traits<char>,std::allocator<char> >
	mov	DWORD PTR __$EHRec$[ebp+8], 0
	push	0
	mov	ecx, DWORD PTR _token$[ebp]
	push	ecx
	lea	edx, DWORD PTR $T3[ebp]
	push	edx
	mov	ecx, DWORD PTR _this$[ebp]
	call	?addError@Reader@Json@@AAE_NABV?$basic_string@DU?$char_traits@D@std@@V?$allocator@D@2@@std@@AAVToken@12@PBD@Z ; Json::Reader::addError
	mov	BYTE PTR $T2[ebp], al
	mov	DWORD PTR __$EHRec$[ebp+8], -1
	lea	ecx, DWORD PTR $T3[ebp]
	call	??1?$basic_string@DU?$char_traits@D@std@@V?$allocator@D@2@@std@@QAE@XZ ; std::basic_string<char,std::char_traits<char>,std::allocator<char> >::~basic_string<char,std::char_traits<char>,std::allocator<char> >
	mov	al, BYTE PTR $T2[ebp]
	jmp	SHORT $LN2@expectToke
$LN1@expectToke:

; 269  :    return true;

	mov	al, 1
$LN2@expectToke:

; 270  : }

	mov	ecx, DWORD PTR __$EHRec$[ebp]
	mov	DWORD PTR fs:0, ecx
	pop	ecx
	mov	ecx, DWORD PTR __$ArrayPad$[ebp]
	xor	ecx, ebp
	call	@__security_check_cookie@4
	mov	esp, ebp
	pop	ebp
	ret	12					; 0000000cH
_TEXT	ENDS
;	COMDAT text$x
text$x	SEGMENT
__unwindfunclet$?expectToken@Reader@Json@@AAE_NW4TokenType@12@AAVToken@12@PBD@Z$0:
	lea	ecx, DWORD PTR $T3[ebp]
	jmp	??1?$basic_string@DU?$char_traits@D@std@@V?$allocator@D@2@@std@@QAE@XZ ; std::basic_string<char,std::char_traits<char>,std::allocator<char> >::~basic_string<char,std::char_traits<char>,std::allocator<char> >
__ehhandler$?expectToken@Reader@Json@@AAE_NW4TokenType@12@AAVToken@12@PBD@Z:
	mov	edx, DWORD PTR [esp+8]
	lea	eax, DWORD PTR [edx+12]
	mov	ecx, DWORD PTR [edx-40]
	xor	ecx, eax
	call	@__security_check_cookie@4
	mov	ecx, DWORD PTR [edx-4]
	xor	ecx, eax
	call	@__security_check_cookie@4
	mov	eax, OFFSET __ehfuncinfo$?expectToken@Reader@Json@@AAE_NW4TokenType@12@AAVToken@12@PBD@Z
	jmp	___CxxFrameHandler3
text$x	ENDS
?expectToken@Reader@Json@@AAE_NW4TokenType@12@AAVToken@12@PBD@Z ENDP ; Json::Reader::expectToken
; Function compile flags: /Odtp
;	COMDAT ??_GErrorInfo@Reader@Json@@QAEPAXI@Z
_TEXT	SEGMENT
_this$ = -4						; size = 4
___flags$ = 8						; size = 4
??_GErrorInfo@Reader@Json@@QAEPAXI@Z PROC		; Json::Reader::ErrorInfo::`scalar deleting destructor', COMDAT
; _this$ = ecx
	push	ebp
	mov	ebp, esp
	push	ecx
	mov	DWORD PTR _this$[ebp], ecx
	mov	ecx, DWORD PTR _this$[ebp]
	call	??1ErrorInfo@Reader@Json@@QAE@XZ
	mov	eax, DWORD PTR ___flags$[ebp]
	and	eax, 1
	je	SHORT $LN1@scalar
	mov	ecx, DWORD PTR _this$[ebp]
	push	ecx
	call	??3@YAXPAX@Z				; operator delete
	add	esp, 4
$LN1@scalar:
	mov	eax, DWORD PTR _this$[ebp]
	mov	esp, ebp
	pop	ebp
	ret	4
??_GErrorInfo@Reader@Json@@QAEPAXI@Z ENDP		; Json::Reader::ErrorInfo::`scalar deleting destructor'
_TEXT	ENDS
; Function compile flags: /Odtp
;	COMDAT ??0ErrorInfo@Reader@Json@@QAE@ABV012@@Z
_TEXT	SEGMENT
_this$ = -4						; size = 4
___that$ = 8						; size = 4
??0ErrorInfo@Reader@Json@@QAE@ABV012@@Z PROC		; Json::Reader::ErrorInfo::ErrorInfo, COMDAT
; _this$ = ecx
	push	ebp
	mov	ebp, esp
	push	ecx
	mov	DWORD PTR _this$[ebp], ecx
	mov	eax, DWORD PTR ___that$[ebp]
	mov	ecx, DWORD PTR _this$[ebp]
	mov	edx, DWORD PTR [eax]
	mov	DWORD PTR [ecx], edx
	mov	edx, DWORD PTR [eax+4]
	mov	DWORD PTR [ecx+4], edx
	mov	eax, DWORD PTR [eax+8]
	mov	DWORD PTR [ecx+8], eax
	mov	ecx, DWORD PTR ___that$[ebp]
	add	ecx, 12					; 0000000cH
	push	ecx
	mov	ecx, DWORD PTR _this$[ebp]
	add	ecx, 12					; 0000000cH
	call	??0?$basic_string@DU?$char_traits@D@std@@V?$allocator@D@2@@std@@QAE@ABV01@@Z ; std::basic_string<char,std::char_traits<char>,std::allocator<char> >::basic_string<char,std::char_traits<char>,std::allocator<char> >
	mov	edx, DWORD PTR _this$[ebp]
	mov	eax, DWORD PTR ___that$[ebp]
	mov	ecx, DWORD PTR [eax+36]
	mov	DWORD PTR [edx+36], ecx
	mov	eax, DWORD PTR _this$[ebp]
	mov	esp, ebp
	pop	ebp
	ret	4
??0ErrorInfo@Reader@Json@@QAE@ABV012@@Z ENDP		; Json::Reader::ErrorInfo::ErrorInfo
_TEXT	ENDS
; Function compile flags: /Odtp
;	COMDAT ??1ErrorInfo@Reader@Json@@QAE@XZ
_TEXT	SEGMENT
_this$ = -4						; size = 4
??1ErrorInfo@Reader@Json@@QAE@XZ PROC			; Json::Reader::ErrorInfo::~ErrorInfo, COMDAT
; _this$ = ecx
	push	ebp
	mov	ebp, esp
	push	ecx
	mov	DWORD PTR _this$[ebp], ecx
	mov	ecx, DWORD PTR _this$[ebp]
	add	ecx, 12					; 0000000cH
	call	??1?$basic_string@DU?$char_traits@D@std@@V?$allocator@D@2@@std@@QAE@XZ ; std::basic_string<char,std::char_traits<char>,std::allocator<char> >::~basic_string<char,std::char_traits<char>,std::allocator<char> >
	mov	esp, ebp
	pop	ebp
	ret	0
??1ErrorInfo@Reader@Json@@QAE@XZ ENDP			; Json::Reader::ErrorInfo::~ErrorInfo
_TEXT	ENDS
; Function compile flags: /Odtp
;	COMDAT ??0ErrorInfo@Reader@Json@@QAE@XZ
_TEXT	SEGMENT
_this$ = -4						; size = 4
??0ErrorInfo@Reader@Json@@QAE@XZ PROC			; Json::Reader::ErrorInfo::ErrorInfo, COMDAT
; _this$ = ecx
	push	ebp
	mov	ebp, esp
	push	ecx
	mov	DWORD PTR _this$[ebp], ecx
	mov	ecx, DWORD PTR _this$[ebp]
	add	ecx, 12					; 0000000cH
	call	??0?$basic_string@DU?$char_traits@D@std@@V?$allocator@D@2@@std@@QAE@XZ ; std::basic_string<char,std::char_traits<char>,std::allocator<char> >::basic_string<char,std::char_traits<char>,std::allocator<char> >
	mov	eax, DWORD PTR _this$[ebp]
	mov	esp, ebp
	pop	ebp
	ret	0
??0ErrorInfo@Reader@Json@@QAE@XZ ENDP			; Json::Reader::ErrorInfo::ErrorInfo
_TEXT	ENDS
; Function compile flags: /Odtp
; File h:\source\hg\client\code_core\jsoncpp-src-0.5.0\src\lib_json\json_reader.cpp
;	COMDAT ?getFormatedErrorMessages@Reader@Json@@QBE?AV?$basic_string@DU?$char_traits@D@std@@V?$allocator@D@2@@std@@XZ
_TEXT	SEGMENT
$T2 = -344						; size = 12
_itError$3 = -332					; size = 12
tv191 = -320						; size = 4
tv201 = -316						; size = 4
tv207 = -312						; size = 4
tv197 = -308						; size = 4
tv189 = -304						; size = 4
tv199 = -300						; size = 4
tv179 = -296						; size = 4
tv195 = -292						; size = 4
tv187 = -288						; size = 4
tv212 = -284						; size = 4
tv65 = -280						; size = 4
tv211 = -276						; size = 4
tv185 = -272						; size = 4
tv69 = -268						; size = 4
tv209 = -264						; size = 4
tv208 = -260						; size = 4
tv193 = -256						; size = 4
tv210 = -252						; size = 4
$T4 = -248						; size = 4
_error$5 = -244						; size = 4
_this$ = -240						; size = 4
$T6 = -233						; size = 1
$T7 = -232						; size = 24
$T8 = -208						; size = 24
$T9 = -184						; size = 24
$T10 = -160						; size = 24
$T11 = -136						; size = 24
$T12 = -112						; size = 24
$T13 = -88						; size = 24
$T14 = -64						; size = 24
_formattedMessage$ = -40				; size = 24
__$ArrayPad$ = -16					; size = 4
__$EHRec$ = -12						; size = 12
___$ReturnUdt$ = 8					; size = 4
?getFormatedErrorMessages@Reader@Json@@QBE?AV?$basic_string@DU?$char_traits@D@std@@V?$allocator@D@2@@std@@XZ PROC ; Json::Reader::getFormatedErrorMessages, COMDAT
; _this$ = ecx

; 859  : {

	push	ebp
	mov	ebp, esp
	push	-1
	push	__ehhandler$?getFormatedErrorMessages@Reader@Json@@QBE?AV?$basic_string@DU?$char_traits@D@std@@V?$allocator@D@2@@std@@XZ
	mov	eax, DWORD PTR fs:0
	push	eax
	sub	esp, 332				; 0000014cH
	mov	eax, DWORD PTR ___security_cookie
	xor	eax, ebp
	mov	DWORD PTR __$ArrayPad$[ebp], eax
	push	eax
	lea	eax, DWORD PTR __$EHRec$[ebp]
	mov	DWORD PTR fs:0, eax
	mov	DWORD PTR _this$[ebp], ecx
	mov	DWORD PTR $T4[ebp], 0

; 860  :    std::string formattedMessage;

	lea	ecx, DWORD PTR _formattedMessage$[ebp]
	call	??0?$basic_string@DU?$char_traits@D@std@@V?$allocator@D@2@@std@@QAE@XZ ; std::basic_string<char,std::char_traits<char>,std::allocator<char> >::basic_string<char,std::char_traits<char>,std::allocator<char> >
	mov	DWORD PTR __$EHRec$[ebp+8], 0

; 861  :    for ( Errors::const_iterator itError = errors_.begin();

	lea	eax, DWORD PTR _itError$3[ebp]
	push	eax
	mov	ecx, DWORD PTR _this$[ebp]
	add	ecx, 20					; 00000014H
	call	?begin@?$deque@VErrorInfo@Reader@Json@@V?$allocator@VErrorInfo@Reader@Json@@@std@@@std@@QBE?AV?$_Deque_const_iterator@V?$_Deque_val@U?$_Deque_simple_types@VErrorInfo@Reader@Json@@@std@@@std@@@2@XZ ; std::deque<Json::Reader::ErrorInfo,std::allocator<Json::Reader::ErrorInfo> >::begin
	mov	BYTE PTR __$EHRec$[ebp+8], 1
	jmp	SHORT $LN4@getFormate
$LN3@getFormate:

; 862  :          itError != errors_.end();
; 863  :          ++itError )

	lea	ecx, DWORD PTR _itError$3[ebp]
	call	??E?$_Deque_const_iterator@V?$_Deque_val@U?$_Deque_simple_types@VErrorInfo@Reader@Json@@@std@@@std@@@std@@QAEAAV01@XZ ; std::_Deque_const_iterator<std::_Deque_val<std::_Deque_simple_types<Json::Reader::ErrorInfo> > >::operator++
$LN4@getFormate:
	lea	ecx, DWORD PTR $T2[ebp]
	push	ecx
	mov	ecx, DWORD PTR _this$[ebp]
	add	ecx, 20					; 00000014H
	call	?end@?$deque@VErrorInfo@Reader@Json@@V?$allocator@VErrorInfo@Reader@Json@@@std@@@std@@QBE?AV?$_Deque_const_iterator@V?$_Deque_val@U?$_Deque_simple_types@VErrorInfo@Reader@Json@@@std@@@std@@@2@XZ ; std::deque<Json::Reader::ErrorInfo,std::allocator<Json::Reader::ErrorInfo> >::end
	mov	DWORD PTR tv69[ebp], eax
	mov	edx, DWORD PTR tv69[ebp]
	mov	DWORD PTR tv185[ebp], edx
	mov	BYTE PTR __$EHRec$[ebp+8], 2
	mov	eax, DWORD PTR tv185[ebp]
	push	eax
	lea	ecx, DWORD PTR _itError$3[ebp]
	call	??9?$_Deque_const_iterator@V?$_Deque_val@U?$_Deque_simple_types@VErrorInfo@Reader@Json@@@std@@@std@@@std@@QBE_NABV01@@Z ; std::_Deque_const_iterator<std::_Deque_val<std::_Deque_simple_types<Json::Reader::ErrorInfo> > >::operator!=
	mov	BYTE PTR $T6[ebp], al
	mov	BYTE PTR __$EHRec$[ebp+8], 1
	lea	ecx, DWORD PTR $T2[ebp]
	call	??1?$_Deque_const_iterator@V?$_Deque_val@U?$_Deque_simple_types@VErrorInfo@Reader@Json@@@std@@@std@@@std@@QAE@XZ
	movzx	ecx, BYTE PTR $T6[ebp]
	test	ecx, ecx
	je	$LN2@getFormate

; 864  :    {
; 865  :       const ErrorInfo &error = *itError;

	lea	ecx, DWORD PTR _itError$3[ebp]
	call	??D?$_Deque_const_iterator@V?$_Deque_val@U?$_Deque_simple_types@VErrorInfo@Reader@Json@@@std@@@std@@@std@@QBEABVErrorInfo@Reader@Json@@XZ ; std::_Deque_const_iterator<std::_Deque_val<std::_Deque_simple_types<Json::Reader::ErrorInfo> > >::operator*
	mov	DWORD PTR _error$5[ebp], eax

; 866  :       formattedMessage += "* " + getLocationLineAndColumn( error.token_.start_ ) + "\n";

	push	OFFSET ??_C@_01EEMJAFIK@?6?$AA@
	mov	edx, DWORD PTR _error$5[ebp]
	mov	eax, DWORD PTR [edx+4]
	push	eax
	lea	ecx, DWORD PTR $T12[ebp]
	push	ecx
	mov	ecx, DWORD PTR _this$[ebp]
	call	?getLocationLineAndColumn@Reader@Json@@ABE?AV?$basic_string@DU?$char_traits@D@std@@V?$allocator@D@2@@std@@PBD@Z ; Json::Reader::getLocationLineAndColumn
	mov	DWORD PTR tv65[ebp], eax
	mov	edx, DWORD PTR tv65[ebp]
	mov	DWORD PTR tv187[ebp], edx
	mov	BYTE PTR __$EHRec$[ebp+8], 3
	mov	eax, DWORD PTR tv187[ebp]
	push	eax
	push	OFFSET ??_C@_02KAOAMBHJ@?$CK?5?$AA@
	lea	ecx, DWORD PTR $T13[ebp]
	push	ecx
	call	??$?HDU?$char_traits@D@std@@V?$allocator@D@1@@std@@YA?AV?$basic_string@DU?$char_traits@D@std@@V?$allocator@D@2@@0@PBD$$QAV10@@Z ; std::operator+<char,std::char_traits<char>,std::allocator<char> >
	add	esp, 12					; 0000000cH
	mov	DWORD PTR tv179[ebp], eax
	mov	edx, DWORD PTR tv179[ebp]
	mov	DWORD PTR tv189[ebp], edx
	mov	BYTE PTR __$EHRec$[ebp+8], 4
	mov	eax, DWORD PTR tv189[ebp]
	push	eax
	lea	ecx, DWORD PTR $T14[ebp]
	push	ecx
	call	??$?HDU?$char_traits@D@std@@V?$allocator@D@1@@std@@YA?AV?$basic_string@DU?$char_traits@D@std@@V?$allocator@D@2@@0@$$QAV10@PBD@Z ; std::operator+<char,std::char_traits<char>,std::allocator<char> >
	add	esp, 12					; 0000000cH
	mov	DWORD PTR tv207[ebp], eax
	mov	edx, DWORD PTR tv207[ebp]
	mov	DWORD PTR tv191[ebp], edx
	mov	BYTE PTR __$EHRec$[ebp+8], 5
	mov	eax, DWORD PTR tv191[ebp]
	push	eax
	lea	ecx, DWORD PTR _formattedMessage$[ebp]
	call	??Y?$basic_string@DU?$char_traits@D@std@@V?$allocator@D@2@@std@@QAEAAV01@ABV01@@Z ; std::basic_string<char,std::char_traits<char>,std::allocator<char> >::operator+=
	mov	BYTE PTR __$EHRec$[ebp+8], 4
	lea	ecx, DWORD PTR $T14[ebp]
	call	??1?$basic_string@DU?$char_traits@D@std@@V?$allocator@D@2@@std@@QAE@XZ ; std::basic_string<char,std::char_traits<char>,std::allocator<char> >::~basic_string<char,std::char_traits<char>,std::allocator<char> >
	mov	BYTE PTR __$EHRec$[ebp+8], 3
	lea	ecx, DWORD PTR $T13[ebp]
	call	??1?$basic_string@DU?$char_traits@D@std@@V?$allocator@D@2@@std@@QAE@XZ ; std::basic_string<char,std::char_traits<char>,std::allocator<char> >::~basic_string<char,std::char_traits<char>,std::allocator<char> >
	mov	BYTE PTR __$EHRec$[ebp+8], 1
	lea	ecx, DWORD PTR $T12[ebp]
	call	??1?$basic_string@DU?$char_traits@D@std@@V?$allocator@D@2@@std@@QAE@XZ ; std::basic_string<char,std::char_traits<char>,std::allocator<char> >::~basic_string<char,std::char_traits<char>,std::allocator<char> >

; 867  :       formattedMessage += "  " + error.message_ + "\n";

	push	OFFSET ??_C@_01EEMJAFIK@?6?$AA@
	mov	ecx, DWORD PTR _error$5[ebp]
	add	ecx, 12					; 0000000cH
	push	ecx
	push	OFFSET ??_C@_02KNHHEEKP@?5?5?$AA@
	lea	edx, DWORD PTR $T8[ebp]
	push	edx
	call	??$?HDU?$char_traits@D@std@@V?$allocator@D@1@@std@@YA?AV?$basic_string@DU?$char_traits@D@std@@V?$allocator@D@2@@0@PBDABV10@@Z ; std::operator+<char,std::char_traits<char>,std::allocator<char> >
	add	esp, 12					; 0000000cH
	mov	DWORD PTR tv208[ebp], eax
	mov	eax, DWORD PTR tv208[ebp]
	mov	DWORD PTR tv193[ebp], eax
	mov	BYTE PTR __$EHRec$[ebp+8], 6
	mov	ecx, DWORD PTR tv193[ebp]
	push	ecx
	lea	edx, DWORD PTR $T10[ebp]
	push	edx
	call	??$?HDU?$char_traits@D@std@@V?$allocator@D@1@@std@@YA?AV?$basic_string@DU?$char_traits@D@std@@V?$allocator@D@2@@0@$$QAV10@PBD@Z ; std::operator+<char,std::char_traits<char>,std::allocator<char> >
	add	esp, 12					; 0000000cH
	mov	DWORD PTR tv209[ebp], eax
	mov	eax, DWORD PTR tv209[ebp]
	mov	DWORD PTR tv195[ebp], eax
	mov	BYTE PTR __$EHRec$[ebp+8], 7
	mov	ecx, DWORD PTR tv195[ebp]
	push	ecx
	lea	ecx, DWORD PTR _formattedMessage$[ebp]
	call	??Y?$basic_string@DU?$char_traits@D@std@@V?$allocator@D@2@@std@@QAEAAV01@ABV01@@Z ; std::basic_string<char,std::char_traits<char>,std::allocator<char> >::operator+=
	mov	BYTE PTR __$EHRec$[ebp+8], 6
	lea	ecx, DWORD PTR $T10[ebp]
	call	??1?$basic_string@DU?$char_traits@D@std@@V?$allocator@D@2@@std@@QAE@XZ ; std::basic_string<char,std::char_traits<char>,std::allocator<char> >::~basic_string<char,std::char_traits<char>,std::allocator<char> >
	mov	BYTE PTR __$EHRec$[ebp+8], 1
	lea	ecx, DWORD PTR $T8[ebp]
	call	??1?$basic_string@DU?$char_traits@D@std@@V?$allocator@D@2@@std@@QAE@XZ ; std::basic_string<char,std::char_traits<char>,std::allocator<char> >::~basic_string<char,std::char_traits<char>,std::allocator<char> >

; 868  :       if ( error.extra_ )

	mov	edx, DWORD PTR _error$5[ebp]
	cmp	DWORD PTR [edx+36], 0
	je	$LN1@getFormate

; 869  :          formattedMessage += "See " + getLocationLineAndColumn( error.extra_ ) + " for detail.\n";

	push	OFFSET ??_C@_0O@JBAGGIKP@?5for?5detail?4?6?$AA@
	mov	eax, DWORD PTR _error$5[ebp]
	mov	ecx, DWORD PTR [eax+36]
	push	ecx
	lea	edx, DWORD PTR $T9[ebp]
	push	edx
	mov	ecx, DWORD PTR _this$[ebp]
	call	?getLocationLineAndColumn@Reader@Json@@ABE?AV?$basic_string@DU?$char_traits@D@std@@V?$allocator@D@2@@std@@PBD@Z ; Json::Reader::getLocationLineAndColumn
	mov	DWORD PTR tv210[ebp], eax
	mov	eax, DWORD PTR tv210[ebp]
	mov	DWORD PTR tv197[ebp], eax
	mov	BYTE PTR __$EHRec$[ebp+8], 8
	mov	ecx, DWORD PTR tv197[ebp]
	push	ecx
	push	OFFSET ??_C@_04JBAOJHKB@See?5?$AA@
	lea	edx, DWORD PTR $T11[ebp]
	push	edx
	call	??$?HDU?$char_traits@D@std@@V?$allocator@D@1@@std@@YA?AV?$basic_string@DU?$char_traits@D@std@@V?$allocator@D@2@@0@PBD$$QAV10@@Z ; std::operator+<char,std::char_traits<char>,std::allocator<char> >
	add	esp, 12					; 0000000cH
	mov	DWORD PTR tv211[ebp], eax
	mov	eax, DWORD PTR tv211[ebp]
	mov	DWORD PTR tv199[ebp], eax
	mov	BYTE PTR __$EHRec$[ebp+8], 9
	mov	ecx, DWORD PTR tv199[ebp]
	push	ecx
	lea	edx, DWORD PTR $T7[ebp]
	push	edx
	call	??$?HDU?$char_traits@D@std@@V?$allocator@D@1@@std@@YA?AV?$basic_string@DU?$char_traits@D@std@@V?$allocator@D@2@@0@$$QAV10@PBD@Z ; std::operator+<char,std::char_traits<char>,std::allocator<char> >
	add	esp, 12					; 0000000cH
	mov	DWORD PTR tv212[ebp], eax
	mov	eax, DWORD PTR tv212[ebp]
	mov	DWORD PTR tv201[ebp], eax
	mov	BYTE PTR __$EHRec$[ebp+8], 10		; 0000000aH
	mov	ecx, DWORD PTR tv201[ebp]
	push	ecx
	lea	ecx, DWORD PTR _formattedMessage$[ebp]
	call	??Y?$basic_string@DU?$char_traits@D@std@@V?$allocator@D@2@@std@@QAEAAV01@ABV01@@Z ; std::basic_string<char,std::char_traits<char>,std::allocator<char> >::operator+=
	mov	BYTE PTR __$EHRec$[ebp+8], 9
	lea	ecx, DWORD PTR $T7[ebp]
	call	??1?$basic_string@DU?$char_traits@D@std@@V?$allocator@D@2@@std@@QAE@XZ ; std::basic_string<char,std::char_traits<char>,std::allocator<char> >::~basic_string<char,std::char_traits<char>,std::allocator<char> >
	mov	BYTE PTR __$EHRec$[ebp+8], 8
	lea	ecx, DWORD PTR $T11[ebp]
	call	??1?$basic_string@DU?$char_traits@D@std@@V?$allocator@D@2@@std@@QAE@XZ ; std::basic_string<char,std::char_traits<char>,std::allocator<char> >::~basic_string<char,std::char_traits<char>,std::allocator<char> >
	mov	BYTE PTR __$EHRec$[ebp+8], 1
	lea	ecx, DWORD PTR $T9[ebp]
	call	??1?$basic_string@DU?$char_traits@D@std@@V?$allocator@D@2@@std@@QAE@XZ ; std::basic_string<char,std::char_traits<char>,std::allocator<char> >::~basic_string<char,std::char_traits<char>,std::allocator<char> >
$LN1@getFormate:

; 870  :    }

	jmp	$LN3@getFormate
$LN2@getFormate:
	mov	BYTE PTR __$EHRec$[ebp+8], 0
	lea	ecx, DWORD PTR _itError$3[ebp]
	call	??1?$_Deque_const_iterator@V?$_Deque_val@U?$_Deque_simple_types@VErrorInfo@Reader@Json@@@std@@@std@@@std@@QAE@XZ

; 871  :    return formattedMessage;

	lea	edx, DWORD PTR _formattedMessage$[ebp]
	push	edx
	mov	ecx, DWORD PTR ___$ReturnUdt$[ebp]
	call	??0?$basic_string@DU?$char_traits@D@std@@V?$allocator@D@2@@std@@QAE@$$QAV01@@Z ; std::basic_string<char,std::char_traits<char>,std::allocator<char> >::basic_string<char,std::char_traits<char>,std::allocator<char> >
	mov	eax, DWORD PTR $T4[ebp]
	or	eax, 1
	mov	DWORD PTR $T4[ebp], eax
	mov	DWORD PTR __$EHRec$[ebp+8], -1
	lea	ecx, DWORD PTR _formattedMessage$[ebp]
	call	??1?$basic_string@DU?$char_traits@D@std@@V?$allocator@D@2@@std@@QAE@XZ ; std::basic_string<char,std::char_traits<char>,std::allocator<char> >::~basic_string<char,std::char_traits<char>,std::allocator<char> >
	mov	eax, DWORD PTR ___$ReturnUdt$[ebp]

; 872  : }

	mov	ecx, DWORD PTR __$EHRec$[ebp]
	mov	DWORD PTR fs:0, ecx
	pop	ecx
	mov	ecx, DWORD PTR __$ArrayPad$[ebp]
	xor	ecx, ebp
	call	@__security_check_cookie@4
	mov	esp, ebp
	pop	ebp
	ret	4
_TEXT	ENDS
;	COMDAT text$x
text$x	SEGMENT
__unwindfunclet$?getFormatedErrorMessages@Reader@Json@@QBE?AV?$basic_string@DU?$char_traits@D@std@@V?$allocator@D@2@@std@@XZ$0:
	lea	ecx, DWORD PTR _formattedMessage$[ebp]
	jmp	??1?$basic_string@DU?$char_traits@D@std@@V?$allocator@D@2@@std@@QAE@XZ ; std::basic_string<char,std::char_traits<char>,std::allocator<char> >::~basic_string<char,std::char_traits<char>,std::allocator<char> >
__unwindfunclet$?getFormatedErrorMessages@Reader@Json@@QBE?AV?$basic_string@DU?$char_traits@D@std@@V?$allocator@D@2@@std@@XZ$1:
	lea	ecx, DWORD PTR _itError$3[ebp]
	jmp	??1?$_Deque_const_iterator@V?$_Deque_val@U?$_Deque_simple_types@VErrorInfo@Reader@Json@@@std@@@std@@@std@@QAE@XZ
__unwindfunclet$?getFormatedErrorMessages@Reader@Json@@QBE?AV?$basic_string@DU?$char_traits@D@std@@V?$allocator@D@2@@std@@XZ$2:
	lea	ecx, DWORD PTR $T2[ebp]
	jmp	??1?$_Deque_const_iterator@V?$_Deque_val@U?$_Deque_simple_types@VErrorInfo@Reader@Json@@@std@@@std@@@std@@QAE@XZ
__unwindfunclet$?getFormatedErrorMessages@Reader@Json@@QBE?AV?$basic_string@DU?$char_traits@D@std@@V?$allocator@D@2@@std@@XZ$3:
	lea	ecx, DWORD PTR $T12[ebp]
	jmp	??1?$basic_string@DU?$char_traits@D@std@@V?$allocator@D@2@@std@@QAE@XZ ; std::basic_string<char,std::char_traits<char>,std::allocator<char> >::~basic_string<char,std::char_traits<char>,std::allocator<char> >
__unwindfunclet$?getFormatedErrorMessages@Reader@Json@@QBE?AV?$basic_string@DU?$char_traits@D@std@@V?$allocator@D@2@@std@@XZ$4:
	lea	ecx, DWORD PTR $T13[ebp]
	jmp	??1?$basic_string@DU?$char_traits@D@std@@V?$allocator@D@2@@std@@QAE@XZ ; std::basic_string<char,std::char_traits<char>,std::allocator<char> >::~basic_string<char,std::char_traits<char>,std::allocator<char> >
__unwindfunclet$?getFormatedErrorMessages@Reader@Json@@QBE?AV?$basic_string@DU?$char_traits@D@std@@V?$allocator@D@2@@std@@XZ$5:
	lea	ecx, DWORD PTR $T14[ebp]
	jmp	??1?$basic_string@DU?$char_traits@D@std@@V?$allocator@D@2@@std@@QAE@XZ ; std::basic_string<char,std::char_traits<char>,std::allocator<char> >::~basic_string<char,std::char_traits<char>,std::allocator<char> >
__unwindfunclet$?getFormatedErrorMessages@Reader@Json@@QBE?AV?$basic_string@DU?$char_traits@D@std@@V?$allocator@D@2@@std@@XZ$6:
	lea	ecx, DWORD PTR $T8[ebp]
	jmp	??1?$basic_string@DU?$char_traits@D@std@@V?$allocator@D@2@@std@@QAE@XZ ; std::basic_string<char,std::char_traits<char>,std::allocator<char> >::~basic_string<char,std::char_traits<char>,std::allocator<char> >
__unwindfunclet$?getFormatedErrorMessages@Reader@Json@@QBE?AV?$basic_string@DU?$char_traits@D@std@@V?$allocator@D@2@@std@@XZ$7:
	lea	ecx, DWORD PTR $T10[ebp]
	jmp	??1?$basic_string@DU?$char_traits@D@std@@V?$allocator@D@2@@std@@QAE@XZ ; std::basic_string<char,std::char_traits<char>,std::allocator<char> >::~basic_string<char,std::char_traits<char>,std::allocator<char> >
__unwindfunclet$?getFormatedErrorMessages@Reader@Json@@QBE?AV?$basic_string@DU?$char_traits@D@std@@V?$allocator@D@2@@std@@XZ$8:
	lea	ecx, DWORD PTR $T9[ebp]
	jmp	??1?$basic_string@DU?$char_traits@D@std@@V?$allocator@D@2@@std@@QAE@XZ ; std::basic_string<char,std::char_traits<char>,std::allocator<char> >::~basic_string<char,std::char_traits<char>,std::allocator<char> >
__unwindfunclet$?getFormatedErrorMessages@Reader@Json@@QBE?AV?$basic_string@DU?$char_traits@D@std@@V?$allocator@D@2@@std@@XZ$9:
	lea	ecx, DWORD PTR $T11[ebp]
	jmp	??1?$basic_string@DU?$char_traits@D@std@@V?$allocator@D@2@@std@@QAE@XZ ; std::basic_string<char,std::char_traits<char>,std::allocator<char> >::~basic_string<char,std::char_traits<char>,std::allocator<char> >
__unwindfunclet$?getFormatedErrorMessages@Reader@Json@@QBE?AV?$basic_string@DU?$char_traits@D@std@@V?$allocator@D@2@@std@@XZ$10:
	lea	ecx, DWORD PTR $T7[ebp]
	jmp	??1?$basic_string@DU?$char_traits@D@std@@V?$allocator@D@2@@std@@QAE@XZ ; std::basic_string<char,std::char_traits<char>,std::allocator<char> >::~basic_string<char,std::char_traits<char>,std::allocator<char> >
__ehhandler$?getFormatedErrorMessages@Reader@Json@@QBE?AV?$basic_string@DU?$char_traits@D@std@@V?$allocator@D@2@@std@@XZ:
	mov	edx, DWORD PTR [esp+8]
	lea	eax, DWORD PTR [edx+12]
	mov	ecx, DWORD PTR [edx-336]
	xor	ecx, eax
	call	@__security_check_cookie@4
	mov	ecx, DWORD PTR [edx-4]
	xor	ecx, eax
	call	@__security_check_cookie@4
	mov	eax, OFFSET __ehfuncinfo$?getFormatedErrorMessages@Reader@Json@@QBE?AV?$basic_string@DU?$char_traits@D@std@@V?$allocator@D@2@@std@@XZ
	jmp	___CxxFrameHandler3
text$x	ENDS
?getFormatedErrorMessages@Reader@Json@@QBE?AV?$basic_string@DU?$char_traits@D@std@@V?$allocator@D@2@@std@@XZ ENDP ; Json::Reader::getFormatedErrorMessages
; Function compile flags: /Odtp
; File h:\source\hg\client\code_core\jsoncpp-src-0.5.0\src\lib_json\json_reader.cpp
;	COMDAT ?parse@Reader@Json@@QAE_NAAV?$basic_istream@DU?$char_traits@D@std@@@std@@AAVValue@2@_N@Z
_TEXT	SEGMENT
_this$ = -48						; size = 4
$T2 = -41						; size = 1
_doc$ = -40						; size = 24
__$ArrayPad$ = -16					; size = 4
__$EHRec$ = -12						; size = 12
_sin$ = 8						; size = 4
_root$ = 12						; size = 4
_collectComments$ = 16					; size = 1
?parse@Reader@Json@@QAE_NAAV?$basic_istream@DU?$char_traits@D@std@@@std@@AAVValue@2@_N@Z PROC ; Json::Reader::parse, COMDAT
; _this$ = ecx

; 137  : {

	push	ebp
	mov	ebp, esp
	push	-1
	push	__ehhandler$?parse@Reader@Json@@QAE_NAAV?$basic_istream@DU?$char_traits@D@std@@@std@@AAVValue@2@_N@Z
	mov	eax, DWORD PTR fs:0
	push	eax
	sub	esp, 36					; 00000024H
	mov	eax, DWORD PTR ___security_cookie
	xor	eax, ebp
	mov	DWORD PTR __$ArrayPad$[ebp], eax
	push	eax
	lea	eax, DWORD PTR __$EHRec$[ebp]
	mov	DWORD PTR fs:0, eax
	mov	DWORD PTR _this$[ebp], ecx

; 138  :    //std::istream_iterator<char> begin(sin);
; 139  :    //std::istream_iterator<char> end;
; 140  :    // Those would allow streamed input from a file, if parse() were a
; 141  :    // template function.
; 142  : 
; 143  :    // Since std::string is reference-counted, this at least does not
; 144  :    // create an extra copy.
; 145  :    std::string doc;

	lea	ecx, DWORD PTR _doc$[ebp]
	call	??0?$basic_string@DU?$char_traits@D@std@@V?$allocator@D@2@@std@@QAE@XZ ; std::basic_string<char,std::char_traits<char>,std::allocator<char> >::basic_string<char,std::char_traits<char>,std::allocator<char> >
	mov	DWORD PTR __$EHRec$[ebp+8], 0

; 146  :    std::getline(sin, doc, (char)EOF);

	push	-1
	lea	eax, DWORD PTR _doc$[ebp]
	push	eax
	mov	ecx, DWORD PTR _sin$[ebp]
	push	ecx
	call	??$getline@DU?$char_traits@D@std@@V?$allocator@D@2@@std@@YAAAV?$basic_istream@DU?$char_traits@D@std@@@0@AAV10@AAV?$basic_string@DU?$char_traits@D@std@@V?$allocator@D@2@@0@D@Z ; std::getline<char,std::char_traits<char>,std::allocator<char> >
	add	esp, 12					; 0000000cH

; 147  :    return parse( doc, root, collectComments );

	movzx	edx, BYTE PTR _collectComments$[ebp]
	push	edx
	mov	eax, DWORD PTR _root$[ebp]
	push	eax
	lea	ecx, DWORD PTR _doc$[ebp]
	push	ecx
	mov	ecx, DWORD PTR _this$[ebp]
	call	?parse@Reader@Json@@QAE_NABV?$basic_string@DU?$char_traits@D@std@@V?$allocator@D@2@@std@@AAVValue@2@_N@Z ; Json::Reader::parse
	mov	BYTE PTR $T2[ebp], al
	mov	DWORD PTR __$EHRec$[ebp+8], -1
	lea	ecx, DWORD PTR _doc$[ebp]
	call	??1?$basic_string@DU?$char_traits@D@std@@V?$allocator@D@2@@std@@QAE@XZ ; std::basic_string<char,std::char_traits<char>,std::allocator<char> >::~basic_string<char,std::char_traits<char>,std::allocator<char> >
	mov	al, BYTE PTR $T2[ebp]

; 148  : }

	mov	ecx, DWORD PTR __$EHRec$[ebp]
	mov	DWORD PTR fs:0, ecx
	pop	ecx
	mov	ecx, DWORD PTR __$ArrayPad$[ebp]
	xor	ecx, ebp
	call	@__security_check_cookie@4
	mov	esp, ebp
	pop	ebp
	ret	12					; 0000000cH
_TEXT	ENDS
;	COMDAT text$x
text$x	SEGMENT
__unwindfunclet$?parse@Reader@Json@@QAE_NAAV?$basic_istream@DU?$char_traits@D@std@@@std@@AAVValue@2@_N@Z$0:
	lea	ecx, DWORD PTR _doc$[ebp]
	jmp	??1?$basic_string@DU?$char_traits@D@std@@V?$allocator@D@2@@std@@QAE@XZ ; std::basic_string<char,std::char_traits<char>,std::allocator<char> >::~basic_string<char,std::char_traits<char>,std::allocator<char> >
__ehhandler$?parse@Reader@Json@@QAE_NAAV?$basic_istream@DU?$char_traits@D@std@@@std@@AAVValue@2@_N@Z:
	mov	edx, DWORD PTR [esp+8]
	lea	eax, DWORD PTR [edx+12]
	mov	ecx, DWORD PTR [edx-40]
	xor	ecx, eax
	call	@__security_check_cookie@4
	mov	ecx, DWORD PTR [edx-4]
	xor	ecx, eax
	call	@__security_check_cookie@4
	mov	eax, OFFSET __ehfuncinfo$?parse@Reader@Json@@QAE_NAAV?$basic_istream@DU?$char_traits@D@std@@@std@@AAVValue@2@_N@Z
	jmp	___CxxFrameHandler3
text$x	ENDS
?parse@Reader@Json@@QAE_NAAV?$basic_istream@DU?$char_traits@D@std@@@std@@AAVValue@2@_N@Z ENDP ; Json::Reader::parse
; Function compile flags: /Odtp
; File h:\source\hg\client\code_core\jsoncpp-src-0.5.0\src\lib_json\json_reader.cpp
;	COMDAT ?parse@Reader@Json@@QAE_NPBD0AAVValue@2@_N@Z
_TEXT	SEGMENT
_token$ = -60						; size = 12
_successful$ = -45					; size = 1
_this$ = -44						; size = 4
$T2 = -40						; size = 24
__$ArrayPad$ = -16					; size = 4
__$EHRec$ = -12						; size = 12
_beginDoc$ = 8						; size = 4
_endDoc$ = 12						; size = 4
_root$ = 16						; size = 4
_collectComments$ = 20					; size = 1
?parse@Reader@Json@@QAE_NPBD0AAVValue@2@_N@Z PROC	; Json::Reader::parse, COMDAT
; _this$ = ecx

; 154  : {

	push	ebp
	mov	ebp, esp
	push	-1
	push	__ehhandler$?parse@Reader@Json@@QAE_NPBD0AAVValue@2@_N@Z
	mov	eax, DWORD PTR fs:0
	push	eax
	sub	esp, 48					; 00000030H
	mov	eax, DWORD PTR ___security_cookie
	xor	eax, ebp
	mov	DWORD PTR __$ArrayPad$[ebp], eax
	push	eax
	lea	eax, DWORD PTR __$EHRec$[ebp]
	mov	DWORD PTR fs:0, eax
	mov	DWORD PTR _this$[ebp], ecx

; 155  :    if ( !features_.allowComments_ )

	mov	eax, DWORD PTR _this$[ebp]
	movzx	ecx, BYTE PTR [eax+108]
	test	ecx, ecx
	jne	SHORT $LN6@parse

; 156  :    {
; 157  :       collectComments = false;

	mov	BYTE PTR _collectComments$[ebp], 0
$LN6@parse:

; 158  :    }
; 159  : 
; 160  :    begin_ = beginDoc;

	mov	edx, DWORD PTR _this$[ebp]
	mov	eax, DWORD PTR _beginDoc$[ebp]
	mov	DWORD PTR [edx+64], eax

; 161  :    end_ = endDoc;

	mov	ecx, DWORD PTR _this$[ebp]
	mov	edx, DWORD PTR _endDoc$[ebp]
	mov	DWORD PTR [ecx+68], edx

; 162  :    collectComments_ = collectComments;

	mov	eax, DWORD PTR _this$[ebp]
	mov	cl, BYTE PTR _collectComments$[ebp]
	mov	BYTE PTR [eax+110], cl

; 163  :    current_ = begin_;

	mov	edx, DWORD PTR _this$[ebp]
	mov	eax, DWORD PTR _this$[ebp]
	mov	ecx, DWORD PTR [eax+64]
	mov	DWORD PTR [edx+72], ecx

; 164  :    lastValueEnd_ = 0;

	mov	edx, DWORD PTR _this$[ebp]
	mov	DWORD PTR [edx+76], 0

; 165  :    lastValue_ = 0;

	mov	eax, DWORD PTR _this$[ebp]
	mov	DWORD PTR [eax+80], 0

; 166  :    commentsBefore_ = "";

	push	OFFSET ??_C@_00CNPNBAHC@?$AA@
	mov	ecx, DWORD PTR _this$[ebp]
	add	ecx, 84					; 00000054H
	call	??4?$basic_string@DU?$char_traits@D@std@@V?$allocator@D@2@@std@@QAEAAV01@PBD@Z ; std::basic_string<char,std::char_traits<char>,std::allocator<char> >::operator=

; 167  :    errors_.clear();

	mov	ecx, DWORD PTR _this$[ebp]
	add	ecx, 20					; 00000014H
	call	?clear@?$deque@VErrorInfo@Reader@Json@@V?$allocator@VErrorInfo@Reader@Json@@@std@@@std@@QAEXXZ ; std::deque<Json::Reader::ErrorInfo,std::allocator<Json::Reader::ErrorInfo> >::clear
$LN5@parse:

; 168  :    while ( !nodes_.empty() )

	mov	ecx, DWORD PTR _this$[ebp]
	call	?empty@?$stack@PAVValue@Json@@V?$deque@PAVValue@Json@@V?$allocator@PAVValue@Json@@@std@@@std@@@std@@QBE_NXZ ; std::stack<Json::Value *,std::deque<Json::Value *,std::allocator<Json::Value *> > >::empty
	movzx	ecx, al
	test	ecx, ecx
	jne	SHORT $LN4@parse

; 169  :       nodes_.pop();

	mov	ecx, DWORD PTR _this$[ebp]
	call	?pop@?$stack@PAVValue@Json@@V?$deque@PAVValue@Json@@V?$allocator@PAVValue@Json@@@std@@@std@@@std@@QAEXXZ ; std::stack<Json::Value *,std::deque<Json::Value *,std::allocator<Json::Value *> > >::pop
	jmp	SHORT $LN5@parse
$LN4@parse:

; 170  :    nodes_.push( &root );

	lea	edx, DWORD PTR _root$[ebp]
	push	edx
	mov	ecx, DWORD PTR _this$[ebp]
	call	?push@?$stack@PAVValue@Json@@V?$deque@PAVValue@Json@@V?$allocator@PAVValue@Json@@@std@@@std@@@std@@QAEX$$QAPAVValue@Json@@@Z ; std::stack<Json::Value *,std::deque<Json::Value *,std::allocator<Json::Value *> > >::push

; 171  :    
; 172  :    bool successful = readValue();

	mov	ecx, DWORD PTR _this$[ebp]
	call	?readValue@Reader@Json@@AAE_NXZ		; Json::Reader::readValue
	mov	BYTE PTR _successful$[ebp], al

; 173  :    Token token;
; 174  :    skipCommentTokens( token );

	lea	eax, DWORD PTR _token$[ebp]
	push	eax
	mov	ecx, DWORD PTR _this$[ebp]
	call	?skipCommentTokens@Reader@Json@@AAEXAAVToken@12@@Z ; Json::Reader::skipCommentTokens

; 175  :    if ( collectComments_  &&  !commentsBefore_.empty() )

	mov	ecx, DWORD PTR _this$[ebp]
	movzx	edx, BYTE PTR [ecx+110]
	test	edx, edx
	je	SHORT $LN3@parse
	mov	ecx, DWORD PTR _this$[ebp]
	add	ecx, 84					; 00000054H
	call	?empty@?$basic_string@DU?$char_traits@D@std@@V?$allocator@D@2@@std@@QBE_NXZ ; std::basic_string<char,std::char_traits<char>,std::allocator<char> >::empty
	movzx	eax, al
	test	eax, eax
	jne	SHORT $LN3@parse

; 176  :       root.setComment( commentsBefore_, commentAfter );

	push	2
	mov	ecx, DWORD PTR _this$[ebp]
	add	ecx, 84					; 00000054H
	push	ecx
	mov	ecx, DWORD PTR _root$[ebp]
	call	?setComment@Value@Json@@QAEXABV?$basic_string@DU?$char_traits@D@std@@V?$allocator@D@2@@std@@W4CommentPlacement@2@@Z ; Json::Value::setComment
$LN3@parse:

; 177  :    if ( features_.strictRoot_ )

	mov	edx, DWORD PTR _this$[ebp]
	movzx	eax, BYTE PTR [edx+109]
	test	eax, eax
	je	SHORT $LN2@parse

; 178  :    {
; 179  :       if ( !root.isArray()  &&  !root.isObject() )

	mov	ecx, DWORD PTR _root$[ebp]
	call	?isArray@Value@Json@@QBE_NXZ		; Json::Value::isArray
	movzx	ecx, al
	test	ecx, ecx
	jne	SHORT $LN2@parse
	mov	ecx, DWORD PTR _root$[ebp]
	call	?isObject@Value@Json@@QBE_NXZ		; Json::Value::isObject
	movzx	edx, al
	test	edx, edx
	jne	SHORT $LN2@parse

; 180  :       {
; 181  :          // Set error location to start of doc, ideally should be first token found in doc
; 182  :          token.type_ = tokenError;

	mov	DWORD PTR _token$[ebp], 13		; 0000000dH

; 183  :          token.start_ = beginDoc;

	mov	eax, DWORD PTR _beginDoc$[ebp]
	mov	DWORD PTR _token$[ebp+4], eax

; 184  :          token.end_ = endDoc;

	mov	ecx, DWORD PTR _endDoc$[ebp]
	mov	DWORD PTR _token$[ebp+8], ecx

; 185  :          addError( "A valid JSON document must be either an array or an object value.",
; 186  :                    token );

	push	OFFSET ??_C@_0EC@HCHNIDLM@A?5valid?5JSON?5document?5must?5be?5ei@
	lea	ecx, DWORD PTR $T2[ebp]
	call	??0?$basic_string@DU?$char_traits@D@std@@V?$allocator@D@2@@std@@QAE@PBD@Z ; std::basic_string<char,std::char_traits<char>,std::allocator<char> >::basic_string<char,std::char_traits<char>,std::allocator<char> >
	mov	DWORD PTR __$EHRec$[ebp+8], 0
	push	0
	lea	edx, DWORD PTR _token$[ebp]
	push	edx
	lea	eax, DWORD PTR $T2[ebp]
	push	eax
	mov	ecx, DWORD PTR _this$[ebp]
	call	?addError@Reader@Json@@AAE_NABV?$basic_string@DU?$char_traits@D@std@@V?$allocator@D@2@@std@@AAVToken@12@PBD@Z ; Json::Reader::addError
	mov	DWORD PTR __$EHRec$[ebp+8], -1
	lea	ecx, DWORD PTR $T2[ebp]
	call	??1?$basic_string@DU?$char_traits@D@std@@V?$allocator@D@2@@std@@QAE@XZ ; std::basic_string<char,std::char_traits<char>,std::allocator<char> >::~basic_string<char,std::char_traits<char>,std::allocator<char> >

; 187  :          return false;

	xor	al, al
	jmp	SHORT $LN7@parse
$LN2@parse:

; 188  :       }
; 189  :    }
; 190  :    return successful;

	mov	al, BYTE PTR _successful$[ebp]
$LN7@parse:

; 191  : }

	mov	ecx, DWORD PTR __$EHRec$[ebp]
	mov	DWORD PTR fs:0, ecx
	pop	ecx
	mov	ecx, DWORD PTR __$ArrayPad$[ebp]
	xor	ecx, ebp
	call	@__security_check_cookie@4
	mov	esp, ebp
	pop	ebp
	ret	16					; 00000010H
_TEXT	ENDS
;	COMDAT text$x
text$x	SEGMENT
__unwindfunclet$?parse@Reader@Json@@QAE_NPBD0AAVValue@2@_N@Z$0:
	lea	ecx, DWORD PTR $T2[ebp]
	jmp	??1?$basic_string@DU?$char_traits@D@std@@V?$allocator@D@2@@std@@QAE@XZ ; std::basic_string<char,std::char_traits<char>,std::allocator<char> >::~basic_string<char,std::char_traits<char>,std::allocator<char> >
__ehhandler$?parse@Reader@Json@@QAE_NPBD0AAVValue@2@_N@Z:
	mov	edx, DWORD PTR [esp+8]
	lea	eax, DWORD PTR [edx+12]
	mov	ecx, DWORD PTR [edx-52]
	xor	ecx, eax
	call	@__security_check_cookie@4
	mov	ecx, DWORD PTR [edx-4]
	xor	ecx, eax
	call	@__security_check_cookie@4
	mov	eax, OFFSET __ehfuncinfo$?parse@Reader@Json@@QAE_NPBD0AAVValue@2@_N@Z
	jmp	___CxxFrameHandler3
text$x	ENDS
?parse@Reader@Json@@QAE_NPBD0AAVValue@2@_N@Z ENDP	; Json::Reader::parse
; Function compile flags: /Odtp
; File h:\source\hg\client\code_core\jsoncpp-src-0.5.0\src\lib_json\json_reader.cpp
;	COMDAT ?parse@Reader@Json@@QAE_NABV?$basic_string@DU?$char_traits@D@std@@V?$allocator@D@2@@std@@AAVValue@2@_N@Z
_TEXT	SEGMENT
_end$ = -12						; size = 4
_begin$ = -8						; size = 4
_this$ = -4						; size = 4
_document$ = 8						; size = 4
_root$ = 12						; size = 4
_collectComments$ = 16					; size = 1
?parse@Reader@Json@@QAE_NABV?$basic_string@DU?$char_traits@D@std@@V?$allocator@D@2@@std@@AAVValue@2@_N@Z PROC ; Json::Reader::parse, COMDAT
; _this$ = ecx

; 125  : {

	push	ebp
	mov	ebp, esp
	sub	esp, 12					; 0000000cH
	mov	DWORD PTR _this$[ebp], ecx

; 126  :    document_ = document;

	mov	eax, DWORD PTR _document$[ebp]
	push	eax
	mov	ecx, DWORD PTR _this$[ebp]
	add	ecx, 40					; 00000028H
	call	??4?$basic_string@DU?$char_traits@D@std@@V?$allocator@D@2@@std@@QAEAAV01@ABV01@@Z ; std::basic_string<char,std::char_traits<char>,std::allocator<char> >::operator=

; 127  :    const char *begin = document_.c_str();

	mov	ecx, DWORD PTR _this$[ebp]
	add	ecx, 40					; 00000028H
	call	?c_str@?$basic_string@DU?$char_traits@D@std@@V?$allocator@D@2@@std@@QBEPBDXZ ; std::basic_string<char,std::char_traits<char>,std::allocator<char> >::c_str
	mov	DWORD PTR _begin$[ebp], eax

; 128  :    const char *end = begin + document_.length();

	mov	ecx, DWORD PTR _this$[ebp]
	add	ecx, 40					; 00000028H
	call	?length@?$basic_string@DU?$char_traits@D@std@@V?$allocator@D@2@@std@@QBEIXZ ; std::basic_string<char,std::char_traits<char>,std::allocator<char> >::length
	add	eax, DWORD PTR _begin$[ebp]
	mov	DWORD PTR _end$[ebp], eax

; 129  :    return parse( begin, end, root, collectComments );

	movzx	ecx, BYTE PTR _collectComments$[ebp]
	push	ecx
	mov	edx, DWORD PTR _root$[ebp]
	push	edx
	mov	eax, DWORD PTR _end$[ebp]
	push	eax
	mov	ecx, DWORD PTR _begin$[ebp]
	push	ecx
	mov	ecx, DWORD PTR _this$[ebp]
	call	?parse@Reader@Json@@QAE_NPBD0AAVValue@2@_N@Z ; Json::Reader::parse

; 130  : }

	mov	esp, ebp
	pop	ebp
	ret	12					; 0000000cH
?parse@Reader@Json@@QAE_NABV?$basic_string@DU?$char_traits@D@std@@V?$allocator@D@2@@std@@AAVValue@2@_N@Z ENDP ; Json::Reader::parse
_TEXT	ENDS
; Function compile flags: /Odtp
; File h:\source\hg\client\code_core\jsoncpp-src-0.5.0\src\lib_json\json_reader.cpp
;	COMDAT ??0Reader@Json@@QAE@ABVFeatures@1@@Z
_TEXT	SEGMENT
_this$ = -16						; size = 4
__$EHRec$ = -12						; size = 12
_features$ = 8						; size = 4
??0Reader@Json@@QAE@ABVFeatures@1@@Z PROC		; Json::Reader::Reader, COMDAT
; _this$ = ecx

; 117  : {

	push	ebp
	mov	ebp, esp
	push	-1
	push	__ehhandler$??0Reader@Json@@QAE@ABVFeatures@1@@Z
	mov	eax, DWORD PTR fs:0
	push	eax
	push	ecx
	mov	eax, DWORD PTR ___security_cookie
	xor	eax, ebp
	push	eax
	lea	eax, DWORD PTR __$EHRec$[ebp]
	mov	DWORD PTR fs:0, eax
	mov	DWORD PTR _this$[ebp], ecx
	mov	ecx, DWORD PTR _this$[ebp]
	call	??0?$stack@PAVValue@Json@@V?$deque@PAVValue@Json@@V?$allocator@PAVValue@Json@@@std@@@std@@@std@@QAE@XZ ; std::stack<Json::Value *,std::deque<Json::Value *,std::allocator<Json::Value *> > >::stack<Json::Value *,std::deque<Json::Value *,std::allocator<Json::Value *> > >
	mov	DWORD PTR __$EHRec$[ebp+8], 0
	mov	ecx, DWORD PTR _this$[ebp]
	add	ecx, 20					; 00000014H
	call	??0?$deque@VErrorInfo@Reader@Json@@V?$allocator@VErrorInfo@Reader@Json@@@std@@@std@@QAE@XZ ; std::deque<Json::Reader::ErrorInfo,std::allocator<Json::Reader::ErrorInfo> >::deque<Json::Reader::ErrorInfo,std::allocator<Json::Reader::ErrorInfo> >
	mov	BYTE PTR __$EHRec$[ebp+8], 1
	mov	ecx, DWORD PTR _this$[ebp]
	add	ecx, 40					; 00000028H
	call	??0?$basic_string@DU?$char_traits@D@std@@V?$allocator@D@2@@std@@QAE@XZ ; std::basic_string<char,std::char_traits<char>,std::allocator<char> >::basic_string<char,std::char_traits<char>,std::allocator<char> >
	mov	BYTE PTR __$EHRec$[ebp+8], 2
	mov	ecx, DWORD PTR _this$[ebp]
	add	ecx, 84					; 00000054H
	call	??0?$basic_string@DU?$char_traits@D@std@@V?$allocator@D@2@@std@@QAE@XZ ; std::basic_string<char,std::char_traits<char>,std::allocator<char> >::basic_string<char,std::char_traits<char>,std::allocator<char> >
	mov	eax, DWORD PTR _features$[ebp]
	mov	cx, WORD PTR [eax]
	mov	edx, DWORD PTR _this$[ebp]
	mov	WORD PTR [edx+108], cx

; 118  : }

	mov	DWORD PTR __$EHRec$[ebp+8], -1
	mov	eax, DWORD PTR _this$[ebp]
	mov	ecx, DWORD PTR __$EHRec$[ebp]
	mov	DWORD PTR fs:0, ecx
	pop	ecx
	mov	esp, ebp
	pop	ebp
	ret	4
_TEXT	ENDS
;	COMDAT text$x
text$x	SEGMENT
__unwindfunclet$??0Reader@Json@@QAE@ABVFeatures@1@@Z$0:
	mov	ecx, DWORD PTR _this$[ebp]
	jmp	??1?$stack@PAVValue@Json@@V?$deque@PAVValue@Json@@V?$allocator@PAVValue@Json@@@std@@@std@@@std@@QAE@XZ
__unwindfunclet$??0Reader@Json@@QAE@ABVFeatures@1@@Z$1:
	mov	ecx, DWORD PTR _this$[ebp]
	add	ecx, 20					; 00000014H
	jmp	??1?$deque@VErrorInfo@Reader@Json@@V?$allocator@VErrorInfo@Reader@Json@@@std@@@std@@QAE@XZ ; std::deque<Json::Reader::ErrorInfo,std::allocator<Json::Reader::ErrorInfo> >::~deque<Json::Reader::ErrorInfo,std::allocator<Json::Reader::ErrorInfo> >
__unwindfunclet$??0Reader@Json@@QAE@ABVFeatures@1@@Z$2:
	mov	ecx, DWORD PTR _this$[ebp]
	add	ecx, 40					; 00000028H
	jmp	??1?$basic_string@DU?$char_traits@D@std@@V?$allocator@D@2@@std@@QAE@XZ ; std::basic_string<char,std::char_traits<char>,std::allocator<char> >::~basic_string<char,std::char_traits<char>,std::allocator<char> >
__ehhandler$??0Reader@Json@@QAE@ABVFeatures@1@@Z:
	mov	edx, DWORD PTR [esp+8]
	lea	eax, DWORD PTR [edx+12]
	mov	ecx, DWORD PTR [edx-8]
	xor	ecx, eax
	call	@__security_check_cookie@4
	mov	eax, OFFSET __ehfuncinfo$??0Reader@Json@@QAE@ABVFeatures@1@@Z
	jmp	___CxxFrameHandler3
text$x	ENDS
??0Reader@Json@@QAE@ABVFeatures@1@@Z ENDP		; Json::Reader::Reader
; Function compile flags: /Odtp
; File h:\source\hg\client\code_core\jsoncpp-src-0.5.0\src\lib_json\json_reader.cpp
;	COMDAT ??0Reader@Json@@QAE@XZ
_TEXT	SEGMENT
_this$ = -16						; size = 4
__$EHRec$ = -12						; size = 12
??0Reader@Json@@QAE@XZ PROC				; Json::Reader::Reader, COMDAT
; _this$ = ecx

; 111  : {

	push	ebp
	mov	ebp, esp
	push	-1
	push	__ehhandler$??0Reader@Json@@QAE@XZ
	mov	eax, DWORD PTR fs:0
	push	eax
	push	ecx
	mov	eax, DWORD PTR ___security_cookie
	xor	eax, ebp
	push	eax
	lea	eax, DWORD PTR __$EHRec$[ebp]
	mov	DWORD PTR fs:0, eax
	mov	DWORD PTR _this$[ebp], ecx
	mov	ecx, DWORD PTR _this$[ebp]
	call	??0?$stack@PAVValue@Json@@V?$deque@PAVValue@Json@@V?$allocator@PAVValue@Json@@@std@@@std@@@std@@QAE@XZ ; std::stack<Json::Value *,std::deque<Json::Value *,std::allocator<Json::Value *> > >::stack<Json::Value *,std::deque<Json::Value *,std::allocator<Json::Value *> > >
	mov	DWORD PTR __$EHRec$[ebp+8], 0
	mov	ecx, DWORD PTR _this$[ebp]
	add	ecx, 20					; 00000014H
	call	??0?$deque@VErrorInfo@Reader@Json@@V?$allocator@VErrorInfo@Reader@Json@@@std@@@std@@QAE@XZ ; std::deque<Json::Reader::ErrorInfo,std::allocator<Json::Reader::ErrorInfo> >::deque<Json::Reader::ErrorInfo,std::allocator<Json::Reader::ErrorInfo> >
	mov	BYTE PTR __$EHRec$[ebp+8], 1
	mov	ecx, DWORD PTR _this$[ebp]
	add	ecx, 40					; 00000028H
	call	??0?$basic_string@DU?$char_traits@D@std@@V?$allocator@D@2@@std@@QAE@XZ ; std::basic_string<char,std::char_traits<char>,std::allocator<char> >::basic_string<char,std::char_traits<char>,std::allocator<char> >
	mov	BYTE PTR __$EHRec$[ebp+8], 2
	mov	ecx, DWORD PTR _this$[ebp]
	add	ecx, 84					; 00000054H
	call	??0?$basic_string@DU?$char_traits@D@std@@V?$allocator@D@2@@std@@QAE@XZ ; std::basic_string<char,std::char_traits<char>,std::allocator<char> >::basic_string<char,std::char_traits<char>,std::allocator<char> >
	mov	BYTE PTR __$EHRec$[ebp+8], 3
	mov	eax, DWORD PTR _this$[ebp]
	add	eax, 108				; 0000006cH
	push	eax
	call	?all@Features@Json@@SA?AV12@XZ		; Json::Features::all
	add	esp, 4

; 112  : }

	mov	DWORD PTR __$EHRec$[ebp+8], -1
	mov	eax, DWORD PTR _this$[ebp]
	mov	ecx, DWORD PTR __$EHRec$[ebp]
	mov	DWORD PTR fs:0, ecx
	pop	ecx
	mov	esp, ebp
	pop	ebp
	ret	0
_TEXT	ENDS
;	COMDAT text$x
text$x	SEGMENT
__unwindfunclet$??0Reader@Json@@QAE@XZ$0:
	mov	ecx, DWORD PTR _this$[ebp]
	jmp	??1?$stack@PAVValue@Json@@V?$deque@PAVValue@Json@@V?$allocator@PAVValue@Json@@@std@@@std@@@std@@QAE@XZ
__unwindfunclet$??0Reader@Json@@QAE@XZ$1:
	mov	ecx, DWORD PTR _this$[ebp]
	add	ecx, 20					; 00000014H
	jmp	??1?$deque@VErrorInfo@Reader@Json@@V?$allocator@VErrorInfo@Reader@Json@@@std@@@std@@QAE@XZ ; std::deque<Json::Reader::ErrorInfo,std::allocator<Json::Reader::ErrorInfo> >::~deque<Json::Reader::ErrorInfo,std::allocator<Json::Reader::ErrorInfo> >
__unwindfunclet$??0Reader@Json@@QAE@XZ$2:
	mov	ecx, DWORD PTR _this$[ebp]
	add	ecx, 40					; 00000028H
	jmp	??1?$basic_string@DU?$char_traits@D@std@@V?$allocator@D@2@@std@@QAE@XZ ; std::basic_string<char,std::char_traits<char>,std::allocator<char> >::~basic_string<char,std::char_traits<char>,std::allocator<char> >
__unwindfunclet$??0Reader@Json@@QAE@XZ$3:
	mov	ecx, DWORD PTR _this$[ebp]
	add	ecx, 84					; 00000054H
	jmp	??1?$basic_string@DU?$char_traits@D@std@@V?$allocator@D@2@@std@@QAE@XZ ; std::basic_string<char,std::char_traits<char>,std::allocator<char> >::~basic_string<char,std::char_traits<char>,std::allocator<char> >
__ehhandler$??0Reader@Json@@QAE@XZ:
	mov	edx, DWORD PTR [esp+8]
	lea	eax, DWORD PTR [edx+12]
	mov	ecx, DWORD PTR [edx-8]
	xor	ecx, eax
	call	@__security_check_cookie@4
	mov	eax, OFFSET __ehfuncinfo$??0Reader@Json@@QAE@XZ
	jmp	___CxxFrameHandler3
text$x	ENDS
??0Reader@Json@@QAE@XZ ENDP				; Json::Reader::Reader
; Function compile flags: /Odtp
; File c:\program files (x86)\microsoft visual studio 12.0\vc\include\tuple
;	COMDAT ??__E_Tuple_alloc@std@@YAXXZ
text$di	SEGMENT
$T1 = -1						; size = 1
??__E_Tuple_alloc@std@@YAXXZ PROC			; std::`dynamic initializer for '_Tuple_alloc'', COMDAT

; 66   : const _Tuple_alloc_t _Tuple_alloc = _Tuple_alloc_t();

	push	ebp
	mov	ebp, esp
	push	ecx
	xor	eax, eax
	mov	BYTE PTR $T1[ebp], al
	mov	esp, ebp
	pop	ebp
	ret	0
??__E_Tuple_alloc@std@@YAXXZ ENDP			; std::`dynamic initializer for '_Tuple_alloc''
text$di	ENDS
; Function compile flags: /Odtp
; File c:\program files (x86)\microsoft visual studio 12.0\vc\include\tuple
;	COMDAT ??__Eignore@std@@YAXXZ
text$di	SEGMENT
??__Eignore@std@@YAXXZ PROC				; std::`dynamic initializer for 'ignore'', COMDAT

; 59   : const _Ignore ignore;

	push	ebp
	mov	ebp, esp
	mov	ecx, OFFSET _ignore
	call	??0_Ignore@std@@QAE@XZ			; std::_Ignore::_Ignore
	pop	ebp
	ret	0
??__Eignore@std@@YAXXZ ENDP				; std::`dynamic initializer for 'ignore''
text$di	ENDS
; Function compile flags: /Odtp
; File c:\program files (x86)\microsoft visual studio 12.0\vc\include\tuple
;	COMDAT ??0_Ignore@std@@QAE@XZ
_TEXT	SEGMENT
_this$ = -4						; size = 4
??0_Ignore@std@@QAE@XZ PROC				; std::_Ignore::_Ignore, COMDAT
; _this$ = ecx

; 49   : 	_Ignore()

	push	ebp
	mov	ebp, esp
	push	ecx
	mov	DWORD PTR _this$[ebp], ecx

; 50   : 		{	// construct
; 51   : 		}

	mov	eax, DWORD PTR _this$[ebp]
	mov	esp, ebp
	pop	ebp
	ret	0
??0_Ignore@std@@QAE@XZ ENDP				; std::_Ignore::_Ignore
_TEXT	ENDS
; Function compile flags: /Odtp
;	COMDAT ??1sentry@?$basic_istream@DU?$char_traits@D@std@@@std@@QAE@XZ
_TEXT	SEGMENT
_this$ = -4						; size = 4
??1sentry@?$basic_istream@DU?$char_traits@D@std@@@std@@QAE@XZ PROC ; std::basic_istream<char,std::char_traits<char> >::sentry::~sentry, COMDAT
; _this$ = ecx
	push	ebp
	mov	ebp, esp
	push	ecx
	mov	DWORD PTR _this$[ebp], ecx
	mov	ecx, DWORD PTR _this$[ebp]
	call	??1_Sentry_base@?$basic_istream@DU?$char_traits@D@std@@@std@@QAE@XZ ; std::basic_istream<char,std::char_traits<char> >::_Sentry_base::~_Sentry_base
	mov	esp, ebp
	pop	ebp
	ret	0
??1sentry@?$basic_istream@DU?$char_traits@D@std@@@std@@QAE@XZ ENDP ; std::basic_istream<char,std::char_traits<char> >::sentry::~sentry
_TEXT	ENDS
; Function compile flags: /Odtp
; File c:\program files (x86)\microsoft visual studio 12.0\vc\include\istream
;	COMDAT ??Bsentry@?$basic_istream@DU?$char_traits@D@std@@@std@@QBE_NXZ
_TEXT	SEGMENT
_this$ = -4						; size = 4
??Bsentry@?$basic_istream@DU?$char_traits@D@std@@@std@@QBE_NXZ PROC ; std::basic_istream<char,std::char_traits<char> >::sentry::operator bool, COMDAT
; _this$ = ecx

; 122  : 			{	// test if _Ipfx succeeded

	push	ebp
	mov	ebp, esp
	push	ecx
	mov	DWORD PTR _this$[ebp], ecx

; 123  : 			return (_Ok);

	mov	eax, DWORD PTR _this$[ebp]
	mov	al, BYTE PTR [eax+4]

; 124  : 			}

	mov	esp, ebp
	pop	ebp
	ret	0
??Bsentry@?$basic_istream@DU?$char_traits@D@std@@@std@@QBE_NXZ ENDP ; std::basic_istream<char,std::char_traits<char> >::sentry::operator bool
_TEXT	ENDS
; Function compile flags: /Odtp
; File c:\program files (x86)\microsoft visual studio 12.0\vc\include\istream
;	COMDAT ??0sentry@?$basic_istream@DU?$char_traits@D@std@@@std@@QAE@AAV12@_N@Z
_TEXT	SEGMENT
_this$ = -16						; size = 4
__$EHRec$ = -12						; size = 12
__Istr$ = 8						; size = 4
__Noskip$ = 12						; size = 1
??0sentry@?$basic_istream@DU?$char_traits@D@std@@@std@@QAE@AAV12@_N@Z PROC ; std::basic_istream<char,std::char_traits<char> >::sentry::sentry, COMDAT
; _this$ = ecx

; 117  : 			{	// construct locking and calling _Ipfx

	push	ebp
	mov	ebp, esp
	push	-1
	push	__ehhandler$??0sentry@?$basic_istream@DU?$char_traits@D@std@@@std@@QAE@AAV12@_N@Z
	mov	eax, DWORD PTR fs:0
	push	eax
	push	ecx
	mov	eax, DWORD PTR ___security_cookie
	xor	eax, ebp
	push	eax
	lea	eax, DWORD PTR __$EHRec$[ebp]
	mov	DWORD PTR fs:0, eax
	mov	DWORD PTR _this$[ebp], ecx
	mov	eax, DWORD PTR __Istr$[ebp]
	push	eax
	mov	ecx, DWORD PTR _this$[ebp]
	call	??0_Sentry_base@?$basic_istream@DU?$char_traits@D@std@@@std@@QAE@AAV12@@Z ; std::basic_istream<char,std::char_traits<char> >::_Sentry_base::_Sentry_base
	mov	DWORD PTR __$EHRec$[ebp+8], 0

; 118  : 			_Ok = this->_Myistr._Ipfx(_Noskip);

	movzx	ecx, BYTE PTR __Noskip$[ebp]
	push	ecx
	mov	edx, DWORD PTR _this$[ebp]
	mov	ecx, DWORD PTR [edx]
	call	DWORD PTR __imp_?_Ipfx@?$basic_istream@DU?$char_traits@D@std@@@std@@QAE_N_N@Z
	mov	ecx, DWORD PTR _this$[ebp]
	mov	BYTE PTR [ecx+4], al

; 119  : 			}

	mov	DWORD PTR __$EHRec$[ebp+8], -1
	mov	eax, DWORD PTR _this$[ebp]
	mov	ecx, DWORD PTR __$EHRec$[ebp]
	mov	DWORD PTR fs:0, ecx
	pop	ecx
	mov	esp, ebp
	pop	ebp
	ret	8
_TEXT	ENDS
;	COMDAT text$x
text$x	SEGMENT
__unwindfunclet$??0sentry@?$basic_istream@DU?$char_traits@D@std@@@std@@QAE@AAV12@_N@Z$0:
	mov	ecx, DWORD PTR _this$[ebp]
	jmp	??1_Sentry_base@?$basic_istream@DU?$char_traits@D@std@@@std@@QAE@XZ ; std::basic_istream<char,std::char_traits<char> >::_Sentry_base::~_Sentry_base
__ehhandler$??0sentry@?$basic_istream@DU?$char_traits@D@std@@@std@@QAE@AAV12@_N@Z:
	mov	edx, DWORD PTR [esp+8]
	lea	eax, DWORD PTR [edx+12]
	mov	ecx, DWORD PTR [edx-8]
	xor	ecx, eax
	call	@__security_check_cookie@4
	mov	eax, OFFSET __ehfuncinfo$??0sentry@?$basic_istream@DU?$char_traits@D@std@@@std@@QAE@AAV12@_N@Z
	jmp	___CxxFrameHandler3
text$x	ENDS
??0sentry@?$basic_istream@DU?$char_traits@D@std@@@std@@QAE@AAV12@_N@Z ENDP ; std::basic_istream<char,std::char_traits<char> >::sentry::sentry
; Function compile flags: /Odtp
; File c:\program files (x86)\microsoft visual studio 12.0\vc\include\istream
;	COMDAT ??1_Sentry_base@?$basic_istream@DU?$char_traits@D@std@@@std@@QAE@XZ
_TEXT	SEGMENT
tv92 = -16						; size = 4
tv86 = -12						; size = 4
_this$ = -8						; size = 4
tv72 = -4						; size = 4
??1_Sentry_base@?$basic_istream@DU?$char_traits@D@std@@@std@@QAE@XZ PROC ; std::basic_istream<char,std::char_traits<char> >::_Sentry_base::~_Sentry_base, COMDAT
; _this$ = ecx

; 100  : 			{	// destroy after unlocking

	push	ebp
	mov	ebp, esp
	sub	esp, 16					; 00000010H
	mov	DWORD PTR _this$[ebp], ecx

; 101  : 			if (_Myistr.rdbuf() != 0)

	mov	eax, DWORD PTR _this$[ebp]
	mov	ecx, DWORD PTR [eax]
	mov	DWORD PTR tv72[ebp], ecx
	mov	edx, DWORD PTR tv72[ebp]
	mov	eax, DWORD PTR [edx]
	mov	ecx, DWORD PTR tv72[ebp]
	add	ecx, DWORD PTR [eax+4]
	call	DWORD PTR __imp_?rdbuf@?$basic_ios@DU?$char_traits@D@std@@@std@@QBEPAV?$basic_streambuf@DU?$char_traits@D@std@@@2@XZ
	test	eax, eax
	je	SHORT $LN2@Sentry_bas

; 102  : 				_Myistr.rdbuf()->_Unlock();

	mov	ecx, DWORD PTR _this$[ebp]
	mov	edx, DWORD PTR [ecx]
	mov	DWORD PTR tv86[ebp], edx
	mov	eax, DWORD PTR tv86[ebp]
	mov	ecx, DWORD PTR [eax]
	mov	edx, DWORD PTR tv86[ebp]
	add	edx, DWORD PTR [ecx+4]
	mov	ecx, edx
	call	DWORD PTR __imp_?rdbuf@?$basic_ios@DU?$char_traits@D@std@@@std@@QBEPAV?$basic_streambuf@DU?$char_traits@D@std@@@2@XZ
	mov	DWORD PTR tv92[ebp], eax
	mov	eax, DWORD PTR tv92[ebp]
	mov	edx, DWORD PTR [eax]
	mov	ecx, DWORD PTR tv92[ebp]
	mov	eax, DWORD PTR [edx+8]
	call	eax
$LN2@Sentry_bas:

; 103  : 			}

	mov	esp, ebp
	pop	ebp
	ret	0
??1_Sentry_base@?$basic_istream@DU?$char_traits@D@std@@@std@@QAE@XZ ENDP ; std::basic_istream<char,std::char_traits<char> >::_Sentry_base::~_Sentry_base
_TEXT	ENDS
; Function compile flags: /Odtp
; File c:\program files (x86)\microsoft visual studio 12.0\vc\include\istream
;	COMDAT ??0_Sentry_base@?$basic_istream@DU?$char_traits@D@std@@@std@@QAE@AAV12@@Z
_TEXT	SEGMENT
tv93 = -16						; size = 4
tv87 = -12						; size = 4
tv73 = -8						; size = 4
_this$ = -4						; size = 4
__Istr$ = 8						; size = 4
??0_Sentry_base@?$basic_istream@DU?$char_traits@D@std@@@std@@QAE@AAV12@@Z PROC ; std::basic_istream<char,std::char_traits<char> >::_Sentry_base::_Sentry_base, COMDAT
; _this$ = ecx

; 94   : 			{	// lock the stream buffer, if there

	push	ebp
	mov	ebp, esp
	sub	esp, 16					; 00000010H
	mov	DWORD PTR _this$[ebp], ecx
	mov	eax, DWORD PTR _this$[ebp]
	mov	ecx, DWORD PTR __Istr$[ebp]
	mov	DWORD PTR [eax], ecx

; 95   : 			if (_Myistr.rdbuf() != 0)

	mov	edx, DWORD PTR _this$[ebp]
	mov	eax, DWORD PTR [edx]
	mov	DWORD PTR tv73[ebp], eax
	mov	ecx, DWORD PTR tv73[ebp]
	mov	edx, DWORD PTR [ecx]
	mov	ecx, DWORD PTR tv73[ebp]
	add	ecx, DWORD PTR [edx+4]
	call	DWORD PTR __imp_?rdbuf@?$basic_ios@DU?$char_traits@D@std@@@std@@QBEPAV?$basic_streambuf@DU?$char_traits@D@std@@@2@XZ
	test	eax, eax
	je	SHORT $LN2@Sentry_bas

; 96   : 				_Myistr.rdbuf()->_Lock();

	mov	eax, DWORD PTR _this$[ebp]
	mov	ecx, DWORD PTR [eax]
	mov	DWORD PTR tv87[ebp], ecx
	mov	edx, DWORD PTR tv87[ebp]
	mov	eax, DWORD PTR [edx]
	mov	ecx, DWORD PTR tv87[ebp]
	add	ecx, DWORD PTR [eax+4]
	call	DWORD PTR __imp_?rdbuf@?$basic_ios@DU?$char_traits@D@std@@@std@@QBEPAV?$basic_streambuf@DU?$char_traits@D@std@@@2@XZ
	mov	DWORD PTR tv93[ebp], eax
	mov	ecx, DWORD PTR tv93[ebp]
	mov	edx, DWORD PTR [ecx]
	mov	ecx, DWORD PTR tv93[ebp]
	mov	eax, DWORD PTR [edx+4]
	call	eax
$LN2@Sentry_bas:

; 97   : 			}

	mov	eax, DWORD PTR _this$[ebp]
	mov	esp, ebp
	pop	ebp
	ret	4
??0_Sentry_base@?$basic_istream@DU?$char_traits@D@std@@@std@@QAE@AAV12@@Z ENDP ; std::basic_istream<char,std::char_traits<char> >::_Sentry_base::_Sentry_base
_TEXT	ENDS
; Function compile flags: /Odtp
;	COMDAT ??_G_System_error_category@std@@UAEPAXI@Z
_TEXT	SEGMENT
_this$ = -4						; size = 4
___flags$ = 8						; size = 4
??_G_System_error_category@std@@UAEPAXI@Z PROC		; std::_System_error_category::`scalar deleting destructor', COMDAT
; _this$ = ecx
	push	ebp
	mov	ebp, esp
	push	ecx
	mov	DWORD PTR _this$[ebp], ecx
	mov	ecx, DWORD PTR _this$[ebp]
	call	??1_System_error_category@std@@UAE@XZ
	mov	eax, DWORD PTR ___flags$[ebp]
	and	eax, 1
	je	SHORT $LN1@scalar
	mov	ecx, DWORD PTR _this$[ebp]
	push	ecx
	call	??3@YAXPAX@Z				; operator delete
	add	esp, 4
$LN1@scalar:
	mov	eax, DWORD PTR _this$[ebp]
	mov	esp, ebp
	pop	ebp
	ret	4
??_G_System_error_category@std@@UAEPAXI@Z ENDP		; std::_System_error_category::`scalar deleting destructor'
_TEXT	ENDS
; Function compile flags: /Odtp
;	COMDAT ??1_System_error_category@std@@UAE@XZ
_TEXT	SEGMENT
_this$ = -4						; size = 4
??1_System_error_category@std@@UAE@XZ PROC		; std::_System_error_category::~_System_error_category, COMDAT
; _this$ = ecx
	push	ebp
	mov	ebp, esp
	push	ecx
	mov	DWORD PTR _this$[ebp], ecx
	mov	ecx, DWORD PTR _this$[ebp]
	call	??1_Generic_error_category@std@@UAE@XZ
	mov	esp, ebp
	pop	ebp
	ret	0
??1_System_error_category@std@@UAE@XZ ENDP		; std::_System_error_category::~_System_error_category
_TEXT	ENDS
; Function compile flags: /Odtp
; File c:\program files (x86)\microsoft visual studio 12.0\vc\include\system_error
;	COMDAT ?default_error_condition@_System_error_category@std@@UBE?AVerror_condition@2@H@Z
_TEXT	SEGMENT
_this$ = -4						; size = 4
___$ReturnUdt$ = 8					; size = 4
__Errval$ = 12						; size = 4
?default_error_condition@_System_error_category@std@@UBE?AVerror_condition@2@H@Z PROC ; std::_System_error_category::default_error_condition, COMDAT
; _this$ = ecx

; 614  : 		{	// make error_condition for error code (generic if possible)

	push	ebp
	mov	ebp, esp
	push	ecx
	mov	DWORD PTR _this$[ebp], ecx

; 615  : 		if (_Syserror_map(_Errval))

	mov	eax, DWORD PTR __Errval$[ebp]
	push	eax
	call	DWORD PTR __imp_?_Syserror_map@std@@YAPBDH@Z
	add	esp, 4
	test	eax, eax
	je	SHORT $LN2@default_er

; 616  : 			return (error_condition(_Errval, generic_category()));

	call	?generic_category@std@@YAABVerror_category@1@XZ ; std::generic_category
	push	eax
	mov	ecx, DWORD PTR __Errval$[ebp]
	push	ecx
	mov	ecx, DWORD PTR ___$ReturnUdt$[ebp]
	call	??0error_condition@std@@QAE@HABVerror_category@1@@Z ; std::error_condition::error_condition
	mov	eax, DWORD PTR ___$ReturnUdt$[ebp]
	jmp	SHORT $LN3@default_er

; 617  : 		else

	jmp	SHORT $LN3@default_er
$LN2@default_er:

; 618  : 			return (error_condition(_Errval, system_category()));

	call	?system_category@std@@YAABVerror_category@1@XZ ; std::system_category
	push	eax
	mov	edx, DWORD PTR __Errval$[ebp]
	push	edx
	mov	ecx, DWORD PTR ___$ReturnUdt$[ebp]
	call	??0error_condition@std@@QAE@HABVerror_category@1@@Z ; std::error_condition::error_condition
	mov	eax, DWORD PTR ___$ReturnUdt$[ebp]
$LN3@default_er:

; 619  : 		}

	mov	esp, ebp
	pop	ebp
	ret	8
?default_error_condition@_System_error_category@std@@UBE?AVerror_condition@2@H@Z ENDP ; std::_System_error_category::default_error_condition
_TEXT	ENDS
; Function compile flags: /Odtp
; File c:\program files (x86)\microsoft visual studio 12.0\vc\include\system_error
;	COMDAT ?message@_System_error_category@std@@UBE?AV?$basic_string@DU?$char_traits@D@std@@V?$allocator@D@2@@2@H@Z
_TEXT	SEGMENT
_this$ = -16						; size = 4
$T1 = -12						; size = 4
tv69 = -8						; size = 4
__Name$ = -4						; size = 4
___$ReturnUdt$ = 8					; size = 4
__Errcode$ = 12						; size = 4
?message@_System_error_category@std@@UBE?AV?$basic_string@DU?$char_traits@D@std@@V?$allocator@D@2@@2@H@Z PROC ; std::_System_error_category::message, COMDAT
; _this$ = ecx

; 607  : 		{	// convert to name of error

	push	ebp
	mov	ebp, esp
	sub	esp, 16					; 00000010H
	mov	DWORD PTR _this$[ebp], ecx
	mov	DWORD PTR $T1[ebp], 0

; 608  : 		const char *_Name = _Winerror_map(_Errcode);

	mov	eax, DWORD PTR __Errcode$[ebp]
	push	eax
	call	DWORD PTR __imp_?_Winerror_map@std@@YAPBDH@Z
	add	esp, 4
	mov	DWORD PTR __Name$[ebp], eax

; 609  : 		return (string(_Name != 0 ? _Name : "unknown error"));

	cmp	DWORD PTR __Name$[ebp], 0
	je	SHORT $LN3@message
	mov	ecx, DWORD PTR __Name$[ebp]
	mov	DWORD PTR tv69[ebp], ecx
	jmp	SHORT $LN4@message
$LN3@message:
	mov	DWORD PTR tv69[ebp], OFFSET ??_C@_0O@BFJCFAAK@unknown?5error?$AA@
$LN4@message:
	mov	edx, DWORD PTR tv69[ebp]
	push	edx
	mov	ecx, DWORD PTR ___$ReturnUdt$[ebp]
	call	??0?$basic_string@DU?$char_traits@D@std@@V?$allocator@D@2@@std@@QAE@PBD@Z ; std::basic_string<char,std::char_traits<char>,std::allocator<char> >::basic_string<char,std::char_traits<char>,std::allocator<char> >
	mov	eax, DWORD PTR $T1[ebp]
	or	eax, 1
	mov	DWORD PTR $T1[ebp], eax
	mov	eax, DWORD PTR ___$ReturnUdt$[ebp]

; 610  : 		}

	mov	esp, ebp
	pop	ebp
	ret	8
?message@_System_error_category@std@@UBE?AV?$basic_string@DU?$char_traits@D@std@@V?$allocator@D@2@@2@H@Z ENDP ; std::_System_error_category::message
_TEXT	ENDS
; Function compile flags: /Odtp
; File c:\program files (x86)\microsoft visual studio 12.0\vc\include\system_error
;	COMDAT ?name@_System_error_category@std@@UBEPBDXZ
_TEXT	SEGMENT
_this$ = -4						; size = 4
?name@_System_error_category@std@@UBEPBDXZ PROC		; std::_System_error_category::name, COMDAT
; _this$ = ecx

; 602  : 		{	// get name of category

	push	ebp
	mov	ebp, esp
	push	ecx
	mov	DWORD PTR _this$[ebp], ecx

; 603  : 		return ("system");

	mov	eax, OFFSET ??_C@_06FHFOAHML@system?$AA@

; 604  : 		}

	mov	esp, ebp
	pop	ebp
	ret	0
?name@_System_error_category@std@@UBEPBDXZ ENDP		; std::_System_error_category::name
_TEXT	ENDS
; Function compile flags: /Odtp
; File c:\program files (x86)\microsoft visual studio 12.0\vc\include\system_error
;	COMDAT ??0_System_error_category@std@@QAE@XZ
_TEXT	SEGMENT
_this$ = -4						; size = 4
??0_System_error_category@std@@QAE@XZ PROC		; std::_System_error_category::_System_error_category, COMDAT
; _this$ = ecx

; 597  : 	_System_error_category()

	push	ebp
	mov	ebp, esp
	push	ecx
	mov	DWORD PTR _this$[ebp], ecx
	mov	ecx, DWORD PTR _this$[ebp]
	call	??0_Generic_error_category@std@@QAE@XZ	; std::_Generic_error_category::_Generic_error_category
	mov	eax, DWORD PTR _this$[ebp]
	mov	DWORD PTR [eax], OFFSET ??_7_System_error_category@std@@6B@

; 598  : 		{	// default constructor
; 599  : 		}

	mov	eax, DWORD PTR _this$[ebp]
	mov	esp, ebp
	pop	ebp
	ret	0
??0_System_error_category@std@@QAE@XZ ENDP		; std::_System_error_category::_System_error_category
_TEXT	ENDS
; Function compile flags: /Odtp
;	COMDAT ??_G_Iostream_error_category@std@@UAEPAXI@Z
_TEXT	SEGMENT
_this$ = -4						; size = 4
___flags$ = 8						; size = 4
??_G_Iostream_error_category@std@@UAEPAXI@Z PROC	; std::_Iostream_error_category::`scalar deleting destructor', COMDAT
; _this$ = ecx
	push	ebp
	mov	ebp, esp
	push	ecx
	mov	DWORD PTR _this$[ebp], ecx
	mov	ecx, DWORD PTR _this$[ebp]
	call	??1_Iostream_error_category@std@@UAE@XZ
	mov	eax, DWORD PTR ___flags$[ebp]
	and	eax, 1
	je	SHORT $LN1@scalar
	mov	ecx, DWORD PTR _this$[ebp]
	push	ecx
	call	??3@YAXPAX@Z				; operator delete
	add	esp, 4
$LN1@scalar:
	mov	eax, DWORD PTR _this$[ebp]
	mov	esp, ebp
	pop	ebp
	ret	4
??_G_Iostream_error_category@std@@UAEPAXI@Z ENDP	; std::_Iostream_error_category::`scalar deleting destructor'
_TEXT	ENDS
; Function compile flags: /Odtp
;	COMDAT ??1_Iostream_error_category@std@@UAE@XZ
_TEXT	SEGMENT
_this$ = -4						; size = 4
??1_Iostream_error_category@std@@UAE@XZ PROC		; std::_Iostream_error_category::~_Iostream_error_category, COMDAT
; _this$ = ecx
	push	ebp
	mov	ebp, esp
	push	ecx
	mov	DWORD PTR _this$[ebp], ecx
	mov	ecx, DWORD PTR _this$[ebp]
	call	??1_Generic_error_category@std@@UAE@XZ
	mov	esp, ebp
	pop	ebp
	ret	0
??1_Iostream_error_category@std@@UAE@XZ ENDP		; std::_Iostream_error_category::~_Iostream_error_category
_TEXT	ENDS
; Function compile flags: /Odtp
; File c:\program files (x86)\microsoft visual studio 12.0\vc\include\system_error
;	COMDAT ?message@_Iostream_error_category@std@@UBE?AV?$basic_string@DU?$char_traits@D@std@@V?$allocator@D@2@@2@H@Z
_TEXT	SEGMENT
_this$ = -8						; size = 4
$T1 = -4						; size = 4
___$ReturnUdt$ = 8					; size = 4
__Errcode$ = 12						; size = 4
?message@_Iostream_error_category@std@@UBE?AV?$basic_string@DU?$char_traits@D@std@@V?$allocator@D@2@@2@H@Z PROC ; std::_Iostream_error_category::message, COMDAT
; _this$ = ecx

; 584  : 		{	// convert to name of error

	push	ebp
	mov	ebp, esp
	sub	esp, 8
	mov	DWORD PTR _this$[ebp], ecx
	mov	DWORD PTR $T1[ebp], 0

; 585  : 		if (_Errcode == (int)io_errc::stream)

	cmp	DWORD PTR __Errcode$[ebp], 1
	jne	SHORT $LN2@message

; 586  : 			return ("iostream stream error");

	push	OFFSET ??_C@_0BG@PADBLCHM@iostream?5stream?5error?$AA@
	mov	ecx, DWORD PTR ___$ReturnUdt$[ebp]
	call	??0?$basic_string@DU?$char_traits@D@std@@V?$allocator@D@2@@std@@QAE@PBD@Z ; std::basic_string<char,std::char_traits<char>,std::allocator<char> >::basic_string<char,std::char_traits<char>,std::allocator<char> >
	mov	eax, DWORD PTR $T1[ebp]
	or	eax, 1
	mov	DWORD PTR $T1[ebp], eax
	mov	eax, DWORD PTR ___$ReturnUdt$[ebp]
	jmp	SHORT $LN3@message

; 587  : 		else

	jmp	SHORT $LN3@message
$LN2@message:

; 588  : 			return (_Generic_error_category::message(_Errcode));

	mov	ecx, DWORD PTR __Errcode$[ebp]
	push	ecx
	mov	edx, DWORD PTR ___$ReturnUdt$[ebp]
	push	edx
	mov	ecx, DWORD PTR _this$[ebp]
	call	?message@_Generic_error_category@std@@UBE?AV?$basic_string@DU?$char_traits@D@std@@V?$allocator@D@2@@2@H@Z ; std::_Generic_error_category::message
	mov	eax, DWORD PTR $T1[ebp]
	or	eax, 1
	mov	DWORD PTR $T1[ebp], eax
	mov	eax, DWORD PTR ___$ReturnUdt$[ebp]
$LN3@message:

; 589  : 		}

	mov	esp, ebp
	pop	ebp
	ret	8
?message@_Iostream_error_category@std@@UBE?AV?$basic_string@DU?$char_traits@D@std@@V?$allocator@D@2@@2@H@Z ENDP ; std::_Iostream_error_category::message
_TEXT	ENDS
; Function compile flags: /Odtp
; File c:\program files (x86)\microsoft visual studio 12.0\vc\include\system_error
;	COMDAT ?name@_Iostream_error_category@std@@UBEPBDXZ
_TEXT	SEGMENT
_this$ = -4						; size = 4
?name@_Iostream_error_category@std@@UBEPBDXZ PROC	; std::_Iostream_error_category::name, COMDAT
; _this$ = ecx

; 579  : 		{	// get name of category

	push	ebp
	mov	ebp, esp
	push	ecx
	mov	DWORD PTR _this$[ebp], ecx

; 580  : 		return ("iostream");

	mov	eax, OFFSET ??_C@_08LLGCOLLL@iostream?$AA@

; 581  : 		}

	mov	esp, ebp
	pop	ebp
	ret	0
?name@_Iostream_error_category@std@@UBEPBDXZ ENDP	; std::_Iostream_error_category::name
_TEXT	ENDS
; Function compile flags: /Odtp
; File c:\program files (x86)\microsoft visual studio 12.0\vc\include\system_error
;	COMDAT ??0_Iostream_error_category@std@@QAE@XZ
_TEXT	SEGMENT
_this$ = -4						; size = 4
??0_Iostream_error_category@std@@QAE@XZ PROC		; std::_Iostream_error_category::_Iostream_error_category, COMDAT
; _this$ = ecx

; 574  : 	_Iostream_error_category()

	push	ebp
	mov	ebp, esp
	push	ecx
	mov	DWORD PTR _this$[ebp], ecx
	mov	ecx, DWORD PTR _this$[ebp]
	call	??0_Generic_error_category@std@@QAE@XZ	; std::_Generic_error_category::_Generic_error_category
	mov	eax, DWORD PTR _this$[ebp]
	mov	DWORD PTR [eax], OFFSET ??_7_Iostream_error_category@std@@6B@

; 575  : 		{	// default constructor
; 576  : 		}

	mov	eax, DWORD PTR _this$[ebp]
	mov	esp, ebp
	pop	ebp
	ret	0
??0_Iostream_error_category@std@@QAE@XZ ENDP		; std::_Iostream_error_category::_Iostream_error_category
_TEXT	ENDS
; Function compile flags: /Odtp
;	COMDAT ??_G_Generic_error_category@std@@UAEPAXI@Z
_TEXT	SEGMENT
_this$ = -4						; size = 4
___flags$ = 8						; size = 4
??_G_Generic_error_category@std@@UAEPAXI@Z PROC		; std::_Generic_error_category::`scalar deleting destructor', COMDAT
; _this$ = ecx
	push	ebp
	mov	ebp, esp
	push	ecx
	mov	DWORD PTR _this$[ebp], ecx
	mov	ecx, DWORD PTR _this$[ebp]
	call	??1_Generic_error_category@std@@UAE@XZ
	mov	eax, DWORD PTR ___flags$[ebp]
	and	eax, 1
	je	SHORT $LN1@scalar
	mov	ecx, DWORD PTR _this$[ebp]
	push	ecx
	call	??3@YAXPAX@Z				; operator delete
	add	esp, 4
$LN1@scalar:
	mov	eax, DWORD PTR _this$[ebp]
	mov	esp, ebp
	pop	ebp
	ret	4
??_G_Generic_error_category@std@@UAEPAXI@Z ENDP		; std::_Generic_error_category::`scalar deleting destructor'
_TEXT	ENDS
; Function compile flags: /Odtp
;	COMDAT ??1_Generic_error_category@std@@UAE@XZ
_TEXT	SEGMENT
_this$ = -4						; size = 4
??1_Generic_error_category@std@@UAE@XZ PROC		; std::_Generic_error_category::~_Generic_error_category, COMDAT
; _this$ = ecx
	push	ebp
	mov	ebp, esp
	push	ecx
	mov	DWORD PTR _this$[ebp], ecx
	mov	ecx, DWORD PTR _this$[ebp]
	call	??1error_category@std@@UAE@XZ		; std::error_category::~error_category
	mov	esp, ebp
	pop	ebp
	ret	0
??1_Generic_error_category@std@@UAE@XZ ENDP		; std::_Generic_error_category::~_Generic_error_category
_TEXT	ENDS
; Function compile flags: /Odtp
; File c:\program files (x86)\microsoft visual studio 12.0\vc\include\system_error
;	COMDAT ?message@_Generic_error_category@std@@UBE?AV?$basic_string@DU?$char_traits@D@std@@V?$allocator@D@2@@2@H@Z
_TEXT	SEGMENT
_this$ = -16						; size = 4
$T1 = -12						; size = 4
tv69 = -8						; size = 4
__Name$ = -4						; size = 4
___$ReturnUdt$ = 8					; size = 4
__Errcode$ = 12						; size = 4
?message@_Generic_error_category@std@@UBE?AV?$basic_string@DU?$char_traits@D@std@@V?$allocator@D@2@@2@H@Z PROC ; std::_Generic_error_category::message, COMDAT
; _this$ = ecx

; 563  : 		{	// convert to name of error

	push	ebp
	mov	ebp, esp
	sub	esp, 16					; 00000010H
	mov	DWORD PTR _this$[ebp], ecx
	mov	DWORD PTR $T1[ebp], 0

; 564  : 		const char *_Name = _Syserror_map(_Errcode);

	mov	eax, DWORD PTR __Errcode$[ebp]
	push	eax
	call	DWORD PTR __imp_?_Syserror_map@std@@YAPBDH@Z
	add	esp, 4
	mov	DWORD PTR __Name$[ebp], eax

; 565  : 		return (string(_Name != 0 ? _Name : "unknown error"));

	cmp	DWORD PTR __Name$[ebp], 0
	je	SHORT $LN3@message
	mov	ecx, DWORD PTR __Name$[ebp]
	mov	DWORD PTR tv69[ebp], ecx
	jmp	SHORT $LN4@message
$LN3@message:
	mov	DWORD PTR tv69[ebp], OFFSET ??_C@_0O@BFJCFAAK@unknown?5error?$AA@
$LN4@message:
	mov	edx, DWORD PTR tv69[ebp]
	push	edx
	mov	ecx, DWORD PTR ___$ReturnUdt$[ebp]
	call	??0?$basic_string@DU?$char_traits@D@std@@V?$allocator@D@2@@std@@QAE@PBD@Z ; std::basic_string<char,std::char_traits<char>,std::allocator<char> >::basic_string<char,std::char_traits<char>,std::allocator<char> >
	mov	eax, DWORD PTR $T1[ebp]
	or	eax, 1
	mov	DWORD PTR $T1[ebp], eax
	mov	eax, DWORD PTR ___$ReturnUdt$[ebp]

; 566  : 		}

	mov	esp, ebp
	pop	ebp
	ret	8
?message@_Generic_error_category@std@@UBE?AV?$basic_string@DU?$char_traits@D@std@@V?$allocator@D@2@@2@H@Z ENDP ; std::_Generic_error_category::message
_TEXT	ENDS
; Function compile flags: /Odtp
; File c:\program files (x86)\microsoft visual studio 12.0\vc\include\system_error
;	COMDAT ?name@_Generic_error_category@std@@UBEPBDXZ
_TEXT	SEGMENT
_this$ = -4						; size = 4
?name@_Generic_error_category@std@@UBEPBDXZ PROC	; std::_Generic_error_category::name, COMDAT
; _this$ = ecx

; 558  : 		{	// get name of category

	push	ebp
	mov	ebp, esp
	push	ecx
	mov	DWORD PTR _this$[ebp], ecx

; 559  : 		return ("generic");

	mov	eax, OFFSET ??_C@_07DCLBNMLN@generic?$AA@

; 560  : 		}

	mov	esp, ebp
	pop	ebp
	ret	0
?name@_Generic_error_category@std@@UBEPBDXZ ENDP	; std::_Generic_error_category::name
_TEXT	ENDS
; Function compile flags: /Odtp
; File c:\program files (x86)\microsoft visual studio 12.0\vc\include\system_error
;	COMDAT ??0_Generic_error_category@std@@QAE@XZ
_TEXT	SEGMENT
_this$ = -4						; size = 4
??0_Generic_error_category@std@@QAE@XZ PROC		; std::_Generic_error_category::_Generic_error_category, COMDAT
; _this$ = ecx

; 553  : 	_Generic_error_category()

	push	ebp
	mov	ebp, esp
	push	ecx
	mov	DWORD PTR _this$[ebp], ecx
	mov	ecx, DWORD PTR _this$[ebp]
	call	??0error_category@std@@QAE@XZ		; std::error_category::error_category
	mov	eax, DWORD PTR _this$[ebp]
	mov	DWORD PTR [eax], OFFSET ??_7_Generic_error_category@std@@6B@

; 554  : 		{	// default constructor
; 555  : 		}

	mov	eax, DWORD PTR _this$[ebp]
	mov	esp, ebp
	pop	ebp
	ret	0
??0_Generic_error_category@std@@QAE@XZ ENDP		; std::_Generic_error_category::_Generic_error_category
_TEXT	ENDS
; Function compile flags: /Odtp
; File c:\program files (x86)\microsoft visual studio 12.0\vc\include\system_error
;	COMDAT ??8error_condition@std@@QBE_NABV01@@Z
_TEXT	SEGMENT
tv78 = -8						; size = 4
_this$ = -4						; size = 4
__Right$ = 8						; size = 4
??8error_condition@std@@QBE_NABV01@@Z PROC		; std::error_condition::operator==, COMDAT
; _this$ = ecx

; 352  : 		{	// test if *this == _Right

	push	ebp
	mov	ebp, esp
	sub	esp, 8
	push	esi
	mov	DWORD PTR _this$[ebp], ecx

; 353  : 		return (category() == _Right.category()
; 354  : 			&& value() == _Right.value());

	mov	ecx, DWORD PTR __Right$[ebp]
	call	?category@error_condition@std@@QBEABVerror_category@2@XZ ; std::error_condition::category
	push	eax
	mov	ecx, DWORD PTR _this$[ebp]
	call	?category@error_condition@std@@QBEABVerror_category@2@XZ ; std::error_condition::category
	mov	ecx, eax
	call	??8error_category@std@@QBE_NABV01@@Z	; std::error_category::operator==
	movzx	eax, al
	test	eax, eax
	je	SHORT $LN3@operator
	mov	ecx, DWORD PTR _this$[ebp]
	call	?value@error_condition@std@@QBEHXZ	; std::error_condition::value
	mov	esi, eax
	mov	ecx, DWORD PTR __Right$[ebp]
	call	?value@error_condition@std@@QBEHXZ	; std::error_condition::value
	cmp	esi, eax
	jne	SHORT $LN3@operator
	mov	DWORD PTR tv78[ebp], 1
	jmp	SHORT $LN4@operator
$LN3@operator:
	mov	DWORD PTR tv78[ebp], 0
$LN4@operator:
	mov	al, BYTE PTR tv78[ebp]

; 355  : 		}

	pop	esi
	mov	esp, ebp
	pop	ebp
	ret	4
??8error_condition@std@@QBE_NABV01@@Z ENDP		; std::error_condition::operator==
_TEXT	ENDS
; Function compile flags: /Odtp
; File c:\program files (x86)\microsoft visual studio 12.0\vc\include\system_error
;	COMDAT ?category@error_condition@std@@QBEABVerror_category@2@XZ
_TEXT	SEGMENT
_this$ = -4						; size = 4
?category@error_condition@std@@QBEABVerror_category@2@XZ PROC ; std::error_condition::category, COMDAT
; _this$ = ecx

; 337  : 		{	// get category

	push	ebp
	mov	ebp, esp
	push	ecx
	mov	DWORD PTR _this$[ebp], ecx

; 338  : 		return (*_Mycat);

	mov	eax, DWORD PTR _this$[ebp]
	mov	eax, DWORD PTR [eax+4]

; 339  : 		}

	mov	esp, ebp
	pop	ebp
	ret	0
?category@error_condition@std@@QBEABVerror_category@2@XZ ENDP ; std::error_condition::category
_TEXT	ENDS
; Function compile flags: /Odtp
; File c:\program files (x86)\microsoft visual studio 12.0\vc\include\system_error
;	COMDAT ?value@error_condition@std@@QBEHXZ
_TEXT	SEGMENT
_this$ = -4						; size = 4
?value@error_condition@std@@QBEHXZ PROC			; std::error_condition::value, COMDAT
; _this$ = ecx

; 332  : 		{	// get error code

	push	ebp
	mov	ebp, esp
	push	ecx
	mov	DWORD PTR _this$[ebp], ecx

; 333  : 		return (_Myval);

	mov	eax, DWORD PTR _this$[ebp]
	mov	eax, DWORD PTR [eax]

; 334  : 		}

	mov	esp, ebp
	pop	ebp
	ret	0
?value@error_condition@std@@QBEHXZ ENDP			; std::error_condition::value
_TEXT	ENDS
; Function compile flags: /Odtp
; File c:\program files (x86)\microsoft visual studio 12.0\vc\include\system_error
;	COMDAT ??0error_condition@std@@QAE@HABVerror_category@1@@Z
_TEXT	SEGMENT
_this$ = -4						; size = 4
__Val$ = 8						; size = 4
__Cat$ = 12						; size = 4
??0error_condition@std@@QAE@HABVerror_category@1@@Z PROC ; std::error_condition::error_condition, COMDAT
; _this$ = ecx

; 299  : 		{	// construct from error code and category

	push	ebp
	mov	ebp, esp
	push	ecx
	mov	DWORD PTR _this$[ebp], ecx
	mov	eax, DWORD PTR _this$[ebp]
	mov	ecx, DWORD PTR __Val$[ebp]
	mov	DWORD PTR [eax], ecx
	mov	edx, DWORD PTR _this$[ebp]
	mov	eax, DWORD PTR __Cat$[ebp]
	mov	DWORD PTR [edx+4], eax

; 300  : 		}

	mov	eax, DWORD PTR _this$[ebp]
	mov	esp, ebp
	pop	ebp
	ret	8
??0error_condition@std@@QAE@HABVerror_category@1@@Z ENDP ; std::error_condition::error_condition
_TEXT	ENDS
; Function compile flags: /Odtp
; File c:\program files (x86)\microsoft visual studio 12.0\vc\include\system_error
;	COMDAT ?category@error_code@std@@QBEABVerror_category@2@XZ
_TEXT	SEGMENT
_this$ = -4						; size = 4
?category@error_code@std@@QBEABVerror_category@2@XZ PROC ; std::error_code::category, COMDAT
; _this$ = ecx

; 246  : 		{	// get category

	push	ebp
	mov	ebp, esp
	push	ecx
	mov	DWORD PTR _this$[ebp], ecx

; 247  : 		return (*_Mycat);

	mov	eax, DWORD PTR _this$[ebp]
	mov	eax, DWORD PTR [eax+4]

; 248  : 		}

	mov	esp, ebp
	pop	ebp
	ret	0
?category@error_code@std@@QBEABVerror_category@2@XZ ENDP ; std::error_code::category
_TEXT	ENDS
; Function compile flags: /Odtp
; File c:\program files (x86)\microsoft visual studio 12.0\vc\include\system_error
;	COMDAT ?value@error_code@std@@QBEHXZ
_TEXT	SEGMENT
_this$ = -4						; size = 4
?value@error_code@std@@QBEHXZ PROC			; std::error_code::value, COMDAT
; _this$ = ecx

; 241  : 		{	// get error code

	push	ebp
	mov	ebp, esp
	push	ecx
	mov	DWORD PTR _this$[ebp], ecx

; 242  : 		return (_Myval);

	mov	eax, DWORD PTR _this$[ebp]
	mov	eax, DWORD PTR [eax]

; 243  : 		}

	mov	esp, ebp
	pop	ebp
	ret	0
?value@error_code@std@@QBEHXZ ENDP			; std::error_code::value
_TEXT	ENDS
; Function compile flags: /Odtp
;	COMDAT ??_Gerror_category@std@@UAEPAXI@Z
_TEXT	SEGMENT
_this$ = -4						; size = 4
___flags$ = 8						; size = 4
??_Gerror_category@std@@UAEPAXI@Z PROC			; std::error_category::`scalar deleting destructor', COMDAT
; _this$ = ecx
	push	ebp
	mov	ebp, esp
	push	ecx
	mov	DWORD PTR _this$[ebp], ecx
	mov	ecx, DWORD PTR _this$[ebp]
	call	??1error_category@std@@UAE@XZ		; std::error_category::~error_category
	mov	eax, DWORD PTR ___flags$[ebp]
	and	eax, 1
	je	SHORT $LN1@scalar
	mov	ecx, DWORD PTR _this$[ebp]
	push	ecx
	call	??3@YAXPAX@Z				; operator delete
	add	esp, 4
$LN1@scalar:
	mov	eax, DWORD PTR _this$[ebp]
	mov	esp, ebp
	pop	ebp
	ret	4
??_Gerror_category@std@@UAEPAXI@Z ENDP			; std::error_category::`scalar deleting destructor'
_TEXT	ENDS
; Function compile flags: /Odtp
; File c:\program files (x86)\microsoft visual studio 12.0\vc\include\system_error
;	COMDAT ??8error_category@std@@QBE_NABV01@@Z
_TEXT	SEGMENT
_this$ = -8						; size = 4
tv65 = -4						; size = 4
__Right$ = 8						; size = 4
??8error_category@std@@QBE_NABV01@@Z PROC		; std::error_category::operator==, COMDAT
; _this$ = ecx

; 176  : 		{	// compare categories for equality

	push	ebp
	mov	ebp, esp
	sub	esp, 8
	mov	DWORD PTR _this$[ebp], ecx

; 177  : 		return (this == &_Right);

	mov	eax, DWORD PTR _this$[ebp]
	cmp	eax, DWORD PTR __Right$[ebp]
	jne	SHORT $LN3@operator
	mov	DWORD PTR tv65[ebp], 1
	jmp	SHORT $LN4@operator
$LN3@operator:
	mov	DWORD PTR tv65[ebp], 0
$LN4@operator:
	mov	al, BYTE PTR tv65[ebp]

; 178  : 		}

	mov	esp, ebp
	pop	ebp
	ret	4
??8error_category@std@@QBE_NABV01@@Z ENDP		; std::error_category::operator==
_TEXT	ENDS
; Function compile flags: /Odtp
; File c:\program files (x86)\microsoft visual studio 12.0\vc\include\system_error
;	COMDAT ?equivalent@error_category@std@@UBE_NABVerror_code@2@H@Z
_TEXT	SEGMENT
_this$ = -8						; size = 4
tv74 = -4						; size = 4
__Code$ = 8						; size = 4
__Errval$ = 12						; size = 4
?equivalent@error_category@std@@UBE_NABVerror_code@2@H@Z PROC ; std::error_category::equivalent, COMDAT
; _this$ = ecx

; 391  : 	{	// test if conditions same for this category

	push	ebp
	mov	ebp, esp
	sub	esp, 8
	mov	DWORD PTR _this$[ebp], ecx

; 392  : 	return (*this == _Code.category() && _Code.value() == _Errval);

	mov	ecx, DWORD PTR __Code$[ebp]
	call	?category@error_code@std@@QBEABVerror_category@2@XZ ; std::error_code::category
	push	eax
	mov	ecx, DWORD PTR _this$[ebp]
	call	??8error_category@std@@QBE_NABV01@@Z	; std::error_category::operator==
	movzx	eax, al
	test	eax, eax
	je	SHORT $LN3@equivalent
	mov	ecx, DWORD PTR __Code$[ebp]
	call	?value@error_code@std@@QBEHXZ		; std::error_code::value
	cmp	eax, DWORD PTR __Errval$[ebp]
	jne	SHORT $LN3@equivalent
	mov	DWORD PTR tv74[ebp], 1
	jmp	SHORT $LN4@equivalent
$LN3@equivalent:
	mov	DWORD PTR tv74[ebp], 0
$LN4@equivalent:
	mov	al, BYTE PTR tv74[ebp]

; 393  : 	}

	mov	esp, ebp
	pop	ebp
	ret	8
?equivalent@error_category@std@@UBE_NABVerror_code@2@H@Z ENDP ; std::error_category::equivalent
_TEXT	ENDS
; Function compile flags: /Odtp
; File c:\program files (x86)\microsoft visual studio 12.0\vc\include\system_error
;	COMDAT ?equivalent@error_category@std@@UBE_NHABVerror_condition@2@@Z
_TEXT	SEGMENT
$T1 = -12						; size = 8
_this$ = -4						; size = 4
__Errval$ = 8						; size = 4
__Cond$ = 12						; size = 4
?equivalent@error_category@std@@UBE_NHABVerror_condition@2@@Z PROC ; std::error_category::equivalent, COMDAT
; _this$ = ecx

; 384  : 	{	// test if error code same condition

	push	ebp
	mov	ebp, esp
	sub	esp, 12					; 0000000cH
	mov	DWORD PTR _this$[ebp], ecx

; 385  : 	return (default_error_condition(_Errval) == _Cond);

	mov	eax, DWORD PTR __Cond$[ebp]
	push	eax
	mov	ecx, DWORD PTR __Errval$[ebp]
	push	ecx
	lea	edx, DWORD PTR $T1[ebp]
	push	edx
	mov	eax, DWORD PTR _this$[ebp]
	mov	edx, DWORD PTR [eax]
	mov	ecx, DWORD PTR _this$[ebp]
	mov	eax, DWORD PTR [edx+12]
	call	eax
	mov	ecx, eax
	call	??8error_condition@std@@QBE_NABV01@@Z	; std::error_condition::operator==

; 386  : 	}

	mov	esp, ebp
	pop	ebp
	ret	8
?equivalent@error_category@std@@UBE_NHABVerror_condition@2@@Z ENDP ; std::error_category::equivalent
_TEXT	ENDS
; Function compile flags: /Odtp
; File c:\program files (x86)\microsoft visual studio 12.0\vc\include\system_error
;	COMDAT ?default_error_condition@error_category@std@@UBE?AVerror_condition@2@H@Z
_TEXT	SEGMENT
_this$ = -4						; size = 4
___$ReturnUdt$ = 8					; size = 4
__Errval$ = 12						; size = 4
?default_error_condition@error_category@std@@UBE?AVerror_condition@2@H@Z PROC ; std::error_category::default_error_condition, COMDAT
; _this$ = ecx

; 377  : 	{	// make error_condition for error code

	push	ebp
	mov	ebp, esp
	push	ecx
	mov	DWORD PTR _this$[ebp], ecx

; 378  : 	return (error_condition(_Errval, *this));

	mov	eax, DWORD PTR _this$[ebp]
	push	eax
	mov	ecx, DWORD PTR __Errval$[ebp]
	push	ecx
	mov	ecx, DWORD PTR ___$ReturnUdt$[ebp]
	call	??0error_condition@std@@QAE@HABVerror_category@1@@Z ; std::error_condition::error_condition
	mov	eax, DWORD PTR ___$ReturnUdt$[ebp]

; 379  : 	}

	mov	esp, ebp
	pop	ebp
	ret	8
?default_error_condition@error_category@std@@UBE?AVerror_condition@2@H@Z ENDP ; std::error_category::default_error_condition
_TEXT	ENDS
; Function compile flags: /Odtp
; File c:\program files (x86)\microsoft visual studio 12.0\vc\include\system_error
;	COMDAT ??1error_category@std@@UAE@XZ
_TEXT	SEGMENT
_this$ = -4						; size = 4
??1error_category@std@@UAE@XZ PROC			; std::error_category::~error_category, COMDAT
; _this$ = ecx

; 159  : 		{	// destroy the object

	push	ebp
	mov	ebp, esp
	push	ecx
	mov	DWORD PTR _this$[ebp], ecx
	mov	eax, DWORD PTR _this$[ebp]
	mov	DWORD PTR [eax], OFFSET ??_7error_category@std@@6B@

; 160  : 		}

	mov	esp, ebp
	pop	ebp
	ret	0
??1error_category@std@@UAE@XZ ENDP			; std::error_category::~error_category
_TEXT	ENDS
; Function compile flags: /Odtp
; File c:\program files (x86)\microsoft visual studio 12.0\vc\include\system_error
;	COMDAT ??0error_category@std@@QAE@XZ
_TEXT	SEGMENT
_this$ = -4						; size = 4
??0error_category@std@@QAE@XZ PROC			; std::error_category::error_category, COMDAT
; _this$ = ecx

; 154  : 	error_category()

	push	ebp
	mov	ebp, esp
	push	ecx
	mov	DWORD PTR _this$[ebp], ecx
	mov	eax, DWORD PTR _this$[ebp]
	mov	DWORD PTR [eax], OFFSET ??_7error_category@std@@6B@

; 155  : 		{	// default constructor
; 156  : 		}

	mov	eax, DWORD PTR _this$[ebp]
	mov	esp, ebp
	pop	ebp
	ret	0
??0error_category@std@@QAE@XZ ENDP			; std::error_category::error_category
_TEXT	ENDS
; Function compile flags: /Odtp
; File c:\program files (x86)\microsoft visual studio 12.0\vc\include\system_error
;	COMDAT ?system_category@std@@YAABVerror_category@1@XZ
_TEXT	SEGMENT
?system_category@std@@YAABVerror_category@1@XZ PROC	; std::system_category, COMDAT

; 652  : 	{	// get system_category

	push	ebp
	mov	ebp, esp

; 653  : 	return (_Error_objects<int>::_System_object);

	mov	eax, OFFSET ?_System_object@?$_Error_objects@H@std@@2V_System_error_category@2@A ; std::_Error_objects<int>::_System_object

; 654  : 	}

	pop	ebp
	ret	0
?system_category@std@@YAABVerror_category@1@XZ ENDP	; std::system_category
_TEXT	ENDS
; Function compile flags: /Odtp
; File c:\program files (x86)\microsoft visual studio 12.0\vc\include\system_error
;	COMDAT ?generic_category@std@@YAABVerror_category@1@XZ
_TEXT	SEGMENT
?generic_category@std@@YAABVerror_category@1@XZ PROC	; std::generic_category, COMDAT

; 642  : 	{	// get generic_category

	push	ebp
	mov	ebp, esp

; 643  : 	return (_Error_objects<int>::_Generic_object);

	mov	eax, OFFSET ?_Generic_object@?$_Error_objects@H@std@@2V_Generic_error_category@2@A ; std::_Error_objects<int>::_Generic_object

; 644  : 	}

	pop	ebp
	ret	0
?generic_category@std@@YAABVerror_category@1@XZ ENDP	; std::generic_category
_TEXT	ENDS
; Function compile flags: /Odtp
;	COMDAT ??_Gruntime_error@std@@UAEPAXI@Z
_TEXT	SEGMENT
_this$ = -4						; size = 4
___flags$ = 8						; size = 4
??_Gruntime_error@std@@UAEPAXI@Z PROC			; std::runtime_error::`scalar deleting destructor', COMDAT
; _this$ = ecx
	push	ebp
	mov	ebp, esp
	push	ecx
	mov	DWORD PTR _this$[ebp], ecx
	mov	ecx, DWORD PTR _this$[ebp]
	call	??1runtime_error@std@@UAE@XZ
	mov	eax, DWORD PTR ___flags$[ebp]
	and	eax, 1
	je	SHORT $LN1@scalar
	mov	ecx, DWORD PTR _this$[ebp]
	push	ecx
	call	??3@YAXPAX@Z				; operator delete
	add	esp, 4
$LN1@scalar:
	mov	eax, DWORD PTR _this$[ebp]
	mov	esp, ebp
	pop	ebp
	ret	4
??_Gruntime_error@std@@UAEPAXI@Z ENDP			; std::runtime_error::`scalar deleting destructor'
_TEXT	ENDS
; Function compile flags: /Odtp
;	COMDAT ??0runtime_error@std@@QAE@ABV01@@Z
_TEXT	SEGMENT
_this$ = -4						; size = 4
___that$ = 8						; size = 4
??0runtime_error@std@@QAE@ABV01@@Z PROC			; std::runtime_error::runtime_error, COMDAT
; _this$ = ecx
	push	ebp
	mov	ebp, esp
	push	ecx
	mov	DWORD PTR _this$[ebp], ecx
	mov	eax, DWORD PTR ___that$[ebp]
	push	eax
	mov	ecx, DWORD PTR _this$[ebp]
	call	DWORD PTR __imp_??0exception@std@@QAE@ABV01@@Z
	mov	ecx, DWORD PTR _this$[ebp]
	mov	DWORD PTR [ecx], OFFSET ??_7runtime_error@std@@6B@
	mov	eax, DWORD PTR _this$[ebp]
	mov	esp, ebp
	pop	ebp
	ret	4
??0runtime_error@std@@QAE@ABV01@@Z ENDP			; std::runtime_error::runtime_error
_TEXT	ENDS
; Function compile flags: /Odtp
;	COMDAT ??1runtime_error@std@@UAE@XZ
_TEXT	SEGMENT
_this$ = -4						; size = 4
??1runtime_error@std@@UAE@XZ PROC			; std::runtime_error::~runtime_error, COMDAT
; _this$ = ecx
	push	ebp
	mov	ebp, esp
	push	ecx
	mov	DWORD PTR _this$[ebp], ecx
	mov	ecx, DWORD PTR _this$[ebp]
	call	DWORD PTR __imp_??1exception@std@@UAE@XZ
	mov	esp, ebp
	pop	ebp
	ret	0
??1runtime_error@std@@UAE@XZ ENDP			; std::runtime_error::~runtime_error
_TEXT	ENDS
; Function compile flags: /Odtp
; File c:\program files (x86)\microsoft visual studio 12.0\vc\include\stdexcept
;	COMDAT ??0runtime_error@std@@QAE@ABV?$basic_string@DU?$char_traits@D@std@@V?$allocator@D@2@@1@@Z
_TEXT	SEGMENT
$T1 = -8						; size = 4
_this$ = -4						; size = 4
__Message$ = 8						; size = 4
??0runtime_error@std@@QAE@ABV?$basic_string@DU?$char_traits@D@std@@V?$allocator@D@2@@1@@Z PROC ; std::runtime_error::runtime_error, COMDAT
; _this$ = ecx

; 173  : 		{	// construct from message string

	push	ebp
	mov	ebp, esp
	sub	esp, 8
	mov	DWORD PTR _this$[ebp], ecx
	mov	ecx, DWORD PTR __Message$[ebp]
	call	?c_str@?$basic_string@DU?$char_traits@D@std@@V?$allocator@D@2@@std@@QBEPBDXZ ; std::basic_string<char,std::char_traits<char>,std::allocator<char> >::c_str
	mov	DWORD PTR $T1[ebp], eax
	lea	eax, DWORD PTR $T1[ebp]
	push	eax
	mov	ecx, DWORD PTR _this$[ebp]
	call	DWORD PTR __imp_??0exception@std@@QAE@ABQBD@Z
	mov	ecx, DWORD PTR _this$[ebp]
	mov	DWORD PTR [ecx], OFFSET ??_7runtime_error@std@@6B@

; 174  : 		}

	mov	eax, DWORD PTR _this$[ebp]
	mov	esp, ebp
	pop	ebp
	ret	4
??0runtime_error@std@@QAE@ABV?$basic_string@DU?$char_traits@D@std@@V?$allocator@D@2@@1@@Z ENDP ; std::runtime_error::runtime_error
_TEXT	ENDS
; Function compile flags: /Odtp
; File c:\program files (x86)\microsoft visual studio 12.0\vc\include\xstring
;	COMDAT ?_Xran@?$basic_string@DU?$char_traits@D@std@@V?$allocator@D@2@@std@@QBEXXZ
_TEXT	SEGMENT
_this$ = -4						; size = 4
?_Xran@?$basic_string@DU?$char_traits@D@std@@V?$allocator@D@2@@std@@QBEXXZ PROC ; std::basic_string<char,std::char_traits<char>,std::allocator<char> >::_Xran, COMDAT
; _this$ = ecx

; 2294 : 		{	// report an out_of_range error

	push	ebp
	mov	ebp, esp
	push	ecx
	mov	DWORD PTR _this$[ebp], ecx

; 2295 : 		_Xout_of_range("invalid string position");

	push	OFFSET ??_C@_0BI@CFPLBAOH@invalid?5string?5position?$AA@
	call	DWORD PTR __imp_?_Xout_of_range@std@@YAXPBD@Z
$LN2@Xran:

; 2296 : 		}

	mov	esp, ebp
	pop	ebp
	ret	0
?_Xran@?$basic_string@DU?$char_traits@D@std@@V?$allocator@D@2@@std@@QBEXXZ ENDP ; std::basic_string<char,std::char_traits<char>,std::allocator<char> >::_Xran
_TEXT	ENDS
; Function compile flags: /Odtp
; File c:\program files (x86)\microsoft visual studio 12.0\vc\include\xstring
;	COMDAT ?_Xlen@?$basic_string@DU?$char_traits@D@std@@V?$allocator@D@2@@std@@QBEXXZ
_TEXT	SEGMENT
_this$ = -4						; size = 4
?_Xlen@?$basic_string@DU?$char_traits@D@std@@V?$allocator@D@2@@std@@QBEXXZ PROC ; std::basic_string<char,std::char_traits<char>,std::allocator<char> >::_Xlen, COMDAT
; _this$ = ecx

; 2289 : 		{	// report a length_error

	push	ebp
	mov	ebp, esp
	push	ecx
	mov	DWORD PTR _this$[ebp], ecx

; 2290 : 		_Xlength_error("string too long");

	push	OFFSET ??_C@_0BA@JFNIOLAK@string?5too?5long?$AA@
	call	DWORD PTR __imp_?_Xlength_error@std@@YAXPBD@Z
$LN2@Xlen:

; 2291 : 		}

	mov	esp, ebp
	pop	ebp
	ret	0
?_Xlen@?$basic_string@DU?$char_traits@D@std@@V?$allocator@D@2@@std@@QBEXXZ ENDP ; std::basic_string<char,std::char_traits<char>,std::allocator<char> >::_Xlen
_TEXT	ENDS
; Function compile flags: /Odtp
; File c:\program files (x86)\microsoft visual studio 12.0\vc\include\xstring
;	COMDAT ?_Tidy@?$basic_string@DU?$char_traits@D@std@@V?$allocator@D@2@@std@@QAEX_NI@Z
_TEXT	SEGMENT
__Ptr$1 = -12						; size = 4
_this$ = -8						; size = 4
$T2 = -2						; size = 1
$T3 = -1						; size = 1
__Built$ = 8						; size = 1
__Newsize$ = 12						; size = 4
?_Tidy@?$basic_string@DU?$char_traits@D@std@@V?$allocator@D@2@@std@@QAEX_NI@Z PROC ; std::basic_string<char,std::char_traits<char>,std::allocator<char> >::_Tidy, COMDAT
; _this$ = ecx

; 2272 : 		{	// initialize buffer, deallocating any storage

	push	ebp
	mov	ebp, esp
	sub	esp, 12					; 0000000cH
	mov	DWORD PTR _this$[ebp], ecx

; 2273 : 		if (!_Built)

	movzx	eax, BYTE PTR __Built$[ebp]
	test	eax, eax
	jne	SHORT $LN4@Tidy
	jmp	SHORT $LN3@Tidy
$LN4@Tidy:

; 2274 : 			;
; 2275 : 		else if (this->_BUF_SIZE <= this->_Myres)

	mov	ecx, DWORD PTR _this$[ebp]
	cmp	DWORD PTR [ecx+20], 16			; 00000010H
	jb	SHORT $LN3@Tidy

; 2276 : 			{	// copy any leftovers to small buffer and deallocate
; 2277 : 			pointer _Ptr = this->_Bx._Ptr;

	mov	edx, DWORD PTR _this$[ebp]
	mov	eax, DWORD PTR [edx]
	mov	DWORD PTR __Ptr$1[ebp], eax

; 2278 : 			this->_Getal().destroy(&this->_Bx._Ptr);

	mov	ecx, DWORD PTR _this$[ebp]
	push	ecx
	lea	edx, DWORD PTR $T3[ebp]
	push	edx
	mov	ecx, DWORD PTR _this$[ebp]
	call	?_Getal@?$_String_alloc@$0A@U?$_String_base_types@DV?$allocator@D@std@@@std@@@std@@QBE?AU?$_Wrap_alloc@V?$allocator@D@std@@@2@XZ ; std::_String_alloc<0,std::_String_base_types<char,std::allocator<char> > >::_Getal
	mov	ecx, eax
	call	??$destroy@PAD@?$_Wrap_alloc@V?$allocator@D@std@@@std@@QAEXPAPAD@Z ; std::_Wrap_alloc<std::allocator<char> >::destroy<char *>

; 2279 : 			if (0 < _Newsize)

	cmp	DWORD PTR __Newsize$[ebp], 0
	jbe	SHORT $LN1@Tidy

; 2280 : 				_Traits::copy(this->_Bx._Buf,
; 2281 : 					_STD addressof(*_Ptr), _Newsize);

	mov	eax, DWORD PTR __Newsize$[ebp]
	push	eax
	mov	ecx, DWORD PTR __Ptr$1[ebp]
	push	ecx
	call	??$addressof@D@std@@YAPADAAD@Z		; std::addressof<char>
	add	esp, 4
	push	eax
	mov	edx, DWORD PTR _this$[ebp]
	push	edx
	call	?copy@?$char_traits@D@std@@SAPADPADPBDI@Z ; std::char_traits<char>::copy
	add	esp, 12					; 0000000cH
$LN1@Tidy:

; 2282 : 			this->_Getal().deallocate(_Ptr, this->_Myres + 1);

	mov	eax, DWORD PTR _this$[ebp]
	mov	ecx, DWORD PTR [eax+20]
	add	ecx, 1
	push	ecx
	mov	edx, DWORD PTR __Ptr$1[ebp]
	push	edx
	lea	eax, DWORD PTR $T2[ebp]
	push	eax
	mov	ecx, DWORD PTR _this$[ebp]
	call	?_Getal@?$_String_alloc@$0A@U?$_String_base_types@DV?$allocator@D@std@@@std@@@std@@QBE?AU?$_Wrap_alloc@V?$allocator@D@std@@@2@XZ ; std::_String_alloc<0,std::_String_base_types<char,std::allocator<char> > >::_Getal
	mov	ecx, eax
	call	?deallocate@?$_Wrap_alloc@V?$allocator@D@std@@@std@@QAEXPADI@Z ; std::_Wrap_alloc<std::allocator<char> >::deallocate
$LN3@Tidy:

; 2283 : 			}
; 2284 : 		this->_Myres = this->_BUF_SIZE - 1;

	mov	ecx, DWORD PTR _this$[ebp]
	mov	DWORD PTR [ecx+20], 15			; 0000000fH

; 2285 : 		_Eos(_Newsize);

	mov	edx, DWORD PTR __Newsize$[ebp]
	push	edx
	mov	ecx, DWORD PTR _this$[ebp]
	call	?_Eos@?$basic_string@DU?$char_traits@D@std@@V?$allocator@D@2@@std@@QAEXI@Z ; std::basic_string<char,std::char_traits<char>,std::allocator<char> >::_Eos

; 2286 : 		}

	mov	esp, ebp
	pop	ebp
	ret	8
?_Tidy@?$basic_string@DU?$char_traits@D@std@@V?$allocator@D@2@@std@@QAEX_NI@Z ENDP ; std::basic_string<char,std::char_traits<char>,std::allocator<char> >::_Tidy
_TEXT	ENDS
; Function compile flags: /Odtp
; File c:\program files (x86)\microsoft visual studio 12.0\vc\include\xstring
;	COMDAT ?_Inside@?$basic_string@DU?$char_traits@D@std@@V?$allocator@D@2@@std@@QAE_NPBD@Z
_TEXT	SEGMENT
_this$ = -4						; size = 4
__Ptr$ = 8						; size = 4
?_Inside@?$basic_string@DU?$char_traits@D@std@@V?$allocator@D@2@@std@@QAE_NPBD@Z PROC ; std::basic_string<char,std::char_traits<char>,std::allocator<char> >::_Inside, COMDAT
; _this$ = ecx

; 2256 : 		{	// test if _Ptr points inside string

	push	ebp
	mov	ebp, esp
	push	ecx
	mov	DWORD PTR _this$[ebp], ecx

; 2257 : 		if (_Ptr == 0 || _Ptr < this->_Myptr()
; 2258 : 			|| this->_Myptr() + this->_Mysize <= _Ptr)

	cmp	DWORD PTR __Ptr$[ebp], 0
	je	SHORT $LN2@Inside
	mov	ecx, DWORD PTR _this$[ebp]
	call	?_Myptr@?$_String_val@U?$_Simple_types@D@std@@@std@@QAEPADXZ ; std::_String_val<std::_Simple_types<char> >::_Myptr
	cmp	DWORD PTR __Ptr$[ebp], eax
	jb	SHORT $LN2@Inside
	mov	ecx, DWORD PTR _this$[ebp]
	call	?_Myptr@?$_String_val@U?$_Simple_types@D@std@@@std@@QAEPADXZ ; std::_String_val<std::_Simple_types<char> >::_Myptr
	mov	ecx, DWORD PTR _this$[ebp]
	add	eax, DWORD PTR [ecx+16]
	cmp	eax, DWORD PTR __Ptr$[ebp]
	ja	SHORT $LN3@Inside
$LN2@Inside:

; 2259 : 			return (false);	// don't ask

	xor	al, al
	jmp	SHORT $LN4@Inside

; 2260 : 		else

	jmp	SHORT $LN4@Inside
$LN3@Inside:

; 2261 : 			return (true);

	mov	al, 1
$LN4@Inside:

; 2262 : 		}

	mov	esp, ebp
	pop	ebp
	ret	4
?_Inside@?$basic_string@DU?$char_traits@D@std@@V?$allocator@D@2@@std@@QAE_NPBD@Z ENDP ; std::basic_string<char,std::char_traits<char>,std::allocator<char> >::_Inside
_TEXT	ENDS
; Function compile flags: /Odtp
; File c:\program files (x86)\microsoft visual studio 12.0\vc\include\xstring
;	COMDAT ?_Grow@?$basic_string@DU?$char_traits@D@std@@V?$allocator@D@2@@std@@QAE_NI_N@Z
_TEXT	SEGMENT
tv136 = -12						; size = 4
tv129 = -8						; size = 4
_this$ = -4						; size = 4
__Newsize$ = 8						; size = 4
__Trim$ = 12						; size = 1
?_Grow@?$basic_string@DU?$char_traits@D@std@@V?$allocator@D@2@@std@@QAE_NI_N@Z PROC ; std::basic_string<char,std::char_traits<char>,std::allocator<char> >::_Grow, COMDAT
; _this$ = ecx

; 2242 : 		{	// ensure buffer is big enough, trim to size if _Trim is true

	push	ebp
	mov	ebp, esp
	sub	esp, 12					; 0000000cH
	mov	DWORD PTR _this$[ebp], ecx

; 2243 : 		if (max_size() < _Newsize)

	mov	ecx, DWORD PTR _this$[ebp]
	call	?max_size@?$basic_string@DU?$char_traits@D@std@@V?$allocator@D@2@@std@@QBEIXZ ; std::basic_string<char,std::char_traits<char>,std::allocator<char> >::max_size
	cmp	eax, DWORD PTR __Newsize$[ebp]
	jae	SHORT $LN6@Grow

; 2244 : 			_Xlen();	// result too long

	mov	ecx, DWORD PTR _this$[ebp]
	call	?_Xlen@?$basic_string@DU?$char_traits@D@std@@V?$allocator@D@2@@std@@QBEXXZ ; std::basic_string<char,std::char_traits<char>,std::allocator<char> >::_Xlen
$LN6@Grow:

; 2245 : 		if (this->_Myres < _Newsize)

	mov	eax, DWORD PTR _this$[ebp]
	mov	ecx, DWORD PTR [eax+20]
	cmp	ecx, DWORD PTR __Newsize$[ebp]
	jae	SHORT $LN5@Grow

; 2246 : 			_Copy(_Newsize, this->_Mysize);	// reallocate to grow

	mov	edx, DWORD PTR _this$[ebp]
	mov	eax, DWORD PTR [edx+16]
	push	eax
	mov	ecx, DWORD PTR __Newsize$[ebp]
	push	ecx
	mov	ecx, DWORD PTR _this$[ebp]
	call	?_Copy@?$basic_string@DU?$char_traits@D@std@@V?$allocator@D@2@@std@@QAEXII@Z ; std::basic_string<char,std::char_traits<char>,std::allocator<char> >::_Copy
	jmp	SHORT $LN4@Grow
$LN5@Grow:

; 2247 : 		else if (_Trim && _Newsize < this->_BUF_SIZE)

	movzx	edx, BYTE PTR __Trim$[ebp]
	test	edx, edx
	je	SHORT $LN3@Grow
	cmp	DWORD PTR __Newsize$[ebp], 16		; 00000010H
	jae	SHORT $LN3@Grow

; 2248 : 			_Tidy(true,	// copy and deallocate if trimming to small string
; 2249 : 				_Newsize < this->_Mysize ? _Newsize : this->_Mysize);

	mov	eax, DWORD PTR _this$[ebp]
	mov	ecx, DWORD PTR __Newsize$[ebp]
	cmp	ecx, DWORD PTR [eax+16]
	jae	SHORT $LN9@Grow
	mov	edx, DWORD PTR __Newsize$[ebp]
	mov	DWORD PTR tv129[ebp], edx
	jmp	SHORT $LN10@Grow
$LN9@Grow:
	mov	eax, DWORD PTR _this$[ebp]
	mov	ecx, DWORD PTR [eax+16]
	mov	DWORD PTR tv129[ebp], ecx
$LN10@Grow:
	mov	edx, DWORD PTR tv129[ebp]
	push	edx
	push	1
	mov	ecx, DWORD PTR _this$[ebp]
	call	?_Tidy@?$basic_string@DU?$char_traits@D@std@@V?$allocator@D@2@@std@@QAEX_NI@Z ; std::basic_string<char,std::char_traits<char>,std::allocator<char> >::_Tidy
	jmp	SHORT $LN4@Grow
$LN3@Grow:

; 2250 : 		else if (_Newsize == 0)

	cmp	DWORD PTR __Newsize$[ebp], 0
	jne	SHORT $LN4@Grow

; 2251 : 			_Eos(0);	// new size is zero, just null terminate

	push	0
	mov	ecx, DWORD PTR _this$[ebp]
	call	?_Eos@?$basic_string@DU?$char_traits@D@std@@V?$allocator@D@2@@std@@QAEXI@Z ; std::basic_string<char,std::char_traits<char>,std::allocator<char> >::_Eos
$LN4@Grow:

; 2252 : 		return (0 < _Newsize);	// return true only if more work to do

	cmp	DWORD PTR __Newsize$[ebp], 0
	jbe	SHORT $LN11@Grow
	mov	DWORD PTR tv136[ebp], 1
	jmp	SHORT $LN12@Grow
$LN11@Grow:
	mov	DWORD PTR tv136[ebp], 0
$LN12@Grow:
	mov	al, BYTE PTR tv136[ebp]
$LN8@Grow:

; 2253 : 		}

	mov	esp, ebp
	pop	ebp
	ret	8
?_Grow@?$basic_string@DU?$char_traits@D@std@@V?$allocator@D@2@@std@@QAE_NI_N@Z ENDP ; std::basic_string<char,std::char_traits<char>,std::allocator<char> >::_Grow
_TEXT	ENDS
; Function compile flags: /Odtp
; File c:\program files (x86)\microsoft visual studio 12.0\vc\include\xstring
;	COMDAT ?_Eos@?$basic_string@DU?$char_traits@D@std@@V?$allocator@D@2@@std@@QAEXI@Z
_TEXT	SEGMENT
_this$ = -8						; size = 4
$T1 = -1						; size = 1
__Newsize$ = 8						; size = 4
?_Eos@?$basic_string@DU?$char_traits@D@std@@V?$allocator@D@2@@std@@QAEXI@Z PROC ; std::basic_string<char,std::char_traits<char>,std::allocator<char> >::_Eos, COMDAT
; _this$ = ecx

; 2236 : 		{	// set new length and null terminator

	push	ebp
	mov	ebp, esp
	sub	esp, 8
	mov	DWORD PTR _this$[ebp], ecx

; 2237 : 		_Traits::assign(this->_Myptr()[this->_Mysize = _Newsize], _Elem());

	mov	BYTE PTR $T1[ebp], 0
	mov	eax, DWORD PTR _this$[ebp]
	mov	ecx, DWORD PTR __Newsize$[ebp]
	mov	DWORD PTR [eax+16], ecx
	lea	edx, DWORD PTR $T1[ebp]
	push	edx
	mov	ecx, DWORD PTR _this$[ebp]
	call	?_Myptr@?$_String_val@U?$_Simple_types@D@std@@@std@@QAEPADXZ ; std::_String_val<std::_Simple_types<char> >::_Myptr
	add	eax, DWORD PTR __Newsize$[ebp]
	push	eax
	call	?assign@?$char_traits@D@std@@SAXAADABD@Z ; std::char_traits<char>::assign
	add	esp, 8

; 2238 : 		}

	mov	esp, ebp
	pop	ebp
	ret	4
?_Eos@?$basic_string@DU?$char_traits@D@std@@V?$allocator@D@2@@std@@QAEXI@Z ENDP ; std::basic_string<char,std::char_traits<char>,std::allocator<char> >::_Eos
_TEXT	ENDS
; Function compile flags: /Odtp
; File c:\program files (x86)\microsoft visual studio 12.0\vc\include\xstring
;	COMDAT ?_Copy@?$basic_string@DU?$char_traits@D@std@@V?$allocator@D@2@@std@@QAEXII@Z
_TEXT	SEGMENT
tv205 = -48						; size = 4
tv204 = -44						; size = 4
tv203 = -40						; size = 4
tv202 = -36						; size = 4
__Ptr$ = -32						; size = 4
__Newres$ = -28						; size = 4
_this$ = -24						; size = 4
$T2 = -19						; size = 1
$T3 = -18						; size = 1
$T4 = -17						; size = 1
__$EHRec$ = -16						; size = 16
__Newsize$ = 8						; size = 4
__Oldlen$ = 12						; size = 4
?_Copy@?$basic_string@DU?$char_traits@D@std@@V?$allocator@D@2@@std@@QAEXII@Z PROC ; std::basic_string<char,std::char_traits<char>,std::allocator<char> >::_Copy, COMDAT
; _this$ = ecx

; 2201 : 		{	// copy _Oldlen elements to newly allocated buffer

	push	ebp
	mov	ebp, esp
	push	-1
	push	__ehhandler$?_Copy@?$basic_string@DU?$char_traits@D@std@@V?$allocator@D@2@@std@@QAEXII@Z
	mov	eax, DWORD PTR fs:0
	push	eax
	push	ecx
	sub	esp, 32					; 00000020H
	push	ebx
	push	esi
	push	edi
	mov	eax, DWORD PTR ___security_cookie
	xor	eax, ebp
	push	eax
	lea	eax, DWORD PTR __$EHRec$[ebp+4]
	mov	DWORD PTR fs:0, eax
	mov	DWORD PTR __$EHRec$[ebp], esp
	mov	DWORD PTR _this$[ebp], ecx

; 2202 : 		size_type _Newres = _Newsize | this->_ALLOC_MASK;

	mov	eax, DWORD PTR __Newsize$[ebp]
	or	eax, 15					; 0000000fH
	mov	DWORD PTR __Newres$[ebp], eax

; 2203 : 		if (max_size() < _Newres)

	mov	ecx, DWORD PTR _this$[ebp]
	call	?max_size@?$basic_string@DU?$char_traits@D@std@@V?$allocator@D@2@@std@@QBEIXZ ; std::basic_string<char,std::char_traits<char>,std::allocator<char> >::max_size
	cmp	eax, DWORD PTR __Newres$[ebp]
	jae	SHORT $LN9@Copy

; 2204 : 			_Newres = _Newsize;	// undo roundup if too big

	mov	ecx, DWORD PTR __Newsize$[ebp]
	mov	DWORD PTR __Newres$[ebp], ecx
	jmp	SHORT $LN8@Copy
$LN9@Copy:

; 2205 : 		else if (this->_Myres / 2 <= _Newres / 3)

	mov	eax, DWORD PTR __Newres$[ebp]
	xor	edx, edx
	mov	ecx, 3
	div	ecx
	mov	edx, DWORD PTR _this$[ebp]
	mov	ecx, DWORD PTR [edx+20]
	shr	ecx, 1
	cmp	ecx, eax
	ja	SHORT $LN7@Copy
	jmp	SHORT $LN8@Copy
$LN7@Copy:

; 2206 : 			;
; 2207 : 		else if (this->_Myres <= max_size() - this->_Myres / 2)

	mov	edx, DWORD PTR _this$[ebp]
	mov	esi, DWORD PTR [edx+20]
	shr	esi, 1
	mov	ecx, DWORD PTR _this$[ebp]
	call	?max_size@?$basic_string@DU?$char_traits@D@std@@V?$allocator@D@2@@std@@QBEIXZ ; std::basic_string<char,std::char_traits<char>,std::allocator<char> >::max_size
	sub	eax, esi
	mov	ecx, DWORD PTR _this$[ebp]
	cmp	DWORD PTR [ecx+20], eax
	ja	SHORT $LN5@Copy

; 2208 : 			_Newres = this->_Myres
; 2209 : 				+ this->_Myres / 2;	// grow exponentially if possible

	mov	edx, DWORD PTR _this$[ebp]
	mov	eax, DWORD PTR [edx+20]
	shr	eax, 1
	mov	ecx, DWORD PTR _this$[ebp]
	add	eax, DWORD PTR [ecx+20]
	mov	DWORD PTR __Newres$[ebp], eax

; 2210 : 		else

	jmp	SHORT $LN8@Copy
$LN5@Copy:

; 2211 : 			_Newres = max_size();	// settle for max_size()

	mov	ecx, DWORD PTR _this$[ebp]
	call	?max_size@?$basic_string@DU?$char_traits@D@std@@V?$allocator@D@2@@std@@QBEIXZ ; std::basic_string<char,std::char_traits<char>,std::allocator<char> >::max_size
	mov	DWORD PTR __Newres$[ebp], eax
$LN8@Copy:

; 2212 : 
; 2213 : 		_Elem *_Ptr;
; 2214 : 		_TRY_BEGIN

	mov	DWORD PTR __$EHRec$[ebp+12], 0

; 2215 : 			_Ptr = this->_Getal().allocate(_Newres + 1);

	lea	edx, DWORD PTR $T4[ebp]
	push	edx
	mov	ecx, DWORD PTR _this$[ebp]
	call	?_Getal@?$_String_alloc@$0A@U?$_String_base_types@DV?$allocator@D@std@@@std@@@std@@QBE?AU?$_Wrap_alloc@V?$allocator@D@std@@@2@XZ ; std::_String_alloc<0,std::_String_base_types<char,std::allocator<char> > >::_Getal
	mov	DWORD PTR tv202[ebp], eax
	mov	eax, DWORD PTR __Newres$[ebp]
	add	eax, 1
	push	eax
	mov	ecx, DWORD PTR tv202[ebp]
	call	?allocate@?$_Wrap_alloc@V?$allocator@D@std@@@std@@QAEPADI@Z ; std::_Wrap_alloc<std::allocator<char> >::allocate
	mov	DWORD PTR tv203[ebp], eax
	mov	ecx, DWORD PTR tv203[ebp]
	mov	DWORD PTR __Ptr$[ebp], ecx
	jmp	SHORT $LN12@Copy
__catch$?_Copy@?$basic_string@DU?$char_traits@D@std@@V?$allocator@D@2@@std@@QAEXII@Z$0:

; 2216 : 		_CATCH_ALL

	mov	DWORD PTR __$EHRec$[ebp], esp

; 2217 : 			_Newres = _Newsize;	// allocation failed, undo roundup and retry

	mov	edx, DWORD PTR __Newsize$[ebp]
	mov	DWORD PTR __Newres$[ebp], edx

; 2218 : 			_TRY_BEGIN

	mov	BYTE PTR __$EHRec$[ebp+12], 2

; 2219 : 				_Ptr = this->_Getal().allocate(_Newres + 1);

	lea	eax, DWORD PTR $T3[ebp]
	push	eax
	mov	ecx, DWORD PTR _this$[ebp]
	call	?_Getal@?$_String_alloc@$0A@U?$_String_base_types@DV?$allocator@D@std@@@std@@@std@@QBE?AU?$_Wrap_alloc@V?$allocator@D@std@@@2@XZ ; std::_String_alloc<0,std::_String_base_types<char,std::allocator<char> > >::_Getal
	mov	DWORD PTR tv204[ebp], eax
	mov	ecx, DWORD PTR __Newres$[ebp]
	add	ecx, 1
	push	ecx
	mov	ecx, DWORD PTR tv204[ebp]
	call	?allocate@?$_Wrap_alloc@V?$allocator@D@std@@@std@@QAEPADI@Z ; std::_Wrap_alloc<std::allocator<char> >::allocate
	mov	DWORD PTR tv205[ebp], eax
	mov	edx, DWORD PTR tv205[ebp]
	mov	DWORD PTR __Ptr$[ebp], edx
	jmp	SHORT $LN14@Copy
__catch$?_Copy@?$basic_string@DU?$char_traits@D@std@@V?$allocator@D@2@@std@@QAEXII@Z$1:

; 2220 : 			_CATCH_ALL
; 2221 : 			_Tidy(true);	// failed again, discard storage and reraise

	push	0
	push	1
	mov	ecx, DWORD PTR _this$[ebp]
	call	?_Tidy@?$basic_string@DU?$char_traits@D@std@@V?$allocator@D@2@@std@@QAEX_NI@Z ; std::basic_string<char,std::char_traits<char>,std::allocator<char> >::_Tidy

; 2222 : 			_RERAISE;

	push	0
	push	0
	call	__CxxThrowException@8

; 2223 : 			_CATCH_END

	mov	eax, $LN17@Copy
	ret	0
$LN14@Copy:
	mov	DWORD PTR __$EHRec$[ebp+12], 1
	jmp	SHORT __tryend$?_Copy@?$basic_string@DU?$char_traits@D@std@@V?$allocator@D@2@@std@@QAEXII@Z$2
$LN17@Copy:
	mov	DWORD PTR __$EHRec$[ebp+12], 1
__tryend$?_Copy@?$basic_string@DU?$char_traits@D@std@@V?$allocator@D@2@@std@@QAEXII@Z$2:

; 2224 : 		_CATCH_END

	mov	eax, $LN19@Copy
	ret	0
$LN12@Copy:
	mov	DWORD PTR __$EHRec$[ebp+12], -1
	jmp	SHORT __tryend$?_Copy@?$basic_string@DU?$char_traits@D@std@@V?$allocator@D@2@@std@@QAEXII@Z$3
$LN19@Copy:
	mov	DWORD PTR __$EHRec$[ebp+12], -1
__tryend$?_Copy@?$basic_string@DU?$char_traits@D@std@@V?$allocator@D@2@@std@@QAEXII@Z$3:

; 2225 : 
; 2226 : 		if (0 < _Oldlen)

	cmp	DWORD PTR __Oldlen$[ebp], 0
	jbe	SHORT $LN1@Copy

; 2227 : 			_Traits::copy(_Ptr, this->_Myptr(),
; 2228 : 				_Oldlen);	// copy existing elements

	mov	eax, DWORD PTR __Oldlen$[ebp]
	push	eax
	mov	ecx, DWORD PTR _this$[ebp]
	call	?_Myptr@?$_String_val@U?$_Simple_types@D@std@@@std@@QAEPADXZ ; std::_String_val<std::_Simple_types<char> >::_Myptr
	push	eax
	mov	ecx, DWORD PTR __Ptr$[ebp]
	push	ecx
	call	?copy@?$char_traits@D@std@@SAPADPADPBDI@Z ; std::char_traits<char>::copy
	add	esp, 12					; 0000000cH
$LN1@Copy:

; 2229 : 		_Tidy(true);

	push	0
	push	1
	mov	ecx, DWORD PTR _this$[ebp]
	call	?_Tidy@?$basic_string@DU?$char_traits@D@std@@V?$allocator@D@2@@std@@QAEX_NI@Z ; std::basic_string<char,std::char_traits<char>,std::allocator<char> >::_Tidy

; 2230 : 		this->_Getal().construct(&this->_Bx._Ptr, _Ptr);

	lea	edx, DWORD PTR __Ptr$[ebp]
	push	edx
	mov	eax, DWORD PTR _this$[ebp]
	push	eax
	lea	ecx, DWORD PTR $T2[ebp]
	push	ecx
	mov	ecx, DWORD PTR _this$[ebp]
	call	?_Getal@?$_String_alloc@$0A@U?$_String_base_types@DV?$allocator@D@std@@@std@@@std@@QBE?AU?$_Wrap_alloc@V?$allocator@D@std@@@2@XZ ; std::_String_alloc<0,std::_String_base_types<char,std::allocator<char> > >::_Getal
	mov	ecx, eax
	call	??$construct@PADAAPAD@?$_Wrap_alloc@V?$allocator@D@std@@@std@@QAEXPAPADAAPAD@Z ; std::_Wrap_alloc<std::allocator<char> >::construct<char *,char * &>

; 2231 : 		this->_Myres = _Newres;

	mov	edx, DWORD PTR _this$[ebp]
	mov	eax, DWORD PTR __Newres$[ebp]
	mov	DWORD PTR [edx+20], eax

; 2232 : 		_Eos(_Oldlen);

	mov	ecx, DWORD PTR __Oldlen$[ebp]
	push	ecx
	mov	ecx, DWORD PTR _this$[ebp]
	call	?_Eos@?$basic_string@DU?$char_traits@D@std@@V?$allocator@D@2@@std@@QAEXI@Z ; std::basic_string<char,std::char_traits<char>,std::allocator<char> >::_Eos
$LN11@Copy:

; 2233 : 		}

	mov	ecx, DWORD PTR __$EHRec$[ebp+4]
	mov	DWORD PTR fs:0, ecx
	pop	ecx
	pop	edi
	pop	esi
	pop	ebx
	mov	esp, ebp
	pop	ebp
	ret	8
_TEXT	ENDS
;	COMDAT text$x
text$x	SEGMENT
__ehhandler$?_Copy@?$basic_string@DU?$char_traits@D@std@@V?$allocator@D@2@@std@@QAEXII@Z:
	mov	edx, DWORD PTR [esp+8]
	lea	eax, DWORD PTR [edx+12]
	mov	ecx, DWORD PTR [edx-52]
	xor	ecx, eax
	call	@__security_check_cookie@4
	mov	eax, OFFSET __ehfuncinfo$?_Copy@?$basic_string@DU?$char_traits@D@std@@V?$allocator@D@2@@std@@QAEXII@Z
	jmp	___CxxFrameHandler3
text$x	ENDS
?_Copy@?$basic_string@DU?$char_traits@D@std@@V?$allocator@D@2@@std@@QAEXII@Z ENDP ; std::basic_string<char,std::char_traits<char>,std::allocator<char> >::_Copy
; Function compile flags: /Odtp
; File c:\program files (x86)\microsoft visual studio 12.0\vc\include\xstring
;	COMDAT ?_Chassign@?$basic_string@DU?$char_traits@D@std@@V?$allocator@D@2@@std@@QAEXIID@Z
_TEXT	SEGMENT
_this$ = -4						; size = 4
__Off$ = 8						; size = 4
__Count$ = 12						; size = 4
__Ch$ = 16						; size = 1
?_Chassign@?$basic_string@DU?$char_traits@D@std@@V?$allocator@D@2@@std@@QAEXIID@Z PROC ; std::basic_string<char,std::char_traits<char>,std::allocator<char> >::_Chassign, COMDAT
; _this$ = ecx

; 2193 : 		{	// assign _Count copies of _Ch beginning at _Off

	push	ebp
	mov	ebp, esp
	push	ecx
	mov	DWORD PTR _this$[ebp], ecx

; 2194 : 		if (_Count == 1)

	cmp	DWORD PTR __Count$[ebp], 1
	jne	SHORT $LN2@Chassign

; 2195 : 			_Traits::assign(*(this->_Myptr() + _Off), _Ch);

	lea	eax, DWORD PTR __Ch$[ebp]
	push	eax
	mov	ecx, DWORD PTR _this$[ebp]
	call	?_Myptr@?$_String_val@U?$_Simple_types@D@std@@@std@@QAEPADXZ ; std::_String_val<std::_Simple_types<char> >::_Myptr
	add	eax, DWORD PTR __Off$[ebp]
	push	eax
	call	?assign@?$char_traits@D@std@@SAXAADABD@Z ; std::char_traits<char>::assign
	add	esp, 8

; 2196 : 		else

	jmp	SHORT $LN3@Chassign
$LN2@Chassign:

; 2197 : 			_Traits::assign(this->_Myptr() + _Off, _Count, _Ch);

	movzx	ecx, BYTE PTR __Ch$[ebp]
	push	ecx
	mov	edx, DWORD PTR __Count$[ebp]
	push	edx
	mov	ecx, DWORD PTR _this$[ebp]
	call	?_Myptr@?$_String_val@U?$_Simple_types@D@std@@@std@@QAEPADXZ ; std::_String_val<std::_Simple_types<char> >::_Myptr
	add	eax, DWORD PTR __Off$[ebp]
	push	eax
	call	?assign@?$char_traits@D@std@@SAPADPADID@Z ; std::char_traits<char>::assign
	add	esp, 12					; 0000000cH
$LN3@Chassign:

; 2198 : 		}

	mov	esp, ebp
	pop	ebp
	ret	12					; 0000000cH
?_Chassign@?$basic_string@DU?$char_traits@D@std@@V?$allocator@D@2@@std@@QAEXIID@Z ENDP ; std::basic_string<char,std::char_traits<char>,std::allocator<char> >::_Chassign
_TEXT	ENDS
; Function compile flags: /Odtp
; File c:\program files (x86)\microsoft visual studio 12.0\vc\include\xstring
;	COMDAT ?empty@?$basic_string@DU?$char_traits@D@std@@V?$allocator@D@2@@std@@QBE_NXZ
_TEXT	SEGMENT
_this$ = -8						; size = 4
tv70 = -4						; size = 4
?empty@?$basic_string@DU?$char_traits@D@std@@V?$allocator@D@2@@std@@QBE_NXZ PROC ; std::basic_string<char,std::char_traits<char>,std::allocator<char> >::empty, COMDAT
; _this$ = ecx

; 1792 : 		{	// test if sequence is empty

	push	ebp
	mov	ebp, esp
	sub	esp, 8
	mov	DWORD PTR _this$[ebp], ecx

; 1793 : 		return (this->_Mysize == 0);

	mov	eax, DWORD PTR _this$[ebp]
	cmp	DWORD PTR [eax+16], 0
	jne	SHORT $LN3@empty
	mov	DWORD PTR tv70[ebp], 1
	jmp	SHORT $LN4@empty
$LN3@empty:
	mov	DWORD PTR tv70[ebp], 0
$LN4@empty:
	mov	al, BYTE PTR tv70[ebp]

; 1794 : 		}

	mov	esp, ebp
	pop	ebp
	ret	0
?empty@?$basic_string@DU?$char_traits@D@std@@V?$allocator@D@2@@std@@QBE_NXZ ENDP ; std::basic_string<char,std::char_traits<char>,std::allocator<char> >::empty
_TEXT	ENDS
; Function compile flags: /Odtp
; File c:\program files (x86)\microsoft visual studio 12.0\vc\include\xstring
;	COMDAT ?reserve@?$basic_string@DU?$char_traits@D@std@@V?$allocator@D@2@@std@@QAEXI@Z
_TEXT	SEGMENT
__Size$1 = -8						; size = 4
_this$ = -4						; size = 4
__Newcap$ = 8						; size = 4
?reserve@?$basic_string@DU?$char_traits@D@std@@V?$allocator@D@2@@std@@QAEXI@Z PROC ; std::basic_string<char,std::char_traits<char>,std::allocator<char> >::reserve, COMDAT
; _this$ = ecx

; 1782 : 		{	// determine new minimum length of allocated storage

	push	ebp
	mov	ebp, esp
	sub	esp, 8
	mov	DWORD PTR _this$[ebp], ecx

; 1783 : 		if (this->_Mysize <= _Newcap && this->_Myres != _Newcap)

	mov	eax, DWORD PTR _this$[ebp]
	mov	ecx, DWORD PTR [eax+16]
	cmp	ecx, DWORD PTR __Newcap$[ebp]
	ja	SHORT $LN3@reserve
	mov	edx, DWORD PTR _this$[ebp]
	mov	eax, DWORD PTR [edx+20]
	cmp	eax, DWORD PTR __Newcap$[ebp]
	je	SHORT $LN3@reserve

; 1784 : 			{	// change reservation
; 1785 : 			size_type _Size = this->_Mysize;

	mov	ecx, DWORD PTR _this$[ebp]
	mov	edx, DWORD PTR [ecx+16]
	mov	DWORD PTR __Size$1[ebp], edx

; 1786 : 			if (_Grow(_Newcap, true))

	push	1
	mov	eax, DWORD PTR __Newcap$[ebp]
	push	eax
	mov	ecx, DWORD PTR _this$[ebp]
	call	?_Grow@?$basic_string@DU?$char_traits@D@std@@V?$allocator@D@2@@std@@QAE_NI_N@Z ; std::basic_string<char,std::char_traits<char>,std::allocator<char> >::_Grow
	movzx	ecx, al
	test	ecx, ecx
	je	SHORT $LN3@reserve

; 1787 : 				_Eos(_Size);

	mov	edx, DWORD PTR __Size$1[ebp]
	push	edx
	mov	ecx, DWORD PTR _this$[ebp]
	call	?_Eos@?$basic_string@DU?$char_traits@D@std@@V?$allocator@D@2@@std@@QAEXI@Z ; std::basic_string<char,std::char_traits<char>,std::allocator<char> >::_Eos
$LN3@reserve:

; 1788 : 			}
; 1789 : 		}

	mov	esp, ebp
	pop	ebp
	ret	4
?reserve@?$basic_string@DU?$char_traits@D@std@@V?$allocator@D@2@@std@@QAEXI@Z ENDP ; std::basic_string<char,std::char_traits<char>,std::allocator<char> >::reserve
_TEXT	ENDS
; Function compile flags: /Odtp
; File c:\program files (x86)\microsoft visual studio 12.0\vc\include\xstring
;	COMDAT ?resize@?$basic_string@DU?$char_traits@D@std@@V?$allocator@D@2@@std@@QAEXID@Z
_TEXT	SEGMENT
_this$ = -4						; size = 4
__Newsize$ = 8						; size = 4
__Ch$ = 12						; size = 1
?resize@?$basic_string@DU?$char_traits@D@std@@V?$allocator@D@2@@std@@QAEXID@Z PROC ; std::basic_string<char,std::char_traits<char>,std::allocator<char> >::resize, COMDAT
; _this$ = ecx

; 1769 : 		{	// determine new length, padding with _Ch elements as needed

	push	ebp
	mov	ebp, esp
	push	ecx
	mov	DWORD PTR _this$[ebp], ecx

; 1770 : 		if (_Newsize <= this->_Mysize)

	mov	eax, DWORD PTR _this$[ebp]
	mov	ecx, DWORD PTR __Newsize$[ebp]
	cmp	ecx, DWORD PTR [eax+16]
	ja	SHORT $LN2@resize

; 1771 : 			_Eos(_Newsize);

	mov	edx, DWORD PTR __Newsize$[ebp]
	push	edx
	mov	ecx, DWORD PTR _this$[ebp]
	call	?_Eos@?$basic_string@DU?$char_traits@D@std@@V?$allocator@D@2@@std@@QAEXI@Z ; std::basic_string<char,std::char_traits<char>,std::allocator<char> >::_Eos

; 1772 : 		else

	jmp	SHORT $LN3@resize
$LN2@resize:

; 1773 : 			append(_Newsize - this->_Mysize, _Ch);

	movzx	eax, BYTE PTR __Ch$[ebp]
	push	eax
	mov	ecx, DWORD PTR _this$[ebp]
	mov	edx, DWORD PTR __Newsize$[ebp]
	sub	edx, DWORD PTR [ecx+16]
	push	edx
	mov	ecx, DWORD PTR _this$[ebp]
	call	?append@?$basic_string@DU?$char_traits@D@std@@V?$allocator@D@2@@std@@QAEAAV12@ID@Z ; std::basic_string<char,std::char_traits<char>,std::allocator<char> >::append
$LN3@resize:

; 1774 : 		}

	mov	esp, ebp
	pop	ebp
	ret	8
?resize@?$basic_string@DU?$char_traits@D@std@@V?$allocator@D@2@@std@@QAEXID@Z ENDP ; std::basic_string<char,std::char_traits<char>,std::allocator<char> >::resize
_TEXT	ENDS
; Function compile flags: /Odtp
; File c:\program files (x86)\microsoft visual studio 12.0\vc\include\xstring
;	COMDAT ?resize@?$basic_string@DU?$char_traits@D@std@@V?$allocator@D@2@@std@@QAEXI@Z
_TEXT	SEGMENT
_this$ = -4						; size = 4
__Newsize$ = 8						; size = 4
?resize@?$basic_string@DU?$char_traits@D@std@@V?$allocator@D@2@@std@@QAEXI@Z PROC ; std::basic_string<char,std::char_traits<char>,std::allocator<char> >::resize, COMDAT
; _this$ = ecx

; 1764 : 		{	// determine new length, padding with null elements as needed

	push	ebp
	mov	ebp, esp
	push	ecx
	mov	DWORD PTR _this$[ebp], ecx

; 1765 : 		resize(_Newsize, _Elem());

	push	0
	mov	eax, DWORD PTR __Newsize$[ebp]
	push	eax
	mov	ecx, DWORD PTR _this$[ebp]
	call	?resize@?$basic_string@DU?$char_traits@D@std@@V?$allocator@D@2@@std@@QAEXID@Z ; std::basic_string<char,std::char_traits<char>,std::allocator<char> >::resize

; 1766 : 		}

	mov	esp, ebp
	pop	ebp
	ret	4
?resize@?$basic_string@DU?$char_traits@D@std@@V?$allocator@D@2@@std@@QAEXI@Z ENDP ; std::basic_string<char,std::char_traits<char>,std::allocator<char> >::resize
_TEXT	ENDS
; Function compile flags: /Odtp
; File c:\program files (x86)\microsoft visual studio 12.0\vc\include\xstring
;	COMDAT ?max_size@?$basic_string@DU?$char_traits@D@std@@V?$allocator@D@2@@std@@QBEIXZ
_TEXT	SEGMENT
_this$ = -16						; size = 4
tv75 = -12						; size = 4
__Num$ = -8						; size = 4
$T1 = -1						; size = 1
?max_size@?$basic_string@DU?$char_traits@D@std@@V?$allocator@D@2@@std@@QBEIXZ PROC ; std::basic_string<char,std::char_traits<char>,std::allocator<char> >::max_size, COMDAT
; _this$ = ecx

; 1758 : 		{	// return maximum possible length of sequence

	push	ebp
	mov	ebp, esp
	sub	esp, 16					; 00000010H
	mov	DWORD PTR _this$[ebp], ecx

; 1759 : 		size_type _Num = this->_Getal().max_size();

	lea	eax, DWORD PTR $T1[ebp]
	push	eax
	mov	ecx, DWORD PTR _this$[ebp]
	call	?_Getal@?$_String_alloc@$0A@U?$_String_base_types@DV?$allocator@D@std@@@std@@@std@@QBE?AU?$_Wrap_alloc@V?$allocator@D@std@@@2@XZ ; std::_String_alloc<0,std::_String_base_types<char,std::allocator<char> > >::_Getal
	mov	ecx, eax
	call	?max_size@?$_Wrap_alloc@V?$allocator@D@std@@@std@@QBEIXZ ; std::_Wrap_alloc<std::allocator<char> >::max_size
	mov	DWORD PTR __Num$[ebp], eax

; 1760 : 		return (_Num <= 1 ? 1 : _Num - 1);

	cmp	DWORD PTR __Num$[ebp], 1
	ja	SHORT $LN3@max_size
	mov	DWORD PTR tv75[ebp], 1
	jmp	SHORT $LN4@max_size
$LN3@max_size:
	mov	ecx, DWORD PTR __Num$[ebp]
	sub	ecx, 1
	mov	DWORD PTR tv75[ebp], ecx
$LN4@max_size:
	mov	eax, DWORD PTR tv75[ebp]

; 1761 : 		}

	mov	esp, ebp
	pop	ebp
	ret	0
?max_size@?$basic_string@DU?$char_traits@D@std@@V?$allocator@D@2@@std@@QBEIXZ ENDP ; std::basic_string<char,std::char_traits<char>,std::allocator<char> >::max_size
_TEXT	ENDS
; Function compile flags: /Odtp
; File c:\program files (x86)\microsoft visual studio 12.0\vc\include\xstring
;	COMDAT ?size@?$basic_string@DU?$char_traits@D@std@@V?$allocator@D@2@@std@@QBEIXZ
_TEXT	SEGMENT
_this$ = -4						; size = 4
?size@?$basic_string@DU?$char_traits@D@std@@V?$allocator@D@2@@std@@QBEIXZ PROC ; std::basic_string<char,std::char_traits<char>,std::allocator<char> >::size, COMDAT
; _this$ = ecx

; 1753 : 		{	// return length of sequence

	push	ebp
	mov	ebp, esp
	push	ecx
	mov	DWORD PTR _this$[ebp], ecx

; 1754 : 		return (this->_Mysize);

	mov	eax, DWORD PTR _this$[ebp]
	mov	eax, DWORD PTR [eax+16]

; 1755 : 		}

	mov	esp, ebp
	pop	ebp
	ret	0
?size@?$basic_string@DU?$char_traits@D@std@@V?$allocator@D@2@@std@@QBEIXZ ENDP ; std::basic_string<char,std::char_traits<char>,std::allocator<char> >::size
_TEXT	ENDS
; Function compile flags: /Odtp
; File c:\program files (x86)\microsoft visual studio 12.0\vc\include\xstring
;	COMDAT ?length@?$basic_string@DU?$char_traits@D@std@@V?$allocator@D@2@@std@@QBEIXZ
_TEXT	SEGMENT
_this$ = -4						; size = 4
?length@?$basic_string@DU?$char_traits@D@std@@V?$allocator@D@2@@std@@QBEIXZ PROC ; std::basic_string<char,std::char_traits<char>,std::allocator<char> >::length, COMDAT
; _this$ = ecx

; 1748 : 		{	// return length of sequence

	push	ebp
	mov	ebp, esp
	push	ecx
	mov	DWORD PTR _this$[ebp], ecx

; 1749 : 		return (this->_Mysize);

	mov	eax, DWORD PTR _this$[ebp]
	mov	eax, DWORD PTR [eax+16]

; 1750 : 		}

	mov	esp, ebp
	pop	ebp
	ret	0
?length@?$basic_string@DU?$char_traits@D@std@@V?$allocator@D@2@@std@@QBEIXZ ENDP ; std::basic_string<char,std::char_traits<char>,std::allocator<char> >::length
_TEXT	ENDS
; Function compile flags: /Odtp
; File c:\program files (x86)\microsoft visual studio 12.0\vc\include\xstring
;	COMDAT ?c_str@?$basic_string@DU?$char_traits@D@std@@V?$allocator@D@2@@std@@QBEPBDXZ
_TEXT	SEGMENT
_this$ = -4						; size = 4
?c_str@?$basic_string@DU?$char_traits@D@std@@V?$allocator@D@2@@std@@QBEPBDXZ PROC ; std::basic_string<char,std::char_traits<char>,std::allocator<char> >::c_str, COMDAT
; _this$ = ecx

; 1738 : 		{	// return pointer to null-terminated nonmutable array

	push	ebp
	mov	ebp, esp
	push	ecx
	mov	DWORD PTR _this$[ebp], ecx

; 1739 : 		return (this->_Myptr());

	mov	ecx, DWORD PTR _this$[ebp]
	call	?_Myptr@?$_String_val@U?$_Simple_types@D@std@@@std@@QBEPBDXZ ; std::_String_val<std::_Simple_types<char> >::_Myptr

; 1740 : 		}

	mov	esp, ebp
	pop	ebp
	ret	0
?c_str@?$basic_string@DU?$char_traits@D@std@@V?$allocator@D@2@@std@@QBEPBDXZ ENDP ; std::basic_string<char,std::char_traits<char>,std::allocator<char> >::c_str
_TEXT	ENDS
; Function compile flags: /Odtp
; File c:\program files (x86)\microsoft visual studio 12.0\vc\include\xstring
;	COMDAT ??A?$basic_string@DU?$char_traits@D@std@@V?$allocator@D@2@@std@@QAEAADI@Z
_TEXT	SEGMENT
_this$ = -4						; size = 4
__Off$ = 8						; size = 4
??A?$basic_string@DU?$char_traits@D@std@@V?$allocator@D@2@@std@@QAEAADI@Z PROC ; std::basic_string<char,std::char_traits<char>,std::allocator<char> >::operator[], COMDAT
; _this$ = ecx

; 1682 : 		{	// subscript mutable sequence

	push	ebp
	mov	ebp, esp
	push	ecx
	mov	DWORD PTR _this$[ebp], ecx

; 1683 :  #if _ITERATOR_DEBUG_LEVEL == 2
; 1684 : 		if (this->_Mysize < _Off)	// sic
; 1685 : 			_DEBUG_ERROR("string subscript out of range");
; 1686 : 
; 1687 :  #elif _ITERATOR_DEBUG_LEVEL == 1
; 1688 : 		_SCL_SECURE_VALIDATE_RANGE(_Off <= this->_Mysize);	// sic
; 1689 :  #endif /* _ITERATOR_DEBUG_LEVEL == 2 */
; 1690 : 
; 1691 : 		return (this->_Myptr()[_Off]);

	mov	ecx, DWORD PTR _this$[ebp]
	call	?_Myptr@?$_String_val@U?$_Simple_types@D@std@@@std@@QAEPADXZ ; std::_String_val<std::_Simple_types<char> >::_Myptr
	add	eax, DWORD PTR __Off$[ebp]

; 1692 : 		}

	mov	esp, ebp
	pop	ebp
	ret	4
??A?$basic_string@DU?$char_traits@D@std@@V?$allocator@D@2@@std@@QAEAADI@Z ENDP ; std::basic_string<char,std::char_traits<char>,std::allocator<char> >::operator[]
_TEXT	ENDS
; Function compile flags: /Odtp
; File c:\program files (x86)\microsoft visual studio 12.0\vc\include\xstring
;	COMDAT ?erase@?$basic_string@DU?$char_traits@D@std@@V?$allocator@D@2@@std@@QAEAAV12@II@Z
_TEXT	SEGMENT
__Newsize$1 = -12					; size = 4
__Ptr$2 = -8						; size = 4
_this$ = -4						; size = 4
__Off$ = 8						; size = 4
__Count$ = 12						; size = 4
?erase@?$basic_string@DU?$char_traits@D@std@@V?$allocator@D@2@@std@@QAEAAV12@II@Z PROC ; std::basic_string<char,std::char_traits<char>,std::allocator<char> >::erase, COMDAT
; _this$ = ecx

; 1342 : 		{	// erase elements [_Off, _Off + _Count)

	push	ebp
	mov	ebp, esp
	sub	esp, 12					; 0000000cH
	mov	DWORD PTR _this$[ebp], ecx

; 1343 : 		if (this->_Mysize < _Off)

	mov	eax, DWORD PTR _this$[ebp]
	mov	ecx, DWORD PTR [eax+16]
	cmp	ecx, DWORD PTR __Off$[ebp]
	jae	SHORT $LN4@erase

; 1344 : 			_Xran();	// _Off off end

	mov	ecx, DWORD PTR _this$[ebp]
	call	?_Xran@?$basic_string@DU?$char_traits@D@std@@V?$allocator@D@2@@std@@QBEXXZ ; std::basic_string<char,std::char_traits<char>,std::allocator<char> >::_Xran
$LN4@erase:

; 1345 : 		if (this->_Mysize - _Off <= _Count)

	mov	edx, DWORD PTR _this$[ebp]
	mov	eax, DWORD PTR [edx+16]
	sub	eax, DWORD PTR __Off$[ebp]
	cmp	eax, DWORD PTR __Count$[ebp]
	ja	SHORT $LN3@erase

; 1346 : 			_Eos(_Off);	// erase elements [_Off, ...)

	mov	ecx, DWORD PTR __Off$[ebp]
	push	ecx
	mov	ecx, DWORD PTR _this$[ebp]
	call	?_Eos@?$basic_string@DU?$char_traits@D@std@@V?$allocator@D@2@@std@@QAEXI@Z ; std::basic_string<char,std::char_traits<char>,std::allocator<char> >::_Eos
	jmp	SHORT $LN2@erase
$LN3@erase:

; 1347 : 		else if (0 < _Count)

	cmp	DWORD PTR __Count$[ebp], 0
	jbe	SHORT $LN2@erase

; 1348 : 			{	// move elements down
; 1349 : 			value_type *_Ptr = this->_Myptr() + _Off;

	mov	ecx, DWORD PTR _this$[ebp]
	call	?_Myptr@?$_String_val@U?$_Simple_types@D@std@@@std@@QAEPADXZ ; std::_String_val<std::_Simple_types<char> >::_Myptr
	add	eax, DWORD PTR __Off$[ebp]
	mov	DWORD PTR __Ptr$2[ebp], eax

; 1350 : 			size_type _Newsize = this->_Mysize - _Count;

	mov	edx, DWORD PTR _this$[ebp]
	mov	eax, DWORD PTR [edx+16]
	sub	eax, DWORD PTR __Count$[ebp]
	mov	DWORD PTR __Newsize$1[ebp], eax

; 1351 : 			_Traits::move(_Ptr, _Ptr + _Count, _Newsize - _Off);

	mov	ecx, DWORD PTR __Newsize$1[ebp]
	sub	ecx, DWORD PTR __Off$[ebp]
	push	ecx
	mov	edx, DWORD PTR __Ptr$2[ebp]
	add	edx, DWORD PTR __Count$[ebp]
	push	edx
	mov	eax, DWORD PTR __Ptr$2[ebp]
	push	eax
	call	?move@?$char_traits@D@std@@SAPADPADPBDI@Z ; std::char_traits<char>::move
	add	esp, 12					; 0000000cH

; 1352 : 			_Eos(_Newsize);

	mov	ecx, DWORD PTR __Newsize$1[ebp]
	push	ecx
	mov	ecx, DWORD PTR _this$[ebp]
	call	?_Eos@?$basic_string@DU?$char_traits@D@std@@V?$allocator@D@2@@std@@QAEXI@Z ; std::basic_string<char,std::char_traits<char>,std::allocator<char> >::_Eos
$LN2@erase:

; 1353 : 			}
; 1354 : 		return (*this);

	mov	eax, DWORD PTR _this$[ebp]
$LN6@erase:

; 1355 : 		}

	mov	esp, ebp
	pop	ebp
	ret	8
?erase@?$basic_string@DU?$char_traits@D@std@@V?$allocator@D@2@@std@@QAEAAV12@II@Z ENDP ; std::basic_string<char,std::char_traits<char>,std::allocator<char> >::erase
_TEXT	ENDS
; Function compile flags: /Odtp
; File c:\program files (x86)\microsoft visual studio 12.0\vc\include\xstring
;	COMDAT ?erase@?$basic_string@DU?$char_traits@D@std@@V?$allocator@D@2@@std@@QAEAAV12@I@Z
_TEXT	SEGMENT
_this$ = -4						; size = 4
__Off$ = 8						; size = 4
?erase@?$basic_string@DU?$char_traits@D@std@@V?$allocator@D@2@@std@@QAEAAV12@I@Z PROC ; std::basic_string<char,std::char_traits<char>,std::allocator<char> >::erase, COMDAT
; _this$ = ecx

; 1334 : 		{	// erase elements [_Off, ...)

	push	ebp
	mov	ebp, esp
	push	ecx
	mov	DWORD PTR _this$[ebp], ecx

; 1335 : 		if (this->_Mysize < _Off)

	mov	eax, DWORD PTR _this$[ebp]
	mov	ecx, DWORD PTR [eax+16]
	cmp	ecx, DWORD PTR __Off$[ebp]
	jae	SHORT $LN1@erase

; 1336 : 			_Xran();	// _Off off end

	mov	ecx, DWORD PTR _this$[ebp]
	call	?_Xran@?$basic_string@DU?$char_traits@D@std@@V?$allocator@D@2@@std@@QBEXXZ ; std::basic_string<char,std::char_traits<char>,std::allocator<char> >::_Xran
$LN1@erase:

; 1337 : 		_Eos(_Off);

	mov	edx, DWORD PTR __Off$[ebp]
	push	edx
	mov	ecx, DWORD PTR _this$[ebp]
	call	?_Eos@?$basic_string@DU?$char_traits@D@std@@V?$allocator@D@2@@std@@QAEXI@Z ; std::basic_string<char,std::char_traits<char>,std::allocator<char> >::_Eos

; 1338 : 		return (*this);

	mov	eax, DWORD PTR _this$[ebp]
$LN3@erase:

; 1339 : 		}

	mov	esp, ebp
	pop	ebp
	ret	4
?erase@?$basic_string@DU?$char_traits@D@std@@V?$allocator@D@2@@std@@QAEAAV12@I@Z ENDP ; std::basic_string<char,std::char_traits<char>,std::allocator<char> >::erase
_TEXT	ENDS
; Function compile flags: /Odtp
; File c:\program files (x86)\microsoft visual studio 12.0\vc\include\xstring
;	COMDAT ?insert@?$basic_string@DU?$char_traits@D@std@@V?$allocator@D@2@@std@@QAEAAV12@IPBD@Z
_TEXT	SEGMENT
_this$ = -4						; size = 4
__Off$ = 8						; size = 4
__Ptr$ = 12						; size = 4
?insert@?$basic_string@DU?$char_traits@D@std@@V?$allocator@D@2@@std@@QAEAAV12@IPBD@Z PROC ; std::basic_string<char,std::char_traits<char>,std::allocator<char> >::insert, COMDAT
; _this$ = ecx

; 1264 : 		{	// insert [_Ptr, <null>) at _Off

	push	ebp
	mov	ebp, esp
	push	ecx
	mov	DWORD PTR _this$[ebp], ecx

; 1265 : 		_DEBUG_POINTER(_Ptr);
; 1266 : 		return (insert(_Off, _Ptr, _Traits::length(_Ptr)));

	mov	eax, DWORD PTR __Ptr$[ebp]
	push	eax
	call	?length@?$char_traits@D@std@@SAIPBD@Z	; std::char_traits<char>::length
	add	esp, 4
	push	eax
	mov	ecx, DWORD PTR __Ptr$[ebp]
	push	ecx
	mov	edx, DWORD PTR __Off$[ebp]
	push	edx
	mov	ecx, DWORD PTR _this$[ebp]
	call	?insert@?$basic_string@DU?$char_traits@D@std@@V?$allocator@D@2@@std@@QAEAAV12@IPBDI@Z ; std::basic_string<char,std::char_traits<char>,std::allocator<char> >::insert

; 1267 : 		}

	mov	esp, ebp
	pop	ebp
	ret	8
?insert@?$basic_string@DU?$char_traits@D@std@@V?$allocator@D@2@@std@@QAEAAV12@IPBD@Z ENDP ; std::basic_string<char,std::char_traits<char>,std::allocator<char> >::insert
_TEXT	ENDS
; Function compile flags: /Odtp
; File c:\program files (x86)\microsoft visual studio 12.0\vc\include\xstring
;	COMDAT ?insert@?$basic_string@DU?$char_traits@D@std@@V?$allocator@D@2@@std@@QAEAAV12@IPBDI@Z
_TEXT	SEGMENT
__Num$ = -8						; size = 4
_this$ = -4						; size = 4
__Off$ = 8						; size = 4
__Ptr$ = 12						; size = 4
__Count$ = 16						; size = 4
?insert@?$basic_string@DU?$char_traits@D@std@@V?$allocator@D@2@@std@@QAEAAV12@IPBDI@Z PROC ; std::basic_string<char,std::char_traits<char>,std::allocator<char> >::insert, COMDAT
; _this$ = ecx

; 1238 : 		{	// insert [_Ptr, _Ptr + _Count) at _Off

	push	ebp
	mov	ebp, esp
	sub	esp, 8
	mov	DWORD PTR _this$[ebp], ecx

; 1239 :  #if _ITERATOR_DEBUG_LEVEL == 2
; 1240 : 		if (_Count != 0)
; 1241 : 			_DEBUG_POINTER(_Ptr);
; 1242 :  #endif /* _ITERATOR_DEBUG_LEVEL == 2 */
; 1243 : 
; 1244 : 		if (_Inside(_Ptr))

	mov	eax, DWORD PTR __Ptr$[ebp]
	push	eax
	mov	ecx, DWORD PTR _this$[ebp]
	call	?_Inside@?$basic_string@DU?$char_traits@D@std@@V?$allocator@D@2@@std@@QAE_NPBD@Z ; std::basic_string<char,std::char_traits<char>,std::allocator<char> >::_Inside
	movzx	ecx, al
	test	ecx, ecx
	je	SHORT $LN4@insert

; 1245 : 			return (insert(_Off, *this,
; 1246 : 				_Ptr - this->_Myptr(), _Count));	// substring

	mov	edx, DWORD PTR __Count$[ebp]
	push	edx
	mov	ecx, DWORD PTR _this$[ebp]
	call	?_Myptr@?$_String_val@U?$_Simple_types@D@std@@@std@@QAEPADXZ ; std::_String_val<std::_Simple_types<char> >::_Myptr
	mov	ecx, DWORD PTR __Ptr$[ebp]
	sub	ecx, eax
	push	ecx
	mov	edx, DWORD PTR _this$[ebp]
	push	edx
	mov	eax, DWORD PTR __Off$[ebp]
	push	eax
	mov	ecx, DWORD PTR _this$[ebp]
	call	?insert@?$basic_string@DU?$char_traits@D@std@@V?$allocator@D@2@@std@@QAEAAV12@IABV12@II@Z ; std::basic_string<char,std::char_traits<char>,std::allocator<char> >::insert
	jmp	$LN6@insert
$LN4@insert:

; 1247 : 		if (this->_Mysize < _Off)

	mov	ecx, DWORD PTR _this$[ebp]
	mov	edx, DWORD PTR [ecx+16]
	cmp	edx, DWORD PTR __Off$[ebp]
	jae	SHORT $LN3@insert

; 1248 : 			_Xran();	// _Off off end

	mov	ecx, DWORD PTR _this$[ebp]
	call	?_Xran@?$basic_string@DU?$char_traits@D@std@@V?$allocator@D@2@@std@@QBEXXZ ; std::basic_string<char,std::char_traits<char>,std::allocator<char> >::_Xran
$LN3@insert:

; 1249 : 		if (npos - this->_Mysize <= _Count)

	mov	eax, DWORD PTR _this$[ebp]
	or	ecx, -1
	sub	ecx, DWORD PTR [eax+16]
	cmp	ecx, DWORD PTR __Count$[ebp]
	ja	SHORT $LN2@insert

; 1250 : 			_Xlen();	// result too long

	mov	ecx, DWORD PTR _this$[ebp]
	call	?_Xlen@?$basic_string@DU?$char_traits@D@std@@V?$allocator@D@2@@std@@QBEXXZ ; std::basic_string<char,std::char_traits<char>,std::allocator<char> >::_Xlen
$LN2@insert:

; 1251 : 		size_type _Num;
; 1252 : 		if (0 < _Count && _Grow(_Num = this->_Mysize + _Count))

	cmp	DWORD PTR __Count$[ebp], 0
	jbe	SHORT $LN1@insert
	mov	edx, DWORD PTR _this$[ebp]
	mov	eax, DWORD PTR [edx+16]
	add	eax, DWORD PTR __Count$[ebp]
	mov	DWORD PTR __Num$[ebp], eax
	push	0
	mov	ecx, DWORD PTR __Num$[ebp]
	push	ecx
	mov	ecx, DWORD PTR _this$[ebp]
	call	?_Grow@?$basic_string@DU?$char_traits@D@std@@V?$allocator@D@2@@std@@QAE_NI_N@Z ; std::basic_string<char,std::char_traits<char>,std::allocator<char> >::_Grow
	movzx	edx, al
	test	edx, edx
	je	SHORT $LN1@insert

; 1253 : 			{	// make room and insert new stuff
; 1254 : 			_Traits::move(this->_Myptr() + _Off + _Count,
; 1255 : 				this->_Myptr() + _Off,
; 1256 : 				this->_Mysize - _Off);	// empty out hole

	mov	eax, DWORD PTR _this$[ebp]
	mov	ecx, DWORD PTR [eax+16]
	sub	ecx, DWORD PTR __Off$[ebp]
	push	ecx
	mov	ecx, DWORD PTR _this$[ebp]
	call	?_Myptr@?$_String_val@U?$_Simple_types@D@std@@@std@@QAEPADXZ ; std::_String_val<std::_Simple_types<char> >::_Myptr
	add	eax, DWORD PTR __Off$[ebp]
	push	eax
	mov	ecx, DWORD PTR _this$[ebp]
	call	?_Myptr@?$_String_val@U?$_Simple_types@D@std@@@std@@QAEPADXZ ; std::_String_val<std::_Simple_types<char> >::_Myptr
	add	eax, DWORD PTR __Off$[ebp]
	add	eax, DWORD PTR __Count$[ebp]
	push	eax
	call	?move@?$char_traits@D@std@@SAPADPADPBDI@Z ; std::char_traits<char>::move
	add	esp, 12					; 0000000cH

; 1257 : 			_Traits::copy(this->_Myptr() + _Off, _Ptr, _Count);	// fill hole

	mov	edx, DWORD PTR __Count$[ebp]
	push	edx
	mov	eax, DWORD PTR __Ptr$[ebp]
	push	eax
	mov	ecx, DWORD PTR _this$[ebp]
	call	?_Myptr@?$_String_val@U?$_Simple_types@D@std@@@std@@QAEPADXZ ; std::_String_val<std::_Simple_types<char> >::_Myptr
	add	eax, DWORD PTR __Off$[ebp]
	push	eax
	call	?copy@?$char_traits@D@std@@SAPADPADPBDI@Z ; std::char_traits<char>::copy
	add	esp, 12					; 0000000cH

; 1258 : 			_Eos(_Num);

	mov	ecx, DWORD PTR __Num$[ebp]
	push	ecx
	mov	ecx, DWORD PTR _this$[ebp]
	call	?_Eos@?$basic_string@DU?$char_traits@D@std@@V?$allocator@D@2@@std@@QAEXI@Z ; std::basic_string<char,std::char_traits<char>,std::allocator<char> >::_Eos
$LN1@insert:

; 1259 : 			}
; 1260 : 		return (*this);

	mov	eax, DWORD PTR _this$[ebp]
$LN6@insert:

; 1261 : 		}

	mov	esp, ebp
	pop	ebp
	ret	12					; 0000000cH
?insert@?$basic_string@DU?$char_traits@D@std@@V?$allocator@D@2@@std@@QAEAAV12@IPBDI@Z ENDP ; std::basic_string<char,std::char_traits<char>,std::allocator<char> >::insert
_TEXT	ENDS
; Function compile flags: /Odtp
; File c:\program files (x86)\microsoft visual studio 12.0\vc\include\xstring
;	COMDAT ?insert@?$basic_string@DU?$char_traits@D@std@@V?$allocator@D@2@@std@@QAEAAV12@IABV12@II@Z
_TEXT	SEGMENT
tv166 = -12						; size = 4
__Num$ = -8						; size = 4
_this$ = -4						; size = 4
__Off$ = 8						; size = 4
__Right$ = 12						; size = 4
__Roff$ = 16						; size = 4
__Count$ = 20						; size = 4
?insert@?$basic_string@DU?$char_traits@D@std@@V?$allocator@D@2@@std@@QAEAAV12@IABV12@II@Z PROC ; std::basic_string<char,std::char_traits<char>,std::allocator<char> >::insert, COMDAT
; _this$ = ecx

; 1210 : 		{	// insert _Right [_Roff, _Roff + _Count) at _Off

	push	ebp
	mov	ebp, esp
	sub	esp, 12					; 0000000cH
	mov	DWORD PTR _this$[ebp], ecx

; 1211 : 		if (this->_Mysize < _Off || _Right.size() < _Roff)

	mov	eax, DWORD PTR _this$[ebp]
	mov	ecx, DWORD PTR [eax+16]
	cmp	ecx, DWORD PTR __Off$[ebp]
	jb	SHORT $LN6@insert
	mov	ecx, DWORD PTR __Right$[ebp]
	call	?size@?$basic_string@DU?$char_traits@D@std@@V?$allocator@D@2@@std@@QBEIXZ ; std::basic_string<char,std::char_traits<char>,std::allocator<char> >::size
	cmp	eax, DWORD PTR __Roff$[ebp]
	jae	SHORT $LN7@insert
$LN6@insert:

; 1212 : 			_Xran();	// _Off or _Roff off end

	mov	ecx, DWORD PTR _this$[ebp]
	call	?_Xran@?$basic_string@DU?$char_traits@D@std@@V?$allocator@D@2@@std@@QBEXXZ ; std::basic_string<char,std::char_traits<char>,std::allocator<char> >::_Xran
$LN7@insert:

; 1213 : 		size_type _Num = _Right.size() - _Roff;

	mov	ecx, DWORD PTR __Right$[ebp]
	call	?size@?$basic_string@DU?$char_traits@D@std@@V?$allocator@D@2@@std@@QBEIXZ ; std::basic_string<char,std::char_traits<char>,std::allocator<char> >::size
	sub	eax, DWORD PTR __Roff$[ebp]
	mov	DWORD PTR __Num$[ebp], eax

; 1214 : 		if (_Num < _Count)

	mov	edx, DWORD PTR __Num$[ebp]
	cmp	edx, DWORD PTR __Count$[ebp]
	jae	SHORT $LN5@insert

; 1215 : 			_Count = _Num;	// trim _Count to size

	mov	eax, DWORD PTR __Num$[ebp]
	mov	DWORD PTR __Count$[ebp], eax
$LN5@insert:

; 1216 : 		if (npos - this->_Mysize <= _Count)

	mov	ecx, DWORD PTR _this$[ebp]
	or	edx, -1
	sub	edx, DWORD PTR [ecx+16]
	cmp	edx, DWORD PTR __Count$[ebp]
	ja	SHORT $LN4@insert

; 1217 : 			_Xlen();	// result too long

	mov	ecx, DWORD PTR _this$[ebp]
	call	?_Xlen@?$basic_string@DU?$char_traits@D@std@@V?$allocator@D@2@@std@@QBEXXZ ; std::basic_string<char,std::char_traits<char>,std::allocator<char> >::_Xlen
$LN4@insert:

; 1218 : 
; 1219 : 		if (0 < _Count && _Grow(_Num = this->_Mysize + _Count))

	cmp	DWORD PTR __Count$[ebp], 0
	jbe	$LN3@insert
	mov	eax, DWORD PTR _this$[ebp]
	mov	ecx, DWORD PTR [eax+16]
	add	ecx, DWORD PTR __Count$[ebp]
	mov	DWORD PTR __Num$[ebp], ecx
	push	0
	mov	edx, DWORD PTR __Num$[ebp]
	push	edx
	mov	ecx, DWORD PTR _this$[ebp]
	call	?_Grow@?$basic_string@DU?$char_traits@D@std@@V?$allocator@D@2@@std@@QAE_NI_N@Z ; std::basic_string<char,std::char_traits<char>,std::allocator<char> >::_Grow
	movzx	eax, al
	test	eax, eax
	je	$LN3@insert

; 1220 : 			{	// make room and insert new stuff
; 1221 : 			_Traits::move(this->_Myptr() + _Off + _Count,
; 1222 : 				this->_Myptr() + _Off,
; 1223 : 				this->_Mysize - _Off);	// empty out hole

	mov	ecx, DWORD PTR _this$[ebp]
	mov	edx, DWORD PTR [ecx+16]
	sub	edx, DWORD PTR __Off$[ebp]
	push	edx
	mov	ecx, DWORD PTR _this$[ebp]
	call	?_Myptr@?$_String_val@U?$_Simple_types@D@std@@@std@@QAEPADXZ ; std::_String_val<std::_Simple_types<char> >::_Myptr
	add	eax, DWORD PTR __Off$[ebp]
	push	eax
	mov	ecx, DWORD PTR _this$[ebp]
	call	?_Myptr@?$_String_val@U?$_Simple_types@D@std@@@std@@QAEPADXZ ; std::_String_val<std::_Simple_types<char> >::_Myptr
	add	eax, DWORD PTR __Off$[ebp]
	add	eax, DWORD PTR __Count$[ebp]
	push	eax
	call	?move@?$char_traits@D@std@@SAPADPADPBDI@Z ; std::char_traits<char>::move
	add	esp, 12					; 0000000cH

; 1224 : 			if (this == &_Right)

	mov	eax, DWORD PTR _this$[ebp]
	cmp	eax, DWORD PTR __Right$[ebp]
	jne	SHORT $LN2@insert

; 1225 : 				_Traits::move(this->_Myptr() + _Off,
; 1226 : 					this->_Myptr() + (_Off < _Roff ? _Roff + _Count : _Roff),
; 1227 : 						_Count);	// substring

	mov	ecx, DWORD PTR __Off$[ebp]
	cmp	ecx, DWORD PTR __Roff$[ebp]
	jae	SHORT $LN10@insert
	mov	edx, DWORD PTR __Roff$[ebp]
	add	edx, DWORD PTR __Count$[ebp]
	mov	DWORD PTR tv166[ebp], edx
	jmp	SHORT $LN11@insert
$LN10@insert:
	mov	eax, DWORD PTR __Roff$[ebp]
	mov	DWORD PTR tv166[ebp], eax
$LN11@insert:
	mov	ecx, DWORD PTR __Count$[ebp]
	push	ecx
	mov	ecx, DWORD PTR _this$[ebp]
	call	?_Myptr@?$_String_val@U?$_Simple_types@D@std@@@std@@QAEPADXZ ; std::_String_val<std::_Simple_types<char> >::_Myptr
	add	eax, DWORD PTR tv166[ebp]
	push	eax
	mov	ecx, DWORD PTR _this$[ebp]
	call	?_Myptr@?$_String_val@U?$_Simple_types@D@std@@@std@@QAEPADXZ ; std::_String_val<std::_Simple_types<char> >::_Myptr
	add	eax, DWORD PTR __Off$[ebp]
	push	eax
	call	?move@?$char_traits@D@std@@SAPADPADPBDI@Z ; std::char_traits<char>::move
	add	esp, 12					; 0000000cH

; 1228 : 			else

	jmp	SHORT $LN1@insert
$LN2@insert:

; 1229 : 				_Traits::copy(this->_Myptr() + _Off,
; 1230 : 					_Right._Myptr() + _Roff, _Count);	// fill hole

	mov	edx, DWORD PTR __Count$[ebp]
	push	edx
	mov	ecx, DWORD PTR __Right$[ebp]
	call	?_Myptr@?$_String_val@U?$_Simple_types@D@std@@@std@@QBEPBDXZ ; std::_String_val<std::_Simple_types<char> >::_Myptr
	add	eax, DWORD PTR __Roff$[ebp]
	push	eax
	mov	ecx, DWORD PTR _this$[ebp]
	call	?_Myptr@?$_String_val@U?$_Simple_types@D@std@@@std@@QAEPADXZ ; std::_String_val<std::_Simple_types<char> >::_Myptr
	add	eax, DWORD PTR __Off$[ebp]
	push	eax
	call	?copy@?$char_traits@D@std@@SAPADPADPBDI@Z ; std::char_traits<char>::copy
	add	esp, 12					; 0000000cH
$LN1@insert:

; 1231 : 			_Eos(_Num);

	mov	eax, DWORD PTR __Num$[ebp]
	push	eax
	mov	ecx, DWORD PTR _this$[ebp]
	call	?_Eos@?$basic_string@DU?$char_traits@D@std@@V?$allocator@D@2@@std@@QAEXI@Z ; std::basic_string<char,std::char_traits<char>,std::allocator<char> >::_Eos
$LN3@insert:

; 1232 : 			}
; 1233 : 		return (*this);

	mov	eax, DWORD PTR _this$[ebp]
$LN9@insert:

; 1234 : 		}

	mov	esp, ebp
	pop	ebp
	ret	16					; 00000010H
?insert@?$basic_string@DU?$char_traits@D@std@@V?$allocator@D@2@@std@@QAEAAV12@IABV12@II@Z ENDP ; std::basic_string<char,std::char_traits<char>,std::allocator<char> >::insert
_TEXT	ENDS
; Function compile flags: /Odtp
; File c:\program files (x86)\microsoft visual studio 12.0\vc\include\xstring
;	COMDAT ?assign@?$basic_string@DU?$char_traits@D@std@@V?$allocator@D@2@@std@@QAEAAV12@PBD@Z
_TEXT	SEGMENT
_this$ = -4						; size = 4
__Ptr$ = 8						; size = 4
?assign@?$basic_string@DU?$char_traits@D@std@@V?$allocator@D@2@@std@@QAEAAV12@PBD@Z PROC ; std::basic_string<char,std::char_traits<char>,std::allocator<char> >::assign, COMDAT
; _this$ = ecx

; 1167 : 		{	// assign [_Ptr, <null>)

	push	ebp
	mov	ebp, esp
	push	ecx
	mov	DWORD PTR _this$[ebp], ecx

; 1168 : 		_DEBUG_POINTER(_Ptr);
; 1169 : 		return (assign(_Ptr, _Traits::length(_Ptr)));

	mov	eax, DWORD PTR __Ptr$[ebp]
	push	eax
	call	?length@?$char_traits@D@std@@SAIPBD@Z	; std::char_traits<char>::length
	add	esp, 4
	push	eax
	mov	ecx, DWORD PTR __Ptr$[ebp]
	push	ecx
	mov	ecx, DWORD PTR _this$[ebp]
	call	?assign@?$basic_string@DU?$char_traits@D@std@@V?$allocator@D@2@@std@@QAEAAV12@PBDI@Z ; std::basic_string<char,std::char_traits<char>,std::allocator<char> >::assign

; 1170 : 		}

	mov	esp, ebp
	pop	ebp
	ret	4
?assign@?$basic_string@DU?$char_traits@D@std@@V?$allocator@D@2@@std@@QAEAAV12@PBD@Z ENDP ; std::basic_string<char,std::char_traits<char>,std::allocator<char> >::assign
_TEXT	ENDS
; Function compile flags: /Odtp
; File c:\program files (x86)\microsoft visual studio 12.0\vc\include\xstring
;	COMDAT ?assign@?$basic_string@DU?$char_traits@D@std@@V?$allocator@D@2@@std@@QAEAAV12@PBDI@Z
_TEXT	SEGMENT
_this$ = -4						; size = 4
__Ptr$ = 8						; size = 4
__Count$ = 12						; size = 4
?assign@?$basic_string@DU?$char_traits@D@std@@V?$allocator@D@2@@std@@QAEAAV12@PBDI@Z PROC ; std::basic_string<char,std::char_traits<char>,std::allocator<char> >::assign, COMDAT
; _this$ = ecx

; 1148 : 		{	// assign [_Ptr, _Ptr + _Count)

	push	ebp
	mov	ebp, esp
	push	ecx
	mov	DWORD PTR _this$[ebp], ecx

; 1149 :  #if _ITERATOR_DEBUG_LEVEL == 2
; 1150 : 		if (_Count != 0)
; 1151 : 			_DEBUG_POINTER(_Ptr);
; 1152 :  #endif /* _ITERATOR_DEBUG_LEVEL == 2 */
; 1153 : 
; 1154 : 		if (_Inside(_Ptr))

	mov	eax, DWORD PTR __Ptr$[ebp]
	push	eax
	mov	ecx, DWORD PTR _this$[ebp]
	call	?_Inside@?$basic_string@DU?$char_traits@D@std@@V?$allocator@D@2@@std@@QAE_NPBD@Z ; std::basic_string<char,std::char_traits<char>,std::allocator<char> >::_Inside
	movzx	ecx, al
	test	ecx, ecx
	je	SHORT $LN2@assign

; 1155 : 			return (assign(*this,
; 1156 : 				_Ptr - this->_Myptr(), _Count));	// substring

	mov	edx, DWORD PTR __Count$[ebp]
	push	edx
	mov	ecx, DWORD PTR _this$[ebp]
	call	?_Myptr@?$_String_val@U?$_Simple_types@D@std@@@std@@QAEPADXZ ; std::_String_val<std::_Simple_types<char> >::_Myptr
	mov	ecx, DWORD PTR __Ptr$[ebp]
	sub	ecx, eax
	push	ecx
	mov	edx, DWORD PTR _this$[ebp]
	push	edx
	mov	ecx, DWORD PTR _this$[ebp]
	call	?assign@?$basic_string@DU?$char_traits@D@std@@V?$allocator@D@2@@std@@QAEAAV12@ABV12@II@Z ; std::basic_string<char,std::char_traits<char>,std::allocator<char> >::assign
	jmp	SHORT $LN3@assign
$LN2@assign:

; 1157 : 
; 1158 : 		if (_Grow(_Count))

	push	0
	mov	eax, DWORD PTR __Count$[ebp]
	push	eax
	mov	ecx, DWORD PTR _this$[ebp]
	call	?_Grow@?$basic_string@DU?$char_traits@D@std@@V?$allocator@D@2@@std@@QAE_NI_N@Z ; std::basic_string<char,std::char_traits<char>,std::allocator<char> >::_Grow
	movzx	ecx, al
	test	ecx, ecx
	je	SHORT $LN1@assign

; 1159 : 			{	// make room and assign new stuff
; 1160 : 			_Traits::copy(this->_Myptr(), _Ptr, _Count);

	mov	edx, DWORD PTR __Count$[ebp]
	push	edx
	mov	eax, DWORD PTR __Ptr$[ebp]
	push	eax
	mov	ecx, DWORD PTR _this$[ebp]
	call	?_Myptr@?$_String_val@U?$_Simple_types@D@std@@@std@@QAEPADXZ ; std::_String_val<std::_Simple_types<char> >::_Myptr
	push	eax
	call	?copy@?$char_traits@D@std@@SAPADPADPBDI@Z ; std::char_traits<char>::copy
	add	esp, 12					; 0000000cH

; 1161 : 			_Eos(_Count);

	mov	ecx, DWORD PTR __Count$[ebp]
	push	ecx
	mov	ecx, DWORD PTR _this$[ebp]
	call	?_Eos@?$basic_string@DU?$char_traits@D@std@@V?$allocator@D@2@@std@@QAEXI@Z ; std::basic_string<char,std::char_traits<char>,std::allocator<char> >::_Eos
$LN1@assign:

; 1162 : 			}
; 1163 : 		return (*this);

	mov	eax, DWORD PTR _this$[ebp]
$LN3@assign:

; 1164 : 		}

	mov	esp, ebp
	pop	ebp
	ret	8
?assign@?$basic_string@DU?$char_traits@D@std@@V?$allocator@D@2@@std@@QAEAAV12@PBDI@Z ENDP ; std::basic_string<char,std::char_traits<char>,std::allocator<char> >::assign
_TEXT	ENDS
; Function compile flags: /Odtp
; File c:\program files (x86)\microsoft visual studio 12.0\vc\include\xstring
;	COMDAT ?assign@?$basic_string@DU?$char_traits@D@std@@V?$allocator@D@2@@std@@QAEAAV12@ABV12@II@Z
_TEXT	SEGMENT
__Num$ = -8						; size = 4
_this$ = -4						; size = 4
__Right$ = 8						; size = 4
__Roff$ = 12						; size = 4
__Count$ = 16						; size = 4
?assign@?$basic_string@DU?$char_traits@D@std@@V?$allocator@D@2@@std@@QAEAAV12@ABV12@II@Z PROC ; std::basic_string<char,std::char_traits<char>,std::allocator<char> >::assign, COMDAT
; _this$ = ecx

; 1129 : 		{	// assign _Right [_Roff, _Roff + _Count)

	push	ebp
	mov	ebp, esp
	sub	esp, 8
	mov	DWORD PTR _this$[ebp], ecx

; 1130 : 		if (_Right.size() < _Roff)

	mov	ecx, DWORD PTR __Right$[ebp]
	call	?size@?$basic_string@DU?$char_traits@D@std@@V?$allocator@D@2@@std@@QBEIXZ ; std::basic_string<char,std::char_traits<char>,std::allocator<char> >::size
	cmp	eax, DWORD PTR __Roff$[ebp]
	jae	SHORT $LN5@assign

; 1131 : 			_Xran();	// _Roff off end

	mov	ecx, DWORD PTR _this$[ebp]
	call	?_Xran@?$basic_string@DU?$char_traits@D@std@@V?$allocator@D@2@@std@@QBEXXZ ; std::basic_string<char,std::char_traits<char>,std::allocator<char> >::_Xran
$LN5@assign:

; 1132 : 		size_type _Num = _Right.size() - _Roff;

	mov	ecx, DWORD PTR __Right$[ebp]
	call	?size@?$basic_string@DU?$char_traits@D@std@@V?$allocator@D@2@@std@@QBEIXZ ; std::basic_string<char,std::char_traits<char>,std::allocator<char> >::size
	sub	eax, DWORD PTR __Roff$[ebp]
	mov	DWORD PTR __Num$[ebp], eax

; 1133 : 		if (_Count < _Num)

	mov	eax, DWORD PTR __Count$[ebp]
	cmp	eax, DWORD PTR __Num$[ebp]
	jae	SHORT $LN4@assign

; 1134 : 			_Num = _Count;	// trim _Num to size

	mov	ecx, DWORD PTR __Count$[ebp]
	mov	DWORD PTR __Num$[ebp], ecx
$LN4@assign:

; 1135 : 
; 1136 : 		if (this == &_Right)

	mov	edx, DWORD PTR _this$[ebp]
	cmp	edx, DWORD PTR __Right$[ebp]
	jne	SHORT $LN3@assign

; 1137 : 			erase((size_type)(_Roff + _Num)), erase(0, _Roff);	// substring

	mov	eax, DWORD PTR __Roff$[ebp]
	add	eax, DWORD PTR __Num$[ebp]
	push	eax
	mov	ecx, DWORD PTR _this$[ebp]
	call	?erase@?$basic_string@DU?$char_traits@D@std@@V?$allocator@D@2@@std@@QAEAAV12@I@Z ; std::basic_string<char,std::char_traits<char>,std::allocator<char> >::erase
	mov	ecx, DWORD PTR __Roff$[ebp]
	push	ecx
	push	0
	mov	ecx, DWORD PTR _this$[ebp]
	call	?erase@?$basic_string@DU?$char_traits@D@std@@V?$allocator@D@2@@std@@QAEAAV12@II@Z ; std::basic_string<char,std::char_traits<char>,std::allocator<char> >::erase
	jmp	SHORT $LN2@assign
$LN3@assign:

; 1138 : 		else if (_Grow(_Num))

	push	0
	mov	edx, DWORD PTR __Num$[ebp]
	push	edx
	mov	ecx, DWORD PTR _this$[ebp]
	call	?_Grow@?$basic_string@DU?$char_traits@D@std@@V?$allocator@D@2@@std@@QAE_NI_N@Z ; std::basic_string<char,std::char_traits<char>,std::allocator<char> >::_Grow
	movzx	eax, al
	test	eax, eax
	je	SHORT $LN2@assign

; 1139 : 			{	// make room and assign new stuff
; 1140 : 			_Traits::copy(this->_Myptr(),
; 1141 : 				_Right._Myptr() + _Roff, _Num);

	mov	ecx, DWORD PTR __Num$[ebp]
	push	ecx
	mov	ecx, DWORD PTR __Right$[ebp]
	call	?_Myptr@?$_String_val@U?$_Simple_types@D@std@@@std@@QBEPBDXZ ; std::_String_val<std::_Simple_types<char> >::_Myptr
	add	eax, DWORD PTR __Roff$[ebp]
	push	eax
	mov	ecx, DWORD PTR _this$[ebp]
	call	?_Myptr@?$_String_val@U?$_Simple_types@D@std@@@std@@QAEPADXZ ; std::_String_val<std::_Simple_types<char> >::_Myptr
	push	eax
	call	?copy@?$char_traits@D@std@@SAPADPADPBDI@Z ; std::char_traits<char>::copy
	add	esp, 12					; 0000000cH

; 1142 : 			_Eos(_Num);

	mov	edx, DWORD PTR __Num$[ebp]
	push	edx
	mov	ecx, DWORD PTR _this$[ebp]
	call	?_Eos@?$basic_string@DU?$char_traits@D@std@@V?$allocator@D@2@@std@@QAEXI@Z ; std::basic_string<char,std::char_traits<char>,std::allocator<char> >::_Eos
$LN2@assign:

; 1143 : 			}
; 1144 : 		return (*this);

	mov	eax, DWORD PTR _this$[ebp]
$LN7@assign:

; 1145 : 		}

	mov	esp, ebp
	pop	ebp
	ret	12					; 0000000cH
?assign@?$basic_string@DU?$char_traits@D@std@@V?$allocator@D@2@@std@@QAEAAV12@ABV12@II@Z ENDP ; std::basic_string<char,std::char_traits<char>,std::allocator<char> >::assign
_TEXT	ENDS
; Function compile flags: /Odtp
; File c:\program files (x86)\microsoft visual studio 12.0\vc\include\xstring
;	COMDAT ?assign@?$basic_string@DU?$char_traits@D@std@@V?$allocator@D@2@@std@@QAEAAV12@ABV12@@Z
_TEXT	SEGMENT
_this$ = -4						; size = 4
__Right$ = 8						; size = 4
?assign@?$basic_string@DU?$char_traits@D@std@@V?$allocator@D@2@@std@@QAEAAV12@ABV12@@Z PROC ; std::basic_string<char,std::char_traits<char>,std::allocator<char> >::assign, COMDAT
; _this$ = ecx

; 1123 : 		{	// assign _Right

	push	ebp
	mov	ebp, esp
	push	ecx
	mov	DWORD PTR _this$[ebp], ecx

; 1124 : 		return (assign(_Right, 0, npos));

	mov	eax, DWORD PTR ?npos@?$basic_string@DU?$char_traits@D@std@@V?$allocator@D@2@@std@@2IB ; std::basic_string<char,std::char_traits<char>,std::allocator<char> >::npos
	push	eax
	push	0
	mov	ecx, DWORD PTR __Right$[ebp]
	push	ecx
	mov	ecx, DWORD PTR _this$[ebp]
	call	?assign@?$basic_string@DU?$char_traits@D@std@@V?$allocator@D@2@@std@@QAEAAV12@ABV12@II@Z ; std::basic_string<char,std::char_traits<char>,std::allocator<char> >::assign

; 1125 : 		}

	mov	esp, ebp
	pop	ebp
	ret	4
?assign@?$basic_string@DU?$char_traits@D@std@@V?$allocator@D@2@@std@@QAEAAV12@ABV12@@Z ENDP ; std::basic_string<char,std::char_traits<char>,std::allocator<char> >::assign
_TEXT	ENDS
; Function compile flags: /Odtp
; File c:\program files (x86)\microsoft visual studio 12.0\vc\include\xstring
;	COMDAT ?append@?$basic_string@DU?$char_traits@D@std@@V?$allocator@D@2@@std@@QAEAAV12@ID@Z
_TEXT	SEGMENT
__Num$ = -8						; size = 4
_this$ = -4						; size = 4
__Count$ = 8						; size = 4
__Ch$ = 12						; size = 1
?append@?$basic_string@DU?$char_traits@D@std@@V?$allocator@D@2@@std@@QAEAAV12@ID@Z PROC ; std::basic_string<char,std::char_traits<char>,std::allocator<char> >::append, COMDAT
; _this$ = ecx

; 1091 : 		{	// append _Count * _Ch

	push	ebp
	mov	ebp, esp
	sub	esp, 8
	mov	DWORD PTR _this$[ebp], ecx

; 1092 : 		if (npos - this->_Mysize <= _Count)

	mov	eax, DWORD PTR _this$[ebp]
	mov	ecx, DWORD PTR ?npos@?$basic_string@DU?$char_traits@D@std@@V?$allocator@D@2@@std@@2IB ; std::basic_string<char,std::char_traits<char>,std::allocator<char> >::npos
	sub	ecx, DWORD PTR [eax+16]
	cmp	ecx, DWORD PTR __Count$[ebp]
	ja	SHORT $LN2@append

; 1093 : 			_Xlen();	// result too long

	mov	ecx, DWORD PTR _this$[ebp]
	call	?_Xlen@?$basic_string@DU?$char_traits@D@std@@V?$allocator@D@2@@std@@QBEXXZ ; std::basic_string<char,std::char_traits<char>,std::allocator<char> >::_Xlen
$LN2@append:

; 1094 : 
; 1095 : 		size_type _Num;
; 1096 : 		if (0 < _Count && _Grow(_Num = this->_Mysize + _Count))

	cmp	DWORD PTR __Count$[ebp], 0
	jbe	SHORT $LN1@append
	mov	edx, DWORD PTR _this$[ebp]
	mov	eax, DWORD PTR [edx+16]
	add	eax, DWORD PTR __Count$[ebp]
	mov	DWORD PTR __Num$[ebp], eax
	push	0
	mov	ecx, DWORD PTR __Num$[ebp]
	push	ecx
	mov	ecx, DWORD PTR _this$[ebp]
	call	?_Grow@?$basic_string@DU?$char_traits@D@std@@V?$allocator@D@2@@std@@QAE_NI_N@Z ; std::basic_string<char,std::char_traits<char>,std::allocator<char> >::_Grow
	movzx	edx, al
	test	edx, edx
	je	SHORT $LN1@append

; 1097 : 			{	// make room and append new stuff using assign
; 1098 : 			_Chassign(this->_Mysize, _Count, _Ch);

	movzx	eax, BYTE PTR __Ch$[ebp]
	push	eax
	mov	ecx, DWORD PTR __Count$[ebp]
	push	ecx
	mov	edx, DWORD PTR _this$[ebp]
	mov	eax, DWORD PTR [edx+16]
	push	eax
	mov	ecx, DWORD PTR _this$[ebp]
	call	?_Chassign@?$basic_string@DU?$char_traits@D@std@@V?$allocator@D@2@@std@@QAEXIID@Z ; std::basic_string<char,std::char_traits<char>,std::allocator<char> >::_Chassign

; 1099 : 			_Eos(_Num);

	mov	ecx, DWORD PTR __Num$[ebp]
	push	ecx
	mov	ecx, DWORD PTR _this$[ebp]
	call	?_Eos@?$basic_string@DU?$char_traits@D@std@@V?$allocator@D@2@@std@@QAEXI@Z ; std::basic_string<char,std::char_traits<char>,std::allocator<char> >::_Eos
$LN1@append:

; 1100 : 			}
; 1101 : 		return (*this);

	mov	eax, DWORD PTR _this$[ebp]
$LN4@append:

; 1102 : 		}

	mov	esp, ebp
	pop	ebp
	ret	8
?append@?$basic_string@DU?$char_traits@D@std@@V?$allocator@D@2@@std@@QAEAAV12@ID@Z ENDP ; std::basic_string<char,std::char_traits<char>,std::allocator<char> >::append
_TEXT	ENDS
; Function compile flags: /Odtp
; File c:\program files (x86)\microsoft visual studio 12.0\vc\include\xstring
;	COMDAT ?append@?$basic_string@DU?$char_traits@D@std@@V?$allocator@D@2@@std@@QAEAAV12@PBD@Z
_TEXT	SEGMENT
_this$ = -4						; size = 4
__Ptr$ = 8						; size = 4
?append@?$basic_string@DU?$char_traits@D@std@@V?$allocator@D@2@@std@@QAEAAV12@PBD@Z PROC ; std::basic_string<char,std::char_traits<char>,std::allocator<char> >::append, COMDAT
; _this$ = ecx

; 1085 : 		{	// append [_Ptr, <null>)

	push	ebp
	mov	ebp, esp
	push	ecx
	mov	DWORD PTR _this$[ebp], ecx

; 1086 : 		_DEBUG_POINTER(_Ptr);
; 1087 : 		return (append(_Ptr, _Traits::length(_Ptr)));

	mov	eax, DWORD PTR __Ptr$[ebp]
	push	eax
	call	?length@?$char_traits@D@std@@SAIPBD@Z	; std::char_traits<char>::length
	add	esp, 4
	push	eax
	mov	ecx, DWORD PTR __Ptr$[ebp]
	push	ecx
	mov	ecx, DWORD PTR _this$[ebp]
	call	?append@?$basic_string@DU?$char_traits@D@std@@V?$allocator@D@2@@std@@QAEAAV12@PBDI@Z ; std::basic_string<char,std::char_traits<char>,std::allocator<char> >::append

; 1088 : 		}

	mov	esp, ebp
	pop	ebp
	ret	4
?append@?$basic_string@DU?$char_traits@D@std@@V?$allocator@D@2@@std@@QAEAAV12@PBD@Z ENDP ; std::basic_string<char,std::char_traits<char>,std::allocator<char> >::append
_TEXT	ENDS
; Function compile flags: /Odtp
; File c:\program files (x86)\microsoft visual studio 12.0\vc\include\xstring
;	COMDAT ?append@?$basic_string@DU?$char_traits@D@std@@V?$allocator@D@2@@std@@QAEAAV12@PBDI@Z
_TEXT	SEGMENT
__Num$ = -8						; size = 4
_this$ = -4						; size = 4
__Ptr$ = 8						; size = 4
__Count$ = 12						; size = 4
?append@?$basic_string@DU?$char_traits@D@std@@V?$allocator@D@2@@std@@QAEAAV12@PBDI@Z PROC ; std::basic_string<char,std::char_traits<char>,std::allocator<char> >::append, COMDAT
; _this$ = ecx

; 1063 : 		{	// append [_Ptr, _Ptr + _Count)

	push	ebp
	mov	ebp, esp
	sub	esp, 8
	mov	DWORD PTR _this$[ebp], ecx

; 1064 :  #if _ITERATOR_DEBUG_LEVEL == 2
; 1065 : 		if (_Count != 0)
; 1066 : 			_DEBUG_POINTER(_Ptr);
; 1067 :  #endif /* _ITERATOR_DEBUG_LEVEL == 2 */
; 1068 : 
; 1069 : 		if (_Inside(_Ptr))

	mov	eax, DWORD PTR __Ptr$[ebp]
	push	eax
	mov	ecx, DWORD PTR _this$[ebp]
	call	?_Inside@?$basic_string@DU?$char_traits@D@std@@V?$allocator@D@2@@std@@QAE_NPBD@Z ; std::basic_string<char,std::char_traits<char>,std::allocator<char> >::_Inside
	movzx	ecx, al
	test	ecx, ecx
	je	SHORT $LN3@append

; 1070 : 			return (append(*this,
; 1071 : 				_Ptr - this->_Myptr(), _Count));	// substring

	mov	edx, DWORD PTR __Count$[ebp]
	push	edx
	mov	ecx, DWORD PTR _this$[ebp]
	call	?_Myptr@?$_String_val@U?$_Simple_types@D@std@@@std@@QAEPADXZ ; std::_String_val<std::_Simple_types<char> >::_Myptr
	mov	ecx, DWORD PTR __Ptr$[ebp]
	sub	ecx, eax
	push	ecx
	mov	edx, DWORD PTR _this$[ebp]
	push	edx
	mov	ecx, DWORD PTR _this$[ebp]
	call	?append@?$basic_string@DU?$char_traits@D@std@@V?$allocator@D@2@@std@@QAEAAV12@ABV12@II@Z ; std::basic_string<char,std::char_traits<char>,std::allocator<char> >::append
	jmp	SHORT $LN5@append
$LN3@append:

; 1072 : 		if (npos - this->_Mysize <= _Count)

	mov	eax, DWORD PTR _this$[ebp]
	mov	ecx, DWORD PTR ?npos@?$basic_string@DU?$char_traits@D@std@@V?$allocator@D@2@@std@@2IB ; std::basic_string<char,std::char_traits<char>,std::allocator<char> >::npos
	sub	ecx, DWORD PTR [eax+16]
	cmp	ecx, DWORD PTR __Count$[ebp]
	ja	SHORT $LN2@append

; 1073 : 			_Xlen();	// result too long

	mov	ecx, DWORD PTR _this$[ebp]
	call	?_Xlen@?$basic_string@DU?$char_traits@D@std@@V?$allocator@D@2@@std@@QBEXXZ ; std::basic_string<char,std::char_traits<char>,std::allocator<char> >::_Xlen
$LN2@append:

; 1074 : 
; 1075 : 		size_type _Num;
; 1076 : 		if (0 < _Count && _Grow(_Num = this->_Mysize + _Count))

	cmp	DWORD PTR __Count$[ebp], 0
	jbe	SHORT $LN1@append
	mov	edx, DWORD PTR _this$[ebp]
	mov	eax, DWORD PTR [edx+16]
	add	eax, DWORD PTR __Count$[ebp]
	mov	DWORD PTR __Num$[ebp], eax
	push	0
	mov	ecx, DWORD PTR __Num$[ebp]
	push	ecx
	mov	ecx, DWORD PTR _this$[ebp]
	call	?_Grow@?$basic_string@DU?$char_traits@D@std@@V?$allocator@D@2@@std@@QAE_NI_N@Z ; std::basic_string<char,std::char_traits<char>,std::allocator<char> >::_Grow
	movzx	edx, al
	test	edx, edx
	je	SHORT $LN1@append

; 1077 : 			{	// make room and append new stuff
; 1078 : 			_Traits::copy(this->_Myptr() + this->_Mysize, _Ptr, _Count);

	mov	eax, DWORD PTR __Count$[ebp]
	push	eax
	mov	ecx, DWORD PTR __Ptr$[ebp]
	push	ecx
	mov	ecx, DWORD PTR _this$[ebp]
	call	?_Myptr@?$_String_val@U?$_Simple_types@D@std@@@std@@QAEPADXZ ; std::_String_val<std::_Simple_types<char> >::_Myptr
	mov	edx, DWORD PTR _this$[ebp]
	add	eax, DWORD PTR [edx+16]
	push	eax
	call	?copy@?$char_traits@D@std@@SAPADPADPBDI@Z ; std::char_traits<char>::copy
	add	esp, 12					; 0000000cH

; 1079 : 			_Eos(_Num);

	mov	eax, DWORD PTR __Num$[ebp]
	push	eax
	mov	ecx, DWORD PTR _this$[ebp]
	call	?_Eos@?$basic_string@DU?$char_traits@D@std@@V?$allocator@D@2@@std@@QAEXI@Z ; std::basic_string<char,std::char_traits<char>,std::allocator<char> >::_Eos
$LN1@append:

; 1080 : 			}
; 1081 : 		return (*this);

	mov	eax, DWORD PTR _this$[ebp]
$LN5@append:

; 1082 : 		}

	mov	esp, ebp
	pop	ebp
	ret	8
?append@?$basic_string@DU?$char_traits@D@std@@V?$allocator@D@2@@std@@QAEAAV12@PBDI@Z ENDP ; std::basic_string<char,std::char_traits<char>,std::allocator<char> >::append
_TEXT	ENDS
; Function compile flags: /Odtp
; File c:\program files (x86)\microsoft visual studio 12.0\vc\include\xstring
;	COMDAT ?append@?$basic_string@DU?$char_traits@D@std@@V?$allocator@D@2@@std@@QAEAAV12@ABV12@II@Z
_TEXT	SEGMENT
__Num$ = -8						; size = 4
_this$ = -4						; size = 4
__Right$ = 8						; size = 4
__Roff$ = 12						; size = 4
__Count$ = 16						; size = 4
?append@?$basic_string@DU?$char_traits@D@std@@V?$allocator@D@2@@std@@QAEAAV12@ABV12@II@Z PROC ; std::basic_string<char,std::char_traits<char>,std::allocator<char> >::append, COMDAT
; _this$ = ecx

; 1044 : 		{	// append _Right [_Roff, _Roff + _Count)

	push	ebp
	mov	ebp, esp
	sub	esp, 8
	mov	DWORD PTR _this$[ebp], ecx

; 1045 : 		if (_Right.size() < _Roff)

	mov	ecx, DWORD PTR __Right$[ebp]
	call	?size@?$basic_string@DU?$char_traits@D@std@@V?$allocator@D@2@@std@@QBEIXZ ; std::basic_string<char,std::char_traits<char>,std::allocator<char> >::size
	cmp	eax, DWORD PTR __Roff$[ebp]
	jae	SHORT $LN4@append

; 1046 : 			_Xran();	// _Roff off end

	mov	ecx, DWORD PTR _this$[ebp]
	call	?_Xran@?$basic_string@DU?$char_traits@D@std@@V?$allocator@D@2@@std@@QBEXXZ ; std::basic_string<char,std::char_traits<char>,std::allocator<char> >::_Xran
$LN4@append:

; 1047 : 		size_type _Num = _Right.size() - _Roff;

	mov	ecx, DWORD PTR __Right$[ebp]
	call	?size@?$basic_string@DU?$char_traits@D@std@@V?$allocator@D@2@@std@@QBEIXZ ; std::basic_string<char,std::char_traits<char>,std::allocator<char> >::size
	sub	eax, DWORD PTR __Roff$[ebp]
	mov	DWORD PTR __Num$[ebp], eax

; 1048 : 		if (_Num < _Count)

	mov	eax, DWORD PTR __Num$[ebp]
	cmp	eax, DWORD PTR __Count$[ebp]
	jae	SHORT $LN3@append

; 1049 : 			_Count = _Num;	// trim _Count to size

	mov	ecx, DWORD PTR __Num$[ebp]
	mov	DWORD PTR __Count$[ebp], ecx
$LN3@append:

; 1050 : 		if (npos - this->_Mysize <= _Count)

	mov	edx, DWORD PTR _this$[ebp]
	mov	eax, DWORD PTR ?npos@?$basic_string@DU?$char_traits@D@std@@V?$allocator@D@2@@std@@2IB ; std::basic_string<char,std::char_traits<char>,std::allocator<char> >::npos
	sub	eax, DWORD PTR [edx+16]
	cmp	eax, DWORD PTR __Count$[ebp]
	ja	SHORT $LN2@append

; 1051 : 			_Xlen();	// result too long

	mov	ecx, DWORD PTR _this$[ebp]
	call	?_Xlen@?$basic_string@DU?$char_traits@D@std@@V?$allocator@D@2@@std@@QBEXXZ ; std::basic_string<char,std::char_traits<char>,std::allocator<char> >::_Xlen
$LN2@append:

; 1052 : 
; 1053 : 		if (0 < _Count && _Grow(_Num = this->_Mysize + _Count))

	cmp	DWORD PTR __Count$[ebp], 0
	jbe	SHORT $LN1@append
	mov	ecx, DWORD PTR _this$[ebp]
	mov	edx, DWORD PTR [ecx+16]
	add	edx, DWORD PTR __Count$[ebp]
	mov	DWORD PTR __Num$[ebp], edx
	push	0
	mov	eax, DWORD PTR __Num$[ebp]
	push	eax
	mov	ecx, DWORD PTR _this$[ebp]
	call	?_Grow@?$basic_string@DU?$char_traits@D@std@@V?$allocator@D@2@@std@@QAE_NI_N@Z ; std::basic_string<char,std::char_traits<char>,std::allocator<char> >::_Grow
	movzx	ecx, al
	test	ecx, ecx
	je	SHORT $LN1@append

; 1054 : 			{	// make room and append new stuff
; 1055 : 			_Traits::copy(this->_Myptr() + this->_Mysize,
; 1056 : 				_Right._Myptr() + _Roff, _Count);

	mov	edx, DWORD PTR __Count$[ebp]
	push	edx
	mov	ecx, DWORD PTR __Right$[ebp]
	call	?_Myptr@?$_String_val@U?$_Simple_types@D@std@@@std@@QBEPBDXZ ; std::_String_val<std::_Simple_types<char> >::_Myptr
	add	eax, DWORD PTR __Roff$[ebp]
	push	eax
	mov	ecx, DWORD PTR _this$[ebp]
	call	?_Myptr@?$_String_val@U?$_Simple_types@D@std@@@std@@QAEPADXZ ; std::_String_val<std::_Simple_types<char> >::_Myptr
	mov	ecx, DWORD PTR _this$[ebp]
	add	eax, DWORD PTR [ecx+16]
	push	eax
	call	?copy@?$char_traits@D@std@@SAPADPADPBDI@Z ; std::char_traits<char>::copy
	add	esp, 12					; 0000000cH

; 1057 : 			_Eos(_Num);

	mov	edx, DWORD PTR __Num$[ebp]
	push	edx
	mov	ecx, DWORD PTR _this$[ebp]
	call	?_Eos@?$basic_string@DU?$char_traits@D@std@@V?$allocator@D@2@@std@@QAEXI@Z ; std::basic_string<char,std::char_traits<char>,std::allocator<char> >::_Eos
$LN1@append:

; 1058 : 			}
; 1059 : 		return (*this);

	mov	eax, DWORD PTR _this$[ebp]
$LN6@append:

; 1060 : 		}

	mov	esp, ebp
	pop	ebp
	ret	12					; 0000000cH
?append@?$basic_string@DU?$char_traits@D@std@@V?$allocator@D@2@@std@@QAEAAV12@ABV12@II@Z ENDP ; std::basic_string<char,std::char_traits<char>,std::allocator<char> >::append
_TEXT	ENDS
; Function compile flags: /Odtp
; File c:\program files (x86)\microsoft visual studio 12.0\vc\include\xstring
;	COMDAT ?append@?$basic_string@DU?$char_traits@D@std@@V?$allocator@D@2@@std@@QAEAAV12@ABV12@@Z
_TEXT	SEGMENT
_this$ = -4						; size = 4
__Right$ = 8						; size = 4
?append@?$basic_string@DU?$char_traits@D@std@@V?$allocator@D@2@@std@@QAEAAV12@ABV12@@Z PROC ; std::basic_string<char,std::char_traits<char>,std::allocator<char> >::append, COMDAT
; _this$ = ecx

; 1038 : 		{	// append _Right

	push	ebp
	mov	ebp, esp
	push	ecx
	mov	DWORD PTR _this$[ebp], ecx

; 1039 : 		return (append(_Right, 0, npos));

	mov	eax, DWORD PTR ?npos@?$basic_string@DU?$char_traits@D@std@@V?$allocator@D@2@@std@@2IB ; std::basic_string<char,std::char_traits<char>,std::allocator<char> >::npos
	push	eax
	push	0
	mov	ecx, DWORD PTR __Right$[ebp]
	push	ecx
	mov	ecx, DWORD PTR _this$[ebp]
	call	?append@?$basic_string@DU?$char_traits@D@std@@V?$allocator@D@2@@std@@QAEAAV12@ABV12@II@Z ; std::basic_string<char,std::char_traits<char>,std::allocator<char> >::append

; 1040 : 		}

	mov	esp, ebp
	pop	ebp
	ret	4
?append@?$basic_string@DU?$char_traits@D@std@@V?$allocator@D@2@@std@@QAEAAV12@ABV12@@Z ENDP ; std::basic_string<char,std::char_traits<char>,std::allocator<char> >::append
_TEXT	ENDS
; Function compile flags: /Odtp
; File c:\program files (x86)\microsoft visual studio 12.0\vc\include\xstring
;	COMDAT ??Y?$basic_string@DU?$char_traits@D@std@@V?$allocator@D@2@@std@@QAEAAV01@D@Z
_TEXT	SEGMENT
_this$ = -4						; size = 4
__Ch$ = 8						; size = 1
??Y?$basic_string@DU?$char_traits@D@std@@V?$allocator@D@2@@std@@QAEAAV01@D@Z PROC ; std::basic_string<char,std::char_traits<char>,std::allocator<char> >::operator+=, COMDAT
; _this$ = ecx

; 1033 : 		{	// append 1 * _Ch

	push	ebp
	mov	ebp, esp
	push	ecx
	mov	DWORD PTR _this$[ebp], ecx

; 1034 : 		return (append((size_type)1, _Ch));

	movzx	eax, BYTE PTR __Ch$[ebp]
	push	eax
	push	1
	mov	ecx, DWORD PTR _this$[ebp]
	call	?append@?$basic_string@DU?$char_traits@D@std@@V?$allocator@D@2@@std@@QAEAAV12@ID@Z ; std::basic_string<char,std::char_traits<char>,std::allocator<char> >::append

; 1035 : 		}

	mov	esp, ebp
	pop	ebp
	ret	4
??Y?$basic_string@DU?$char_traits@D@std@@V?$allocator@D@2@@std@@QAEAAV01@D@Z ENDP ; std::basic_string<char,std::char_traits<char>,std::allocator<char> >::operator+=
_TEXT	ENDS
; Function compile flags: /Odtp
; File c:\program files (x86)\microsoft visual studio 12.0\vc\include\xstring
;	COMDAT ??Y?$basic_string@DU?$char_traits@D@std@@V?$allocator@D@2@@std@@QAEAAV01@PBD@Z
_TEXT	SEGMENT
_this$ = -4						; size = 4
__Ptr$ = 8						; size = 4
??Y?$basic_string@DU?$char_traits@D@std@@V?$allocator@D@2@@std@@QAEAAV01@PBD@Z PROC ; std::basic_string<char,std::char_traits<char>,std::allocator<char> >::operator+=, COMDAT
; _this$ = ecx

; 1028 : 		{	// append [_Ptr, <null>)

	push	ebp
	mov	ebp, esp
	push	ecx
	mov	DWORD PTR _this$[ebp], ecx

; 1029 : 		return (append(_Ptr));

	mov	eax, DWORD PTR __Ptr$[ebp]
	push	eax
	mov	ecx, DWORD PTR _this$[ebp]
	call	?append@?$basic_string@DU?$char_traits@D@std@@V?$allocator@D@2@@std@@QAEAAV12@PBD@Z ; std::basic_string<char,std::char_traits<char>,std::allocator<char> >::append

; 1030 : 		}

	mov	esp, ebp
	pop	ebp
	ret	4
??Y?$basic_string@DU?$char_traits@D@std@@V?$allocator@D@2@@std@@QAEAAV01@PBD@Z ENDP ; std::basic_string<char,std::char_traits<char>,std::allocator<char> >::operator+=
_TEXT	ENDS
; Function compile flags: /Odtp
; File c:\program files (x86)\microsoft visual studio 12.0\vc\include\xstring
;	COMDAT ??Y?$basic_string@DU?$char_traits@D@std@@V?$allocator@D@2@@std@@QAEAAV01@ABV01@@Z
_TEXT	SEGMENT
_this$ = -4						; size = 4
__Right$ = 8						; size = 4
??Y?$basic_string@DU?$char_traits@D@std@@V?$allocator@D@2@@std@@QAEAAV01@ABV01@@Z PROC ; std::basic_string<char,std::char_traits<char>,std::allocator<char> >::operator+=, COMDAT
; _this$ = ecx

; 1023 : 		{	// append _Right

	push	ebp
	mov	ebp, esp
	push	ecx
	mov	DWORD PTR _this$[ebp], ecx

; 1024 : 		return (append(_Right));

	mov	eax, DWORD PTR __Right$[ebp]
	push	eax
	mov	ecx, DWORD PTR _this$[ebp]
	call	?append@?$basic_string@DU?$char_traits@D@std@@V?$allocator@D@2@@std@@QAEAAV12@ABV12@@Z ; std::basic_string<char,std::char_traits<char>,std::allocator<char> >::append

; 1025 : 		}

	mov	esp, ebp
	pop	ebp
	ret	4
??Y?$basic_string@DU?$char_traits@D@std@@V?$allocator@D@2@@std@@QAEAAV01@ABV01@@Z ENDP ; std::basic_string<char,std::char_traits<char>,std::allocator<char> >::operator+=
_TEXT	ENDS
; Function compile flags: /Odtp
; File c:\program files (x86)\microsoft visual studio 12.0\vc\include\xstring
;	COMDAT ??4?$basic_string@DU?$char_traits@D@std@@V?$allocator@D@2@@std@@QAEAAV01@PBD@Z
_TEXT	SEGMENT
_this$ = -4						; size = 4
__Ptr$ = 8						; size = 4
??4?$basic_string@DU?$char_traits@D@std@@V?$allocator@D@2@@std@@QAEAAV01@PBD@Z PROC ; std::basic_string<char,std::char_traits<char>,std::allocator<char> >::operator=, COMDAT
; _this$ = ecx

; 1013 : 		{	// assign [_Ptr, <null>)

	push	ebp
	mov	ebp, esp
	push	ecx
	mov	DWORD PTR _this$[ebp], ecx

; 1014 : 		return (assign(_Ptr));

	mov	eax, DWORD PTR __Ptr$[ebp]
	push	eax
	mov	ecx, DWORD PTR _this$[ebp]
	call	?assign@?$basic_string@DU?$char_traits@D@std@@V?$allocator@D@2@@std@@QAEAAV12@PBD@Z ; std::basic_string<char,std::char_traits<char>,std::allocator<char> >::assign

; 1015 : 		}

	mov	esp, ebp
	pop	ebp
	ret	4
??4?$basic_string@DU?$char_traits@D@std@@V?$allocator@D@2@@std@@QAEAAV01@PBD@Z ENDP ; std::basic_string<char,std::char_traits<char>,std::allocator<char> >::operator=
_TEXT	ENDS
; Function compile flags: /Odtp
; File c:\program files (x86)\microsoft visual studio 12.0\vc\include\xstring
;	COMDAT ??4?$basic_string@DU?$char_traits@D@std@@V?$allocator@D@2@@std@@QAEAAV01@ABV01@@Z
_TEXT	SEGMENT
_this$ = -8						; size = 4
$T1 = -3						; size = 1
$T2 = -2						; size = 1
$T3 = -1						; size = 1
__Right$ = 8						; size = 4
??4?$basic_string@DU?$char_traits@D@std@@V?$allocator@D@2@@std@@QAEAAV01@ABV01@@Z PROC ; std::basic_string<char,std::char_traits<char>,std::allocator<char> >::operator=, COMDAT
; _this$ = ecx

; 997  : 		{	// assign _Right

	push	ebp
	mov	ebp, esp
	sub	esp, 8
	mov	DWORD PTR _this$[ebp], ecx

; 998  : 		if (this != &_Right)

	mov	eax, DWORD PTR _this$[ebp]
	cmp	eax, DWORD PTR __Right$[ebp]
	je	SHORT $LN2@operator

; 999  : 			{	// different, assign it
; 1000 : 			if (this->_Getal() != _Right._Getal()
; 1001 : 				&& _Alty::propagate_on_container_copy_assignment::value)

	lea	ecx, DWORD PTR $T3[ebp]
	push	ecx
	mov	ecx, DWORD PTR __Right$[ebp]
	call	?_Getal@?$_String_alloc@$0A@U?$_String_base_types@DV?$allocator@D@std@@@std@@@std@@QBE?AU?$_Wrap_alloc@V?$allocator@D@std@@@2@XZ ; std::_String_alloc<0,std::_String_base_types<char,std::allocator<char> > >::_Getal
	push	eax
	lea	edx, DWORD PTR $T2[ebp]
	push	edx
	mov	ecx, DWORD PTR _this$[ebp]
	call	?_Getal@?$_String_alloc@$0A@U?$_String_base_types@DV?$allocator@D@std@@@std@@@std@@QBE?AU?$_Wrap_alloc@V?$allocator@D@std@@@2@XZ ; std::_String_alloc<0,std::_String_base_types<char,std::allocator<char> > >::_Getal
	push	eax
	call	??$?9V?$allocator@D@std@@V01@@std@@YA_NABU?$_Wrap_alloc@V?$allocator@D@std@@@0@0@Z ; std::operator!=<std::allocator<char>,std::allocator<char> >
	add	esp, 8
	movzx	eax, al
	test	eax, eax
	je	SHORT $LN1@operator
	xor	ecx, ecx
	je	SHORT $LN1@operator

; 1002 : 				{	// change allocator before copying
; 1003 : 				_Tidy(true);

	push	0
	push	1
	mov	ecx, DWORD PTR _this$[ebp]
	call	?_Tidy@?$basic_string@DU?$char_traits@D@std@@V?$allocator@D@2@@std@@QAEX_NI@Z ; std::basic_string<char,std::char_traits<char>,std::allocator<char> >::_Tidy

; 1004 : 				this->_Change_alloc(_Right._Getal());

	lea	edx, DWORD PTR $T1[ebp]
	push	edx
	mov	ecx, DWORD PTR __Right$[ebp]
	call	?_Getal@?$_String_alloc@$0A@U?$_String_base_types@DV?$allocator@D@std@@@std@@@std@@QBE?AU?$_Wrap_alloc@V?$allocator@D@std@@@2@XZ ; std::_String_alloc<0,std::_String_base_types<char,std::allocator<char> > >::_Getal
	push	eax
	mov	ecx, DWORD PTR _this$[ebp]
	call	?_Change_alloc@?$_String_alloc@$0A@U?$_String_base_types@DV?$allocator@D@std@@@std@@@std@@QAEXABU?$_Wrap_alloc@V?$allocator@D@std@@@2@@Z ; std::_String_alloc<0,std::_String_base_types<char,std::allocator<char> > >::_Change_alloc
$LN1@operator:

; 1005 : 				}
; 1006 : 
; 1007 : 			assign(_Right);

	mov	eax, DWORD PTR __Right$[ebp]
	push	eax
	mov	ecx, DWORD PTR _this$[ebp]
	call	?assign@?$basic_string@DU?$char_traits@D@std@@V?$allocator@D@2@@std@@QAEAAV12@ABV12@@Z ; std::basic_string<char,std::char_traits<char>,std::allocator<char> >::assign
$LN2@operator:

; 1008 : 			}
; 1009 : 		return (*this);

	mov	eax, DWORD PTR _this$[ebp]

; 1010 : 		}

	mov	esp, ebp
	pop	ebp
	ret	4
??4?$basic_string@DU?$char_traits@D@std@@V?$allocator@D@2@@std@@QAEAAV01@ABV01@@Z ENDP ; std::basic_string<char,std::char_traits<char>,std::allocator<char> >::operator=
_TEXT	ENDS
; Function compile flags: /Odtp
; File c:\program files (x86)\microsoft visual studio 12.0\vc\include\xstring
;	COMDAT ??1?$basic_string@DU?$char_traits@D@std@@V?$allocator@D@2@@std@@QAE@XZ
_TEXT	SEGMENT
_this$ = -4						; size = 4
??1?$basic_string@DU?$char_traits@D@std@@V?$allocator@D@2@@std@@QAE@XZ PROC ; std::basic_string<char,std::char_traits<char>,std::allocator<char> >::~basic_string<char,std::char_traits<char>,std::allocator<char> >, COMDAT
; _this$ = ecx

; 990  : 		{	// destroy the string

	push	ebp
	mov	ebp, esp
	push	ecx
	mov	DWORD PTR _this$[ebp], ecx

; 991  : 		_Tidy(true);

	push	0
	push	1
	mov	ecx, DWORD PTR _this$[ebp]
	call	?_Tidy@?$basic_string@DU?$char_traits@D@std@@V?$allocator@D@2@@std@@QAEX_NI@Z ; std::basic_string<char,std::char_traits<char>,std::allocator<char> >::_Tidy

; 992  : 		}

	mov	esp, ebp
	pop	ebp
	ret	0
??1?$basic_string@DU?$char_traits@D@std@@V?$allocator@D@2@@std@@QAE@XZ ENDP ; std::basic_string<char,std::char_traits<char>,std::allocator<char> >::~basic_string<char,std::char_traits<char>,std::allocator<char> >
_TEXT	ENDS
; Function compile flags: /Odtp
; File c:\program files (x86)\microsoft visual studio 12.0\vc\include\xstring
;	COMDAT ?_Assign_rv@?$basic_string@DU?$char_traits@D@std@@V?$allocator@D@2@@std@@QAEX$$QAV12@@Z
_TEXT	SEGMENT
_this$ = -8						; size = 4
$T1 = -1						; size = 1
__Right$ = 8						; size = 4
?_Assign_rv@?$basic_string@DU?$char_traits@D@std@@V?$allocator@D@2@@std@@QAEX$$QAV12@@Z PROC ; std::basic_string<char,std::char_traits<char>,std::allocator<char> >::_Assign_rv, COMDAT
; _this$ = ecx

; 935  : 		{	// assign by moving _Right

	push	ebp
	mov	ebp, esp
	sub	esp, 8
	mov	DWORD PTR _this$[ebp], ecx

; 936  : 		if (_Right._Myres < this->_BUF_SIZE)

	mov	eax, DWORD PTR __Right$[ebp]
	cmp	DWORD PTR [eax+20], 16			; 00000010H
	jae	SHORT $LN2@Assign_rv

; 937  : 			_Traits::move(this->_Bx._Buf, _Right._Bx._Buf,
; 938  : 				_Right._Mysize + 1);

	mov	ecx, DWORD PTR __Right$[ebp]
	mov	edx, DWORD PTR [ecx+16]
	add	edx, 1
	push	edx
	mov	eax, DWORD PTR __Right$[ebp]
	push	eax
	mov	ecx, DWORD PTR _this$[ebp]
	push	ecx
	call	?move@?$char_traits@D@std@@SAPADPADPBDI@Z ; std::char_traits<char>::move
	add	esp, 12					; 0000000cH

; 939  : 		else

	jmp	SHORT $LN1@Assign_rv
$LN2@Assign_rv:

; 940  : 			{	// copy pointer
; 941  : 			this->_Getal().construct(&this->_Bx._Ptr, _Right._Bx._Ptr);

	mov	edx, DWORD PTR __Right$[ebp]
	push	edx
	mov	eax, DWORD PTR _this$[ebp]
	push	eax
	lea	ecx, DWORD PTR $T1[ebp]
	push	ecx
	mov	ecx, DWORD PTR _this$[ebp]
	call	?_Getal@?$_String_alloc@$0A@U?$_String_base_types@DV?$allocator@D@std@@@std@@@std@@QBE?AU?$_Wrap_alloc@V?$allocator@D@std@@@2@XZ ; std::_String_alloc<0,std::_String_base_types<char,std::allocator<char> > >::_Getal
	mov	ecx, eax
	call	??$construct@PADAAPAD@?$_Wrap_alloc@V?$allocator@D@std@@@std@@QAEXPAPADAAPAD@Z ; std::_Wrap_alloc<std::allocator<char> >::construct<char *,char * &>

; 942  : 			_Right._Bx._Ptr = pointer();

	mov	edx, DWORD PTR __Right$[ebp]
	mov	DWORD PTR [edx], 0
$LN1@Assign_rv:

; 943  : 			}
; 944  : 		this->_Mysize = _Right._Mysize;

	mov	eax, DWORD PTR _this$[ebp]
	mov	ecx, DWORD PTR __Right$[ebp]
	mov	edx, DWORD PTR [ecx+16]
	mov	DWORD PTR [eax+16], edx

; 945  : 		this->_Myres = _Right._Myres;

	mov	eax, DWORD PTR _this$[ebp]
	mov	ecx, DWORD PTR __Right$[ebp]
	mov	edx, DWORD PTR [ecx+20]
	mov	DWORD PTR [eax+20], edx

; 946  : 		_Right._Tidy();

	push	0
	push	0
	mov	ecx, DWORD PTR __Right$[ebp]
	call	?_Tidy@?$basic_string@DU?$char_traits@D@std@@V?$allocator@D@2@@std@@QAEX_NI@Z ; std::basic_string<char,std::char_traits<char>,std::allocator<char> >::_Tidy

; 947  : 		}

	mov	esp, ebp
	pop	ebp
	ret	4
?_Assign_rv@?$basic_string@DU?$char_traits@D@std@@V?$allocator@D@2@@std@@QAEX$$QAV12@@Z ENDP ; std::basic_string<char,std::char_traits<char>,std::allocator<char> >::_Assign_rv
_TEXT	ENDS
; Function compile flags: /Odtp
; File c:\program files (x86)\microsoft visual studio 12.0\vc\include\xstring
;	COMDAT ??0?$basic_string@DU?$char_traits@D@std@@V?$allocator@D@2@@std@@QAE@$$QAV01@@Z
_TEXT	SEGMENT
_this$ = -8						; size = 4
$T1 = -1						; size = 1
__Right$ = 8						; size = 4
??0?$basic_string@DU?$char_traits@D@std@@V?$allocator@D@2@@std@@QAE@$$QAV01@@Z PROC ; std::basic_string<char,std::char_traits<char>,std::allocator<char> >::basic_string<char,std::char_traits<char>,std::allocator<char> >, COMDAT
; _this$ = ecx

; 887  : 		{	// construct by moving _Right

	push	ebp
	mov	ebp, esp
	sub	esp, 8
	mov	DWORD PTR _this$[ebp], ecx
	lea	eax, DWORD PTR $T1[ebp]
	push	eax
	mov	ecx, DWORD PTR __Right$[ebp]
	call	?_Getal@?$_String_alloc@$0A@U?$_String_base_types@DV?$allocator@D@std@@@std@@@std@@QBE?AU?$_Wrap_alloc@V?$allocator@D@std@@@2@XZ ; std::_String_alloc<0,std::_String_base_types<char,std::allocator<char> > >::_Getal
	push	eax
	mov	ecx, DWORD PTR _this$[ebp]
	call	??0?$_String_alloc@$0A@U?$_String_base_types@DV?$allocator@D@std@@@std@@@std@@QAE@ABV?$allocator@D@1@@Z ; std::_String_alloc<0,std::_String_base_types<char,std::allocator<char> > >::_String_alloc<0,std::_String_base_types<char,std::allocator<char> > >

; 888  : 		_Tidy();

	push	0
	push	0
	mov	ecx, DWORD PTR _this$[ebp]
	call	?_Tidy@?$basic_string@DU?$char_traits@D@std@@V?$allocator@D@2@@std@@QAEX_NI@Z ; std::basic_string<char,std::char_traits<char>,std::allocator<char> >::_Tidy

; 889  : 		_Assign_rv(_STD forward<_Myt>(_Right));

	mov	ecx, DWORD PTR __Right$[ebp]
	push	ecx
	call	??$forward@V?$basic_string@DU?$char_traits@D@std@@V?$allocator@D@2@@std@@@std@@YA$$QAV?$basic_string@DU?$char_traits@D@std@@V?$allocator@D@2@@0@AAV10@@Z ; std::forward<std::basic_string<char,std::char_traits<char>,std::allocator<char> > >
	add	esp, 4
	push	eax
	mov	ecx, DWORD PTR _this$[ebp]
	call	?_Assign_rv@?$basic_string@DU?$char_traits@D@std@@V?$allocator@D@2@@std@@QAEX$$QAV12@@Z ; std::basic_string<char,std::char_traits<char>,std::allocator<char> >::_Assign_rv

; 890  : 		}

	mov	eax, DWORD PTR _this$[ebp]
	mov	esp, ebp
	pop	ebp
	ret	4
??0?$basic_string@DU?$char_traits@D@std@@V?$allocator@D@2@@std@@QAE@$$QAV01@@Z ENDP ; std::basic_string<char,std::char_traits<char>,std::allocator<char> >::basic_string<char,std::char_traits<char>,std::allocator<char> >
_TEXT	ENDS
; Function compile flags: /Odtp
; File c:\program files (x86)\microsoft visual studio 12.0\vc\include\xstring
;	COMDAT ??0?$basic_string@DU?$char_traits@D@std@@V?$allocator@D@2@@std@@QAE@PBD0@Z
_TEXT	SEGMENT
_this$ = -8						; size = 4
$T1 = -1						; size = 1
__First$ = 8						; size = 4
__Last$ = 12						; size = 4
??0?$basic_string@DU?$char_traits@D@std@@V?$allocator@D@2@@std@@QAE@PBD0@Z PROC ; std::basic_string<char,std::char_traits<char>,std::allocator<char> >::basic_string<char,std::char_traits<char>,std::allocator<char> >, COMDAT
; _this$ = ecx

; 859  : 		{	// construct from [_First, _Last), const pointers

	push	ebp
	mov	ebp, esp
	sub	esp, 8
	mov	DWORD PTR _this$[ebp], ecx
	lea	ecx, DWORD PTR $T1[ebp]
	call	??0?$allocator@D@std@@QAE@XZ		; std::allocator<char>::allocator<char>
	push	eax
	mov	ecx, DWORD PTR _this$[ebp]
	call	??0?$_String_alloc@$0A@U?$_String_base_types@DV?$allocator@D@std@@@std@@@std@@QAE@ABV?$allocator@D@1@@Z ; std::_String_alloc<0,std::_String_base_types<char,std::allocator<char> > >::_String_alloc<0,std::_String_base_types<char,std::allocator<char> > >

; 860  : 		_DEBUG_RANGE(_First, _Last);
; 861  : 		_Tidy();

	push	0
	push	0
	mov	ecx, DWORD PTR _this$[ebp]
	call	?_Tidy@?$basic_string@DU?$char_traits@D@std@@V?$allocator@D@2@@std@@QAEX_NI@Z ; std::basic_string<char,std::char_traits<char>,std::allocator<char> >::_Tidy

; 862  : 		if (_First != _Last)

	mov	eax, DWORD PTR __First$[ebp]
	cmp	eax, DWORD PTR __Last$[ebp]
	je	SHORT $LN2@basic_stri

; 863  : 			assign(&*_First, _Last - _First);

	mov	ecx, DWORD PTR __Last$[ebp]
	sub	ecx, DWORD PTR __First$[ebp]
	push	ecx
	mov	edx, DWORD PTR __First$[ebp]
	push	edx
	mov	ecx, DWORD PTR _this$[ebp]
	call	?assign@?$basic_string@DU?$char_traits@D@std@@V?$allocator@D@2@@std@@QAEAAV12@PBDI@Z ; std::basic_string<char,std::char_traits<char>,std::allocator<char> >::assign
$LN2@basic_stri:

; 864  : 		}

	mov	eax, DWORD PTR _this$[ebp]
	mov	esp, ebp
	pop	ebp
	ret	8
??0?$basic_string@DU?$char_traits@D@std@@V?$allocator@D@2@@std@@QAE@PBD0@Z ENDP ; std::basic_string<char,std::char_traits<char>,std::allocator<char> >::basic_string<char,std::char_traits<char>,std::allocator<char> >
_TEXT	ENDS
; Function compile flags: /Odtp
; File c:\program files (x86)\microsoft visual studio 12.0\vc\include\xstring
;	COMDAT ??0?$basic_string@DU?$char_traits@D@std@@V?$allocator@D@2@@std@@QAE@PBD@Z
_TEXT	SEGMENT
_this$ = -8						; size = 4
$T1 = -1						; size = 1
__Ptr$ = 8						; size = 4
??0?$basic_string@DU?$char_traits@D@std@@V?$allocator@D@2@@std@@QAE@PBD@Z PROC ; std::basic_string<char,std::char_traits<char>,std::allocator<char> >::basic_string<char,std::char_traits<char>,std::allocator<char> >, COMDAT
; _this$ = ecx

; 780  : 		{	// construct from [_Ptr, <null>)

	push	ebp
	mov	ebp, esp
	sub	esp, 8
	mov	DWORD PTR _this$[ebp], ecx
	lea	ecx, DWORD PTR $T1[ebp]
	call	??0?$allocator@D@std@@QAE@XZ		; std::allocator<char>::allocator<char>
	push	eax
	mov	ecx, DWORD PTR _this$[ebp]
	call	??0?$_String_alloc@$0A@U?$_String_base_types@DV?$allocator@D@std@@@std@@@std@@QAE@ABV?$allocator@D@1@@Z ; std::_String_alloc<0,std::_String_base_types<char,std::allocator<char> > >::_String_alloc<0,std::_String_base_types<char,std::allocator<char> > >

; 781  : 		_Tidy();

	push	0
	push	0
	mov	ecx, DWORD PTR _this$[ebp]
	call	?_Tidy@?$basic_string@DU?$char_traits@D@std@@V?$allocator@D@2@@std@@QAEX_NI@Z ; std::basic_string<char,std::char_traits<char>,std::allocator<char> >::_Tidy

; 782  : 		assign(_Ptr);

	mov	eax, DWORD PTR __Ptr$[ebp]
	push	eax
	mov	ecx, DWORD PTR _this$[ebp]
	call	?assign@?$basic_string@DU?$char_traits@D@std@@V?$allocator@D@2@@std@@QAEAAV12@PBD@Z ; std::basic_string<char,std::char_traits<char>,std::allocator<char> >::assign

; 783  : 		}

	mov	eax, DWORD PTR _this$[ebp]
	mov	esp, ebp
	pop	ebp
	ret	4
??0?$basic_string@DU?$char_traits@D@std@@V?$allocator@D@2@@std@@QAE@PBD@Z ENDP ; std::basic_string<char,std::char_traits<char>,std::allocator<char> >::basic_string<char,std::char_traits<char>,std::allocator<char> >
_TEXT	ENDS
; Function compile flags: /Odtp
; File c:\program files (x86)\microsoft visual studio 12.0\vc\include\xstring
;	COMDAT ??0?$basic_string@DU?$char_traits@D@std@@V?$allocator@D@2@@std@@QAE@XZ
_TEXT	SEGMENT
_this$ = -8						; size = 4
$T1 = -1						; size = 1
??0?$basic_string@DU?$char_traits@D@std@@V?$allocator@D@2@@std@@QAE@XZ PROC ; std::basic_string<char,std::char_traits<char>,std::allocator<char> >::basic_string<char,std::char_traits<char>,std::allocator<char> >, COMDAT
; _this$ = ecx

; 738  : 		{	// construct empty string

	push	ebp
	mov	ebp, esp
	sub	esp, 8
	mov	DWORD PTR _this$[ebp], ecx
	lea	ecx, DWORD PTR $T1[ebp]
	call	??0?$allocator@D@std@@QAE@XZ		; std::allocator<char>::allocator<char>
	push	eax
	mov	ecx, DWORD PTR _this$[ebp]
	call	??0?$_String_alloc@$0A@U?$_String_base_types@DV?$allocator@D@std@@@std@@@std@@QAE@ABV?$allocator@D@1@@Z ; std::_String_alloc<0,std::_String_base_types<char,std::allocator<char> > >::_String_alloc<0,std::_String_base_types<char,std::allocator<char> > >

; 739  : 		_Tidy();

	push	0
	push	0
	mov	ecx, DWORD PTR _this$[ebp]
	call	?_Tidy@?$basic_string@DU?$char_traits@D@std@@V?$allocator@D@2@@std@@QAEX_NI@Z ; std::basic_string<char,std::char_traits<char>,std::allocator<char> >::_Tidy

; 740  : 		}

	mov	eax, DWORD PTR _this$[ebp]
	mov	esp, ebp
	pop	ebp
	ret	0
??0?$basic_string@DU?$char_traits@D@std@@V?$allocator@D@2@@std@@QAE@XZ ENDP ; std::basic_string<char,std::char_traits<char>,std::allocator<char> >::basic_string<char,std::char_traits<char>,std::allocator<char> >
_TEXT	ENDS
; Function compile flags: /Odtp
; File c:\program files (x86)\microsoft visual studio 12.0\vc\include\xstring
;	COMDAT ??0?$basic_string@DU?$char_traits@D@std@@V?$allocator@D@2@@std@@QAE@ABV01@@Z
_TEXT	SEGMENT
_this$ = -8						; size = 4
$T1 = -2						; size = 1
$T2 = -1						; size = 1
__Right$ = 8						; size = 4
??0?$basic_string@DU?$char_traits@D@std@@V?$allocator@D@2@@std@@QAE@ABV01@@Z PROC ; std::basic_string<char,std::char_traits<char>,std::allocator<char> >::basic_string<char,std::char_traits<char>,std::allocator<char> >, COMDAT
; _this$ = ecx

; 724  : 		{	// construct by copying _Right

	push	ebp
	mov	ebp, esp
	sub	esp, 8
	mov	DWORD PTR _this$[ebp], ecx
	lea	eax, DWORD PTR $T2[ebp]
	push	eax
	lea	ecx, DWORD PTR $T1[ebp]
	push	ecx
	mov	ecx, DWORD PTR __Right$[ebp]
	call	?_Getal@?$_String_alloc@$0A@U?$_String_base_types@DV?$allocator@D@std@@@std@@@std@@QBE?AU?$_Wrap_alloc@V?$allocator@D@std@@@2@XZ ; std::_String_alloc<0,std::_String_base_types<char,std::allocator<char> > >::_Getal
	mov	ecx, eax
	call	?select_on_container_copy_construction@?$_Wrap_alloc@V?$allocator@D@std@@@std@@QBE?AU12@XZ ; std::_Wrap_alloc<std::allocator<char> >::select_on_container_copy_construction
	push	eax
	mov	ecx, DWORD PTR _this$[ebp]
	call	??0?$_String_alloc@$0A@U?$_String_base_types@DV?$allocator@D@std@@@std@@@std@@QAE@ABV?$allocator@D@1@@Z ; std::_String_alloc<0,std::_String_base_types<char,std::allocator<char> > >::_String_alloc<0,std::_String_base_types<char,std::allocator<char> > >

; 725  : 		_Tidy();

	push	0
	push	0
	mov	ecx, DWORD PTR _this$[ebp]
	call	?_Tidy@?$basic_string@DU?$char_traits@D@std@@V?$allocator@D@2@@std@@QAEX_NI@Z ; std::basic_string<char,std::char_traits<char>,std::allocator<char> >::_Tidy

; 726  : 		assign(_Right, 0, npos);

	mov	edx, DWORD PTR ?npos@?$basic_string@DU?$char_traits@D@std@@V?$allocator@D@2@@std@@2IB ; std::basic_string<char,std::char_traits<char>,std::allocator<char> >::npos
	push	edx
	push	0
	mov	eax, DWORD PTR __Right$[ebp]
	push	eax
	mov	ecx, DWORD PTR _this$[ebp]
	call	?assign@?$basic_string@DU?$char_traits@D@std@@V?$allocator@D@2@@std@@QAEAAV12@ABV12@II@Z ; std::basic_string<char,std::char_traits<char>,std::allocator<char> >::assign

; 727  : 		}

	mov	eax, DWORD PTR _this$[ebp]
	mov	esp, ebp
	pop	ebp
	ret	4
??0?$basic_string@DU?$char_traits@D@std@@V?$allocator@D@2@@std@@QAE@ABV01@@Z ENDP ; std::basic_string<char,std::char_traits<char>,std::allocator<char> >::basic_string<char,std::char_traits<char>,std::allocator<char> >
_TEXT	ENDS
; Function compile flags: /Odtp
; File c:\program files (x86)\microsoft visual studio 12.0\vc\include\xstring
;	COMDAT ?_Getal@?$_String_alloc@$0A@U?$_String_base_types@DV?$allocator@D@std@@@std@@@std@@QBE?AU?$_Wrap_alloc@V?$allocator@D@std@@@2@XZ
_TEXT	SEGMENT
_this$ = -4						; size = 4
___$ReturnUdt$ = 8					; size = 4
?_Getal@?$_String_alloc@$0A@U?$_String_base_types@DV?$allocator@D@std@@@std@@@std@@QBE?AU?$_Wrap_alloc@V?$allocator@D@std@@@2@XZ PROC ; std::_String_alloc<0,std::_String_base_types<char,std::allocator<char> > >::_Getal, COMDAT
; _this$ = ecx

; 683  : 		{	// get reference to allocator

	push	ebp
	mov	ebp, esp
	push	ecx
	mov	DWORD PTR _this$[ebp], ecx

; 684  : 		return (_Alty());

	mov	ecx, DWORD PTR ___$ReturnUdt$[ebp]
	call	??0?$_Wrap_alloc@V?$allocator@D@std@@@std@@QAE@XZ ; std::_Wrap_alloc<std::allocator<char> >::_Wrap_alloc<std::allocator<char> >
	mov	eax, DWORD PTR ___$ReturnUdt$[ebp]

; 685  : 		}

	mov	esp, ebp
	pop	ebp
	ret	4
?_Getal@?$_String_alloc@$0A@U?$_String_base_types@DV?$allocator@D@std@@@std@@@std@@QBE?AU?$_Wrap_alloc@V?$allocator@D@std@@@2@XZ ENDP ; std::_String_alloc<0,std::_String_base_types<char,std::allocator<char> > >::_Getal
_TEXT	ENDS
; Function compile flags: /Odtp
; File c:\program files (x86)\microsoft visual studio 12.0\vc\include\xstring
;	COMDAT ?_Change_alloc@?$_String_alloc@$0A@U?$_String_base_types@DV?$allocator@D@std@@@std@@@std@@QAEXABU?$_Wrap_alloc@V?$allocator@D@std@@@2@@Z
_TEXT	SEGMENT
_this$ = -4						; size = 4
___formal$ = 8						; size = 4
?_Change_alloc@?$_String_alloc@$0A@U?$_String_base_types@DV?$allocator@D@std@@@std@@@std@@QAEXABU?$_Wrap_alloc@V?$allocator@D@std@@@2@@Z PROC ; std::_String_alloc<0,std::_String_base_types<char,std::allocator<char> > >::_Change_alloc, COMDAT
; _this$ = ecx

; 635  : 		{	// replace old allocator

	push	ebp
	mov	ebp, esp
	push	ecx
	mov	DWORD PTR _this$[ebp], ecx

; 636  : 		}

	mov	esp, ebp
	pop	ebp
	ret	4
?_Change_alloc@?$_String_alloc@$0A@U?$_String_base_types@DV?$allocator@D@std@@@std@@@std@@QAEXABU?$_Wrap_alloc@V?$allocator@D@std@@@2@@Z ENDP ; std::_String_alloc<0,std::_String_base_types<char,std::allocator<char> > >::_Change_alloc
_TEXT	ENDS
; Function compile flags: /Odtp
; File c:\program files (x86)\microsoft visual studio 12.0\vc\include\xstring
;	COMDAT ??0?$_String_alloc@$0A@U?$_String_base_types@DV?$allocator@D@std@@@std@@@std@@QAE@ABV?$allocator@D@1@@Z
_TEXT	SEGMENT
_this$ = -4						; size = 4
___formal$ = 8						; size = 4
??0?$_String_alloc@$0A@U?$_String_base_types@DV?$allocator@D@std@@@std@@@std@@QAE@ABV?$allocator@D@1@@Z PROC ; std::_String_alloc<0,std::_String_base_types<char,std::allocator<char> > >::_String_alloc<0,std::_String_base_types<char,std::allocator<char> > >, COMDAT
; _this$ = ecx

; 630  : 	_String_alloc(const _Alloc& = _Alloc())

	push	ebp
	mov	ebp, esp
	push	ecx
	mov	DWORD PTR _this$[ebp], ecx
	mov	ecx, DWORD PTR _this$[ebp]
	call	??0?$_String_val@U?$_Simple_types@D@std@@@std@@QAE@XZ ; std::_String_val<std::_Simple_types<char> >::_String_val<std::_Simple_types<char> >

; 631  : 		{	// construct allocator from _Al
; 632  : 		}

	mov	eax, DWORD PTR _this$[ebp]
	mov	esp, ebp
	pop	ebp
	ret	4
??0?$_String_alloc@$0A@U?$_String_base_types@DV?$allocator@D@std@@@std@@@std@@QAE@ABV?$allocator@D@1@@Z ENDP ; std::_String_alloc<0,std::_String_base_types<char,std::allocator<char> > >::_String_alloc<0,std::_String_base_types<char,std::allocator<char> > >
_TEXT	ENDS
; Function compile flags: /Odtp
; File c:\program files (x86)\microsoft visual studio 12.0\vc\include\xstring
;	COMDAT ?_Myptr@?$_String_val@U?$_Simple_types@D@std@@@std@@QBEPBDXZ
_TEXT	SEGMENT
tv72 = -8						; size = 4
_this$ = -4						; size = 4
?_Myptr@?$_String_val@U?$_Simple_types@D@std@@@std@@QBEPBDXZ PROC ; std::_String_val<std::_Simple_types<char> >::_Myptr, COMDAT
; _this$ = ecx

; 517  : 		{	// determine current pointer to buffer for nonmutable string

	push	ebp
	mov	ebp, esp
	sub	esp, 8
	mov	DWORD PTR _this$[ebp], ecx

; 518  : 		return (this->_BUF_SIZE <= this->_Myres
; 519  : 			? _STD addressof(*this->_Bx._Ptr)
; 520  : 			: this->_Bx._Buf);

	mov	eax, DWORD PTR _this$[ebp]
	cmp	DWORD PTR [eax+20], 16			; 00000010H
	jb	SHORT $LN3@Myptr
	mov	ecx, DWORD PTR _this$[ebp]
	mov	edx, DWORD PTR [ecx]
	push	edx
	call	??$addressof@D@std@@YAPADAAD@Z		; std::addressof<char>
	add	esp, 4
	mov	DWORD PTR tv72[ebp], eax
	jmp	SHORT $LN4@Myptr
$LN3@Myptr:
	mov	eax, DWORD PTR _this$[ebp]
	mov	DWORD PTR tv72[ebp], eax
$LN4@Myptr:
	mov	eax, DWORD PTR tv72[ebp]

; 521  : 		}

	mov	esp, ebp
	pop	ebp
	ret	0
?_Myptr@?$_String_val@U?$_Simple_types@D@std@@@std@@QBEPBDXZ ENDP ; std::_String_val<std::_Simple_types<char> >::_Myptr
_TEXT	ENDS
; Function compile flags: /Odtp
; File c:\program files (x86)\microsoft visual studio 12.0\vc\include\xstring
;	COMDAT ?_Myptr@?$_String_val@U?$_Simple_types@D@std@@@std@@QAEPADXZ
_TEXT	SEGMENT
tv72 = -8						; size = 4
_this$ = -4						; size = 4
?_Myptr@?$_String_val@U?$_Simple_types@D@std@@@std@@QAEPADXZ PROC ; std::_String_val<std::_Simple_types<char> >::_Myptr, COMDAT
; _this$ = ecx

; 510  : 		{	// determine current pointer to buffer for mutable string

	push	ebp
	mov	ebp, esp
	sub	esp, 8
	mov	DWORD PTR _this$[ebp], ecx

; 511  : 		return (this->_BUF_SIZE <= this->_Myres
; 512  : 			? _STD addressof(*this->_Bx._Ptr)
; 513  : 			: this->_Bx._Buf);

	mov	eax, DWORD PTR _this$[ebp]
	cmp	DWORD PTR [eax+20], 16			; 00000010H
	jb	SHORT $LN3@Myptr
	mov	ecx, DWORD PTR _this$[ebp]
	mov	edx, DWORD PTR [ecx]
	push	edx
	call	??$addressof@D@std@@YAPADAAD@Z		; std::addressof<char>
	add	esp, 4
	mov	DWORD PTR tv72[ebp], eax
	jmp	SHORT $LN4@Myptr
$LN3@Myptr:
	mov	eax, DWORD PTR _this$[ebp]
	mov	DWORD PTR tv72[ebp], eax
$LN4@Myptr:
	mov	eax, DWORD PTR tv72[ebp]

; 514  : 		}

	mov	esp, ebp
	pop	ebp
	ret	0
?_Myptr@?$_String_val@U?$_Simple_types@D@std@@@std@@QAEPADXZ ENDP ; std::_String_val<std::_Simple_types<char> >::_Myptr
_TEXT	ENDS
; Function compile flags: /Odtp
; File c:\program files (x86)\microsoft visual studio 12.0\vc\include\xstring
;	COMDAT ??0?$_String_val@U?$_Simple_types@D@std@@@std@@QAE@XZ
_TEXT	SEGMENT
_this$ = -4						; size = 4
??0?$_String_val@U?$_Simple_types@D@std@@@std@@QAE@XZ PROC ; std::_String_val<std::_Simple_types<char> >::_String_val<std::_Simple_types<char> >, COMDAT
; _this$ = ecx

; 492  : 	_String_val()

	push	ebp
	mov	ebp, esp
	push	ecx
	mov	DWORD PTR _this$[ebp], ecx

; 493  : 		{	// initialize values
; 494  : 		_Mysize = 0;

	mov	eax, DWORD PTR _this$[ebp]
	mov	DWORD PTR [eax+16], 0

; 495  : 		_Myres = 0;

	mov	ecx, DWORD PTR _this$[ebp]
	mov	DWORD PTR [ecx+20], 0

; 496  : 		}

	mov	eax, DWORD PTR _this$[ebp]
	mov	esp, ebp
	pop	ebp
	ret	0
??0?$_String_val@U?$_Simple_types@D@std@@@std@@QAE@XZ ENDP ; std::_String_val<std::_Simple_types<char> >::_String_val<std::_Simple_types<char> >
_TEXT	ENDS
; Function compile flags: /Odtp
; File c:\program files (x86)\microsoft visual studio 12.0\vc\include\xmemory0
;	COMDAT ?max_size@?$_Wrap_alloc@V?$allocator@D@std@@@std@@QBEIXZ
_TEXT	SEGMENT
_this$ = -4						; size = 4
?max_size@?$_Wrap_alloc@V?$allocator@D@std@@@std@@QBEIXZ PROC ; std::_Wrap_alloc<std::allocator<char> >::max_size, COMDAT
; _this$ = ecx

; 883  : 		{	// get maximum size

	push	ebp
	mov	ebp, esp
	push	ecx
	mov	DWORD PTR _this$[ebp], ecx

; 884  : 		return (_Mytraits::max_size(*this));

	mov	eax, DWORD PTR _this$[ebp]
	push	eax
	call	?max_size@?$allocator_traits@V?$allocator@D@std@@@std@@SAIABV?$allocator@D@2@@Z ; std::allocator_traits<std::allocator<char> >::max_size
	add	esp, 4

; 885  : 		}

	mov	esp, ebp
	pop	ebp
	ret	0
?max_size@?$_Wrap_alloc@V?$allocator@D@std@@@std@@QBEIXZ ENDP ; std::_Wrap_alloc<std::allocator<char> >::max_size
_TEXT	ENDS
; Function compile flags: /Odtp
; File c:\program files (x86)\microsoft visual studio 12.0\vc\include\xmemory0
;	COMDAT ?deallocate@?$_Wrap_alloc@V?$allocator@D@std@@@std@@QAEXPADI@Z
_TEXT	SEGMENT
_this$ = -4						; size = 4
__Ptr$ = 8						; size = 4
__Count$ = 12						; size = 4
?deallocate@?$_Wrap_alloc@V?$allocator@D@std@@@std@@QAEXPADI@Z PROC ; std::_Wrap_alloc<std::allocator<char> >::deallocate, COMDAT
; _this$ = ecx

; 857  : 		{	// deallocate object at _Ptr, ignore size

	push	ebp
	mov	ebp, esp
	push	ecx
	mov	DWORD PTR _this$[ebp], ecx

; 858  : 		_Mybase::deallocate(_Ptr, _Count);

	mov	eax, DWORD PTR __Count$[ebp]
	push	eax
	mov	ecx, DWORD PTR __Ptr$[ebp]
	push	ecx
	mov	ecx, DWORD PTR _this$[ebp]
	call	?deallocate@?$allocator@D@std@@QAEXPADI@Z ; std::allocator<char>::deallocate

; 859  : 		}

	mov	esp, ebp
	pop	ebp
	ret	8
?deallocate@?$_Wrap_alloc@V?$allocator@D@std@@@std@@QAEXPADI@Z ENDP ; std::_Wrap_alloc<std::allocator<char> >::deallocate
_TEXT	ENDS
; Function compile flags: /Odtp
; File c:\program files (x86)\microsoft visual studio 12.0\vc\include\xmemory0
;	COMDAT ?allocate@?$_Wrap_alloc@V?$allocator@D@std@@@std@@QAEPADI@Z
_TEXT	SEGMENT
_this$ = -4						; size = 4
__Count$ = 8						; size = 4
?allocate@?$_Wrap_alloc@V?$allocator@D@std@@@std@@QAEPADI@Z PROC ; std::_Wrap_alloc<std::allocator<char> >::allocate, COMDAT
; _this$ = ecx

; 846  : 		{	// allocate array of _Count elements

	push	ebp
	mov	ebp, esp
	push	ecx
	mov	DWORD PTR _this$[ebp], ecx

; 847  : 		return (_Mybase::allocate(_Count));

	mov	eax, DWORD PTR __Count$[ebp]
	push	eax
	mov	ecx, DWORD PTR _this$[ebp]
	call	?allocate@?$allocator@D@std@@QAEPADI@Z	; std::allocator<char>::allocate

; 848  : 		}

	mov	esp, ebp
	pop	ebp
	ret	4
?allocate@?$_Wrap_alloc@V?$allocator@D@std@@@std@@QAEPADI@Z ENDP ; std::_Wrap_alloc<std::allocator<char> >::allocate
_TEXT	ENDS
; Function compile flags: /Odtp
; File c:\program files (x86)\microsoft visual studio 12.0\vc\include\xmemory0
;	COMDAT ??0?$_Wrap_alloc@V?$allocator@D@std@@@std@@QAE@ABV?$allocator@D@1@@Z
_TEXT	SEGMENT
_this$ = -4						; size = 4
__Right$ = 8						; size = 4
??0?$_Wrap_alloc@V?$allocator@D@std@@@std@@QAE@ABV?$allocator@D@1@@Z PROC ; std::_Wrap_alloc<std::allocator<char> >::_Wrap_alloc<std::allocator<char> >, COMDAT
; _this$ = ecx

; 806  : 		{	// construct by copying base

	push	ebp
	mov	ebp, esp
	push	ecx
	mov	DWORD PTR _this$[ebp], ecx
	mov	eax, DWORD PTR __Right$[ebp]
	push	eax
	mov	ecx, DWORD PTR _this$[ebp]
	call	??0?$allocator@D@std@@QAE@ABV01@@Z	; std::allocator<char>::allocator<char>

; 807  : 		}

	mov	eax, DWORD PTR _this$[ebp]
	mov	esp, ebp
	pop	ebp
	ret	4
??0?$_Wrap_alloc@V?$allocator@D@std@@@std@@QAE@ABV?$allocator@D@1@@Z ENDP ; std::_Wrap_alloc<std::allocator<char> >::_Wrap_alloc<std::allocator<char> >
_TEXT	ENDS
; Function compile flags: /Odtp
; File c:\program files (x86)\microsoft visual studio 12.0\vc\include\xmemory0
;	COMDAT ??0?$_Wrap_alloc@V?$allocator@D@std@@@std@@QAE@XZ
_TEXT	SEGMENT
_this$ = -4						; size = 4
??0?$_Wrap_alloc@V?$allocator@D@std@@@std@@QAE@XZ PROC	; std::_Wrap_alloc<std::allocator<char> >::_Wrap_alloc<std::allocator<char> >, COMDAT
; _this$ = ecx

; 801  : 		{	// construct default allocator (do nothing)

	push	ebp
	mov	ebp, esp
	push	ecx
	mov	DWORD PTR _this$[ebp], ecx
	mov	ecx, DWORD PTR _this$[ebp]
	call	??0?$allocator@D@std@@QAE@XZ		; std::allocator<char>::allocator<char>

; 802  : 		}

	mov	eax, DWORD PTR _this$[ebp]
	mov	esp, ebp
	pop	ebp
	ret	0
??0?$_Wrap_alloc@V?$allocator@D@std@@@std@@QAE@XZ ENDP	; std::_Wrap_alloc<std::allocator<char> >::_Wrap_alloc<std::allocator<char> >
_TEXT	ENDS
; Function compile flags: /Odtp
; File c:\program files (x86)\microsoft visual studio 12.0\vc\include\xmemory0
;	COMDAT ?select_on_container_copy_construction@?$_Wrap_alloc@V?$allocator@D@std@@@std@@QBE?AU12@XZ
_TEXT	SEGMENT
_this$ = -8						; size = 4
$T1 = -1						; size = 1
___$ReturnUdt$ = 8					; size = 4
?select_on_container_copy_construction@?$_Wrap_alloc@V?$allocator@D@std@@@std@@QBE?AU12@XZ PROC ; std::_Wrap_alloc<std::allocator<char> >::select_on_container_copy_construction, COMDAT
; _this$ = ecx

; 778  : 		{	// get allocator to use

	push	ebp
	mov	ebp, esp
	sub	esp, 8
	mov	DWORD PTR _this$[ebp], ecx

; 779  : 		return (_Mytraits::select_on_container_copy_construction(*this));

	mov	eax, DWORD PTR _this$[ebp]
	push	eax
	lea	ecx, DWORD PTR $T1[ebp]
	push	ecx
	call	?select_on_container_copy_construction@?$allocator_traits@V?$allocator@D@std@@@std@@SA?AV?$allocator@D@2@ABV32@@Z ; std::allocator_traits<std::allocator<char> >::select_on_container_copy_construction
	add	esp, 8
	push	eax
	mov	ecx, DWORD PTR ___$ReturnUdt$[ebp]
	call	??0?$_Wrap_alloc@V?$allocator@D@std@@@std@@QAE@ABV?$allocator@D@1@@Z ; std::_Wrap_alloc<std::allocator<char> >::_Wrap_alloc<std::allocator<char> >
	mov	eax, DWORD PTR ___$ReturnUdt$[ebp]

; 780  : 		}

	mov	esp, ebp
	pop	ebp
	ret	4
?select_on_container_copy_construction@?$_Wrap_alloc@V?$allocator@D@std@@@std@@QBE?AU12@XZ ENDP ; std::_Wrap_alloc<std::allocator<char> >::select_on_container_copy_construction
_TEXT	ENDS
; Function compile flags: /Odtp
; File c:\program files (x86)\microsoft visual studio 12.0\vc\include\xmemory0
;	COMDAT ?select_on_container_copy_construction@?$allocator_traits@V?$allocator@D@std@@@std@@SA?AV?$allocator@D@2@ABV32@@Z
_TEXT	SEGMENT
___$ReturnUdt$ = 8					; size = 4
__Al$ = 12						; size = 4
?select_on_container_copy_construction@?$allocator_traits@V?$allocator@D@std@@@std@@SA?AV?$allocator@D@2@ABV32@@Z PROC ; std::allocator_traits<std::allocator<char> >::select_on_container_copy_construction, COMDAT

; 740  : 		{	// get allocator to use

	push	ebp
	mov	ebp, esp

; 741  : 		return (_Al.select_on_container_copy_construction());

	mov	eax, DWORD PTR ___$ReturnUdt$[ebp]
	push	eax
	mov	ecx, DWORD PTR __Al$[ebp]
	call	?select_on_container_copy_construction@?$allocator@D@std@@QBE?AV12@XZ ; std::allocator<char>::select_on_container_copy_construction
	mov	eax, DWORD PTR ___$ReturnUdt$[ebp]

; 742  : 		}

	pop	ebp
	ret	0
?select_on_container_copy_construction@?$allocator_traits@V?$allocator@D@std@@@std@@SA?AV?$allocator@D@2@ABV32@@Z ENDP ; std::allocator_traits<std::allocator<char> >::select_on_container_copy_construction
_TEXT	ENDS
; Function compile flags: /Odtp
; File c:\program files (x86)\microsoft visual studio 12.0\vc\include\xmemory0
;	COMDAT ?max_size@?$allocator_traits@V?$allocator@D@std@@@std@@SAIABV?$allocator@D@2@@Z
_TEXT	SEGMENT
__Al$ = 8						; size = 4
?max_size@?$allocator_traits@V?$allocator@D@std@@@std@@SAIABV?$allocator@D@2@@Z PROC ; std::allocator_traits<std::allocator<char> >::max_size, COMDAT

; 734  : 		{	// get maximum size

	push	ebp
	mov	ebp, esp

; 735  : 		return (_Al.max_size());

	mov	ecx, DWORD PTR __Al$[ebp]
	call	?max_size@?$allocator@D@std@@QBEIXZ	; std::allocator<char>::max_size

; 736  : 		}

	pop	ebp
	ret	0
?max_size@?$allocator_traits@V?$allocator@D@std@@@std@@SAIABV?$allocator@D@2@@Z ENDP ; std::allocator_traits<std::allocator<char> >::max_size
_TEXT	ENDS
; Function compile flags: /Odtp
; File c:\program files (x86)\microsoft visual studio 12.0\vc\include\xmemory0
;	COMDAT ?max_size@?$allocator@D@std@@QBEIXZ
_TEXT	SEGMENT
_this$ = -4						; size = 4
?max_size@?$allocator@D@std@@QBEIXZ PROC		; std::allocator<char>::max_size, COMDAT
; _this$ = ecx

; 611  : 		{	// estimate maximum array size

	push	ebp
	mov	ebp, esp
	push	ecx
	mov	DWORD PTR _this$[ebp], ecx

; 612  : 		return ((size_t)(-1) / sizeof (_Ty));

	or	eax, -1

; 613  : 		}

	mov	esp, ebp
	pop	ebp
	ret	0
?max_size@?$allocator@D@std@@QBEIXZ ENDP		; std::allocator<char>::max_size
_TEXT	ENDS
; Function compile flags: /Odtp
; File c:\program files (x86)\microsoft visual studio 12.0\vc\include\xmemory0
;	COMDAT ?allocate@?$allocator@D@std@@QAEPADI@Z
_TEXT	SEGMENT
_this$ = -4						; size = 4
__Count$ = 8						; size = 4
?allocate@?$allocator@D@std@@QAEPADI@Z PROC		; std::allocator<char>::allocate, COMDAT
; _this$ = ecx

; 577  : 		{	// allocate array of _Count elements

	push	ebp
	mov	ebp, esp
	push	ecx
	mov	DWORD PTR _this$[ebp], ecx

; 578  : 		return (_Allocate(_Count, (pointer)0));

	push	0
	mov	eax, DWORD PTR __Count$[ebp]
	push	eax
	call	??$_Allocate@D@std@@YAPADIPAD@Z		; std::_Allocate<char>
	add	esp, 8

; 579  : 		}

	mov	esp, ebp
	pop	ebp
	ret	4
?allocate@?$allocator@D@std@@QAEPADI@Z ENDP		; std::allocator<char>::allocate
_TEXT	ENDS
; Function compile flags: /Odtp
; File c:\program files (x86)\microsoft visual studio 12.0\vc\include\xmemory0
;	COMDAT ?deallocate@?$allocator@D@std@@QAEXPADI@Z
_TEXT	SEGMENT
_this$ = -4						; size = 4
__Ptr$ = 8						; size = 4
___formal$ = 12						; size = 4
?deallocate@?$allocator@D@std@@QAEXPADI@Z PROC		; std::allocator<char>::deallocate, COMDAT
; _this$ = ecx

; 572  : 		{	// deallocate object at _Ptr, ignore size

	push	ebp
	mov	ebp, esp
	push	ecx
	mov	DWORD PTR _this$[ebp], ecx

; 573  : 		::operator delete(_Ptr);

	mov	eax, DWORD PTR __Ptr$[ebp]
	push	eax
	call	??3@YAXPAX@Z				; operator delete
	add	esp, 4

; 574  : 		}

	mov	esp, ebp
	pop	ebp
	ret	8
?deallocate@?$allocator@D@std@@QAEXPADI@Z ENDP		; std::allocator<char>::deallocate
_TEXT	ENDS
; Function compile flags: /Odtp
; File c:\program files (x86)\microsoft visual studio 12.0\vc\include\xmemory0
;	COMDAT ??0?$allocator@D@std@@QAE@ABV01@@Z
_TEXT	SEGMENT
_this$ = -4						; size = 4
___formal$ = 8						; size = 4
??0?$allocator@D@std@@QAE@ABV01@@Z PROC			; std::allocator<char>::allocator<char>, COMDAT
; _this$ = ecx

; 556  : 	allocator(const allocator<_Ty>&) _THROW0()

	push	ebp
	mov	ebp, esp
	push	ecx
	mov	DWORD PTR _this$[ebp], ecx

; 557  : 		{	// construct by copying (do nothing)
; 558  : 		}

	mov	eax, DWORD PTR _this$[ebp]
	mov	esp, ebp
	pop	ebp
	ret	4
??0?$allocator@D@std@@QAE@ABV01@@Z ENDP			; std::allocator<char>::allocator<char>
_TEXT	ENDS
; Function compile flags: /Odtp
; File c:\program files (x86)\microsoft visual studio 12.0\vc\include\xmemory0
;	COMDAT ??0?$allocator@D@std@@QAE@XZ
_TEXT	SEGMENT
_this$ = -4						; size = 4
??0?$allocator@D@std@@QAE@XZ PROC			; std::allocator<char>::allocator<char>, COMDAT
; _this$ = ecx

; 552  : 	allocator() _THROW0()

	push	ebp
	mov	ebp, esp
	push	ecx
	mov	DWORD PTR _this$[ebp], ecx

; 553  : 		{	// construct default allocator (do nothing)
; 554  : 		}

	mov	eax, DWORD PTR _this$[ebp]
	mov	esp, ebp
	pop	ebp
	ret	0
??0?$allocator@D@std@@QAE@XZ ENDP			; std::allocator<char>::allocator<char>
_TEXT	ENDS
; Function compile flags: /Odtp
; File c:\program files (x86)\microsoft visual studio 12.0\vc\include\xmemory0
;	COMDAT ?select_on_container_copy_construction@?$allocator@D@std@@QBE?AV12@XZ
_TEXT	SEGMENT
_this$ = -4						; size = 4
___$ReturnUdt$ = 8					; size = 4
?select_on_container_copy_construction@?$allocator@D@std@@QBE?AV12@XZ PROC ; std::allocator<char>::select_on_container_copy_construction, COMDAT
; _this$ = ecx

; 532  : 		{	// return this allocator

	push	ebp
	mov	ebp, esp
	push	ecx
	mov	DWORD PTR _this$[ebp], ecx

; 533  : 		return (*this);

	mov	eax, DWORD PTR _this$[ebp]
	push	eax
	mov	ecx, DWORD PTR ___$ReturnUdt$[ebp]
	call	??0?$allocator@D@std@@QAE@ABV01@@Z	; std::allocator<char>::allocator<char>
	mov	eax, DWORD PTR ___$ReturnUdt$[ebp]

; 534  : 		}

	mov	esp, ebp
	pop	ebp
	ret	4
?select_on_container_copy_construction@?$allocator@D@std@@QBE?AV12@XZ ENDP ; std::allocator<char>::select_on_container_copy_construction
_TEXT	ENDS
; Function compile flags: /Odtp
; File c:\program files (x86)\microsoft visual studio 12.0\vc\include\xutility
;	COMDAT ??__Eallocator_arg@std@@YAXXZ
text$di	SEGMENT
$T1 = -1						; size = 1
??__Eallocator_arg@std@@YAXXZ PROC			; std::`dynamic initializer for 'allocator_arg'', COMDAT

; 3451 : const allocator_arg_t allocator_arg = allocator_arg_t();

	push	ebp
	mov	ebp, esp
	push	ecx
	xor	eax, eax
	mov	BYTE PTR $T1[ebp], al
	mov	esp, ebp
	pop	ebp
	ret	0
??__Eallocator_arg@std@@YAXXZ ENDP			; std::`dynamic initializer for 'allocator_arg''
text$di	ENDS
; Function compile flags: /Odtp
; File c:\program files (x86)\microsoft visual studio 12.0\vc\include\xutility
;	COMDAT ?_Getcont@_Iterator_base12@std@@QBEPBU_Container_base12@2@XZ
_TEXT	SEGMENT
tv68 = -8						; size = 4
_this$ = -4						; size = 4
?_Getcont@_Iterator_base12@std@@QBEPBU_Container_base12@2@XZ PROC ; std::_Iterator_base12::_Getcont, COMDAT
; _this$ = ecx

; 182  : 		{	// get owning container

	push	ebp
	mov	ebp, esp
	sub	esp, 8
	mov	DWORD PTR _this$[ebp], ecx

; 183  : 		return (_Myproxy == 0 ? 0 : _Myproxy->_Mycont);

	mov	eax, DWORD PTR _this$[ebp]
	cmp	DWORD PTR [eax], 0
	jne	SHORT $LN3@Getcont
	mov	DWORD PTR tv68[ebp], 0
	jmp	SHORT $LN4@Getcont
$LN3@Getcont:
	mov	ecx, DWORD PTR _this$[ebp]
	mov	edx, DWORD PTR [ecx]
	mov	eax, DWORD PTR [edx]
	mov	DWORD PTR tv68[ebp], eax
$LN4@Getcont:
	mov	eax, DWORD PTR tv68[ebp]

; 184  : 		}

	mov	esp, ebp
	pop	ebp
	ret	0
?_Getcont@_Iterator_base12@std@@QBEPBU_Container_base12@2@XZ ENDP ; std::_Iterator_base12::_Getcont
_TEXT	ENDS
; Function compile flags: /Odtp
; File c:\program files (x86)\microsoft visual studio 12.0\vc\include\xutility
;	COMDAT ?_Adopt@_Iterator_base12@std@@QAEXPBU_Container_base12@2@@Z
_TEXT	SEGMENT
__Parent_proxy$1 = -8					; size = 4
_this$ = -4						; size = 4
__Parent$ = 8						; size = 4
?_Adopt@_Iterator_base12@std@@QAEXPBU_Container_base12@2@@Z PROC ; std::_Iterator_base12::_Adopt, COMDAT
; _this$ = ecx

; 148  : 		{	// adopt this iterator by parent

	push	ebp
	mov	ebp, esp
	sub	esp, 8
	mov	DWORD PTR _this$[ebp], ecx

; 149  : 		if (_Parent == 0)

	cmp	DWORD PTR __Parent$[ebp], 0
	jne	SHORT $LN2@Adopt

; 150  : 			{	// no future parent, just disown current parent
; 151  :  #if _ITERATOR_DEBUG_LEVEL == 2
; 152  : 			_Lockit _Lock(_LOCK_DEBUG);
; 153  : 			_Orphan_me();
; 154  :  #endif /* _ITERATOR_DEBUG_LEVEL == 2 */
; 155  : 			}
; 156  : 		else

	jmp	SHORT $LN3@Adopt
$LN2@Adopt:

; 157  : 			{	// have a parent, do adoption
; 158  : 			_Container_proxy *_Parent_proxy = _Parent->_Myproxy;

	mov	eax, DWORD PTR __Parent$[ebp]
	mov	ecx, DWORD PTR [eax]
	mov	DWORD PTR __Parent_proxy$1[ebp], ecx

; 159  : 
; 160  :  #if _ITERATOR_DEBUG_LEVEL == 2
; 161  : 			if (_Myproxy != _Parent_proxy)
; 162  : 				{	// change parentage
; 163  : 				_Lockit _Lock(_LOCK_DEBUG);
; 164  : 				_Orphan_me();
; 165  : 				_Mynextiter = _Parent_proxy->_Myfirstiter;
; 166  : 				_Parent_proxy->_Myfirstiter = this;
; 167  : 				_Myproxy = _Parent_proxy;
; 168  : 				}
; 169  : 
; 170  :  #else /* _ITERATOR_DEBUG_LEVEL == 2 */
; 171  : 			_Myproxy = _Parent_proxy;

	mov	edx, DWORD PTR _this$[ebp]
	mov	eax, DWORD PTR __Parent_proxy$1[ebp]
	mov	DWORD PTR [edx], eax
$LN3@Adopt:

; 172  :  #endif /* _ITERATOR_DEBUG_LEVEL == 2 */
; 173  : 			}
; 174  : 		}

	mov	esp, ebp
	pop	ebp
	ret	4
?_Adopt@_Iterator_base12@std@@QAEXPBU_Container_base12@2@@Z ENDP ; std::_Iterator_base12::_Adopt
_TEXT	ENDS
; Function compile flags: /Odtp
; File c:\program files (x86)\microsoft visual studio 12.0\vc\include\xutility
;	COMDAT ??1_Iterator_base12@std@@QAE@XZ
_TEXT	SEGMENT
_this$ = -4						; size = 4
??1_Iterator_base12@std@@QAE@XZ PROC			; std::_Iterator_base12::~_Iterator_base12, COMDAT
; _this$ = ecx

; 140  : 		{	// destroy the iterator

	push	ebp
	mov	ebp, esp
	push	ecx
	mov	DWORD PTR _this$[ebp], ecx

; 141  :  #if _ITERATOR_DEBUG_LEVEL == 2
; 142  : 		_Lockit _Lock(_LOCK_DEBUG);
; 143  : 		_Orphan_me();
; 144  :  #endif /* _ITERATOR_DEBUG_LEVEL == 2 */
; 145  : 		}

	mov	esp, ebp
	pop	ebp
	ret	0
??1_Iterator_base12@std@@QAE@XZ ENDP			; std::_Iterator_base12::~_Iterator_base12
_TEXT	ENDS
; Function compile flags: /Odtp
; File c:\program files (x86)\microsoft visual studio 12.0\vc\include\xutility
;	COMDAT ??4_Iterator_base12@std@@QAEAAU01@ABU01@@Z
_TEXT	SEGMENT
_this$ = -4						; size = 4
__Right$ = 8						; size = 4
??4_Iterator_base12@std@@QAEAAU01@ABU01@@Z PROC		; std::_Iterator_base12::operator=, COMDAT
; _this$ = ecx

; 124  : 		{	// assign an iterator

	push	ebp
	mov	ebp, esp
	push	ecx
	mov	DWORD PTR _this$[ebp], ecx

; 125  : 		if (_Myproxy == _Right._Myproxy)

	mov	eax, DWORD PTR _this$[ebp]
	mov	ecx, DWORD PTR __Right$[ebp]
	mov	edx, DWORD PTR [eax]
	cmp	edx, DWORD PTR [ecx]
	jne	SHORT $LN4@operator
	jmp	SHORT $LN3@operator
$LN4@operator:

; 126  : 			;
; 127  : 		else if (_Right._Myproxy != 0)

	mov	eax, DWORD PTR __Right$[ebp]
	cmp	DWORD PTR [eax], 0
	je	SHORT $LN3@operator

; 128  : 			_Adopt(_Right._Myproxy->_Mycont);

	mov	ecx, DWORD PTR __Right$[ebp]
	mov	edx, DWORD PTR [ecx]
	mov	eax, DWORD PTR [edx]
	push	eax
	mov	ecx, DWORD PTR _this$[ebp]
	call	?_Adopt@_Iterator_base12@std@@QAEXPBU_Container_base12@2@@Z ; std::_Iterator_base12::_Adopt
$LN3@operator:

; 129  : 		else
; 130  : 			{	// becoming invalid, disown current parent
; 131  :  #if _ITERATOR_DEBUG_LEVEL == 2
; 132  : 			_Lockit _Lock(_LOCK_DEBUG);
; 133  : 			_Orphan_me();
; 134  :  #endif /* _ITERATOR_DEBUG_LEVEL == 2 */
; 135  : 			}
; 136  : 		return (*this);

	mov	eax, DWORD PTR _this$[ebp]

; 137  : 		}

	mov	esp, ebp
	pop	ebp
	ret	4
??4_Iterator_base12@std@@QAEAAU01@ABU01@@Z ENDP		; std::_Iterator_base12::operator=
_TEXT	ENDS
; Function compile flags: /Odtp
; File c:\program files (x86)\microsoft visual studio 12.0\vc\include\xutility
;	COMDAT ??0_Iterator_base12@std@@QAE@ABU01@@Z
_TEXT	SEGMENT
_this$ = -4						; size = 4
__Right$ = 8						; size = 4
??0_Iterator_base12@std@@QAE@ABU01@@Z PROC		; std::_Iterator_base12::_Iterator_base12, COMDAT
; _this$ = ecx

; 119  : 		{	// copy an iterator

	push	ebp
	mov	ebp, esp
	push	ecx
	mov	DWORD PTR _this$[ebp], ecx
	mov	eax, DWORD PTR _this$[ebp]
	mov	DWORD PTR [eax], 0
	mov	ecx, DWORD PTR _this$[ebp]
	mov	DWORD PTR [ecx+4], 0

; 120  : 		*this = _Right;

	mov	edx, DWORD PTR __Right$[ebp]
	push	edx
	mov	ecx, DWORD PTR _this$[ebp]
	call	??4_Iterator_base12@std@@QAEAAU01@ABU01@@Z ; std::_Iterator_base12::operator=

; 121  : 		}

	mov	eax, DWORD PTR _this$[ebp]
	mov	esp, ebp
	pop	ebp
	ret	4
??0_Iterator_base12@std@@QAE@ABU01@@Z ENDP		; std::_Iterator_base12::_Iterator_base12
_TEXT	ENDS
; Function compile flags: /Odtp
; File c:\program files (x86)\microsoft visual studio 12.0\vc\include\xutility
;	COMDAT ??0_Iterator_base12@std@@QAE@XZ
_TEXT	SEGMENT
_this$ = -4						; size = 4
??0_Iterator_base12@std@@QAE@XZ PROC			; std::_Iterator_base12::_Iterator_base12, COMDAT
; _this$ = ecx

; 114  : 		{	// construct orphaned iterator

	push	ebp
	mov	ebp, esp
	push	ecx
	mov	DWORD PTR _this$[ebp], ecx
	mov	eax, DWORD PTR _this$[ebp]
	mov	DWORD PTR [eax], 0
	mov	ecx, DWORD PTR _this$[ebp]
	mov	DWORD PTR [ecx+4], 0

; 115  : 		}

	mov	eax, DWORD PTR _this$[ebp]
	mov	esp, ebp
	pop	ebp
	ret	0
??0_Iterator_base12@std@@QAE@XZ ENDP			; std::_Iterator_base12::_Iterator_base12
_TEXT	ENDS
; Function compile flags: /Odtp
; File c:\program files (x86)\microsoft visual studio 12.0\vc\include\xutility
;	COMDAT ??0_Container_proxy@std@@QAE@XZ
_TEXT	SEGMENT
_this$ = -4						; size = 4
??0_Container_proxy@std@@QAE@XZ PROC			; std::_Container_proxy::_Container_proxy, COMDAT
; _this$ = ecx

; 68   : 		{	// construct from pointers

	push	ebp
	mov	ebp, esp
	push	ecx
	mov	DWORD PTR _this$[ebp], ecx
	mov	eax, DWORD PTR _this$[ebp]
	mov	DWORD PTR [eax], 0
	mov	ecx, DWORD PTR _this$[ebp]
	mov	DWORD PTR [ecx+4], 0

; 69   : 		}

	mov	eax, DWORD PTR _this$[ebp]
	mov	esp, ebp
	pop	ebp
	ret	0
??0_Container_proxy@std@@QAE@XZ ENDP			; std::_Container_proxy::_Container_proxy
_TEXT	ENDS
; Function compile flags: /Odtp
; File c:\program files (x86)\microsoft visual studio 12.0\vc\include\utility
;	COMDAT ??__Epiecewise_construct@std@@YAXXZ
text$di	SEGMENT
$T1 = -1						; size = 1
??__Epiecewise_construct@std@@YAXXZ PROC		; std::`dynamic initializer for 'piecewise_construct'', COMDAT

; 70   : 	piecewise_construct_t();

	push	ebp
	mov	ebp, esp
	push	ecx
	xor	eax, eax
	mov	BYTE PTR $T1[ebp], al
	mov	esp, ebp
	pop	ebp
	ret	0
??__Epiecewise_construct@std@@YAXXZ ENDP		; std::`dynamic initializer for 'piecewise_construct''
text$di	ENDS
; Function compile flags: /Odtp
; File c:\program files (x86)\microsoft visual studio 12.0\vc\include\iosfwd
;	COMDAT ?eof@?$char_traits@D@std@@SAHXZ
_TEXT	SEGMENT
?eof@?$char_traits@D@std@@SAHXZ PROC			; std::char_traits<char>::eof, COMDAT

; 604  : 		{	// return end-of-file metacharacter

	push	ebp
	mov	ebp, esp

; 605  : 		return (EOF);

	or	eax, -1

; 606  : 		}

	pop	ebp
	ret	0
?eof@?$char_traits@D@std@@SAHXZ ENDP			; std::char_traits<char>::eof
_TEXT	ENDS
; Function compile flags: /Odtp
; File c:\program files (x86)\microsoft visual studio 12.0\vc\include\iosfwd
;	COMDAT ?eq_int_type@?$char_traits@D@std@@SA_NABH0@Z
_TEXT	SEGMENT
tv65 = -4						; size = 4
__Left$ = 8						; size = 4
__Right$ = 12						; size = 4
?eq_int_type@?$char_traits@D@std@@SA_NABH0@Z PROC	; std::char_traits<char>::eq_int_type, COMDAT

; 593  : 		{	// test for metacharacter equality

	push	ebp
	mov	ebp, esp
	push	ecx

; 594  : 		return (_Left == _Right);

	mov	eax, DWORD PTR __Left$[ebp]
	mov	ecx, DWORD PTR __Right$[ebp]
	mov	edx, DWORD PTR [eax]
	cmp	edx, DWORD PTR [ecx]
	jne	SHORT $LN3@eq_int_typ
	mov	DWORD PTR tv65[ebp], 1
	jmp	SHORT $LN4@eq_int_typ
$LN3@eq_int_typ:
	mov	DWORD PTR tv65[ebp], 0
$LN4@eq_int_typ:
	mov	al, BYTE PTR tv65[ebp]

; 595  : 		}

	mov	esp, ebp
	pop	ebp
	ret	0
?eq_int_type@?$char_traits@D@std@@SA_NABH0@Z ENDP	; std::char_traits<char>::eq_int_type
_TEXT	ENDS
; Function compile flags: /Odtp
; File c:\program files (x86)\microsoft visual studio 12.0\vc\include\iosfwd
;	COMDAT ?to_int_type@?$char_traits@D@std@@SAHABD@Z
_TEXT	SEGMENT
__Ch$ = 8						; size = 4
?to_int_type@?$char_traits@D@std@@SAHABD@Z PROC		; std::char_traits<char>::to_int_type, COMDAT

; 587  : 		{	// convert character to metacharacter

	push	ebp
	mov	ebp, esp

; 588  : 		return ((unsigned char)_Ch);

	mov	eax, DWORD PTR __Ch$[ebp]
	movzx	eax, BYTE PTR [eax]

; 589  : 		}

	pop	ebp
	ret	0
?to_int_type@?$char_traits@D@std@@SAHABD@Z ENDP		; std::char_traits<char>::to_int_type
_TEXT	ENDS
; Function compile flags: /Odtp
; File c:\program files (x86)\microsoft visual studio 12.0\vc\include\iosfwd
;	COMDAT ?to_char_type@?$char_traits@D@std@@SADABH@Z
_TEXT	SEGMENT
__Meta$ = 8						; size = 4
?to_char_type@?$char_traits@D@std@@SADABH@Z PROC	; std::char_traits<char>::to_char_type, COMDAT

; 581  : 		{	// convert metacharacter to character

	push	ebp
	mov	ebp, esp

; 582  : 		return ((_Elem)_Meta);

	mov	eax, DWORD PTR __Meta$[ebp]
	mov	al, BYTE PTR [eax]

; 583  : 		}

	pop	ebp
	ret	0
?to_char_type@?$char_traits@D@std@@SADABH@Z ENDP	; std::char_traits<char>::to_char_type
_TEXT	ENDS
; Function compile flags: /Odtp
; File c:\program files (x86)\microsoft visual studio 12.0\vc\include\iosfwd
;	COMDAT ?assign@?$char_traits@D@std@@SAXAADABD@Z
_TEXT	SEGMENT
__Left$ = 8						; size = 4
__Right$ = 12						; size = 4
?assign@?$char_traits@D@std@@SAXAADABD@Z PROC		; std::char_traits<char>::assign, COMDAT

; 563  : 		{	// assign an element

	push	ebp
	mov	ebp, esp

; 564  : 		_Left = _Right;

	mov	eax, DWORD PTR __Left$[ebp]
	mov	ecx, DWORD PTR __Right$[ebp]
	mov	dl, BYTE PTR [ecx]
	mov	BYTE PTR [eax], dl

; 565  : 		}

	pop	ebp
	ret	0
?assign@?$char_traits@D@std@@SAXAADABD@Z ENDP		; std::char_traits<char>::assign
_TEXT	ENDS
; Function compile flags: /Odtp
; File c:\program files (x86)\microsoft visual studio 12.0\vc\include\iosfwd
;	COMDAT ?assign@?$char_traits@D@std@@SAPADPADID@Z
_TEXT	SEGMENT
__First$ = 8						; size = 4
__Count$ = 12						; size = 4
__Ch$ = 16						; size = 1
?assign@?$char_traits@D@std@@SAPADPADID@Z PROC		; std::char_traits<char>::assign, COMDAT

; 558  : 		{	// assign _Count * _Ch to [_First, ...)

	push	ebp
	mov	ebp, esp

; 559  : 		return ((_Elem *)_CSTD memset(_First, _Ch, _Count));

	mov	eax, DWORD PTR __Count$[ebp]
	push	eax
	movsx	ecx, BYTE PTR __Ch$[ebp]
	push	ecx
	mov	edx, DWORD PTR __First$[ebp]
	push	edx
	call	_memset
	add	esp, 12					; 0000000cH

; 560  : 		}

	pop	ebp
	ret	0
?assign@?$char_traits@D@std@@SAPADPADID@Z ENDP		; std::char_traits<char>::assign
_TEXT	ENDS
; Function compile flags: /Odtp
; File c:\program files (x86)\microsoft visual studio 12.0\vc\include\iosfwd
;	COMDAT ?move@?$char_traits@D@std@@SAPADPADPBDI@Z
_TEXT	SEGMENT
tv69 = -4						; size = 4
__First1$ = 8						; size = 4
__First2$ = 12						; size = 4
__Count$ = 16						; size = 4
?move@?$char_traits@D@std@@SAPADPADPBDI@Z PROC		; std::char_traits<char>::move, COMDAT

; 551  : 		{	// copy [_First2, _First2 + _Count) to [_First1, ...)

	push	ebp
	mov	ebp, esp
	push	ecx

; 552  : 		return (_Count == 0 ? _First1
; 553  : 			: (_Elem *)_CSTD memmove(_First1, _First2, _Count));

	cmp	DWORD PTR __Count$[ebp], 0
	jne	SHORT $LN3@move
	mov	eax, DWORD PTR __First1$[ebp]
	mov	DWORD PTR tv69[ebp], eax
	jmp	SHORT $LN4@move
$LN3@move:
	mov	ecx, DWORD PTR __Count$[ebp]
	push	ecx
	mov	edx, DWORD PTR __First2$[ebp]
	push	edx
	mov	eax, DWORD PTR __First1$[ebp]
	push	eax
	call	DWORD PTR __imp__memmove
	add	esp, 12					; 0000000cH
	mov	DWORD PTR tv69[ebp], eax
$LN4@move:
	mov	eax, DWORD PTR tv69[ebp]

; 554  : 		}

	mov	esp, ebp
	pop	ebp
	ret	0
?move@?$char_traits@D@std@@SAPADPADPBDI@Z ENDP		; std::char_traits<char>::move
_TEXT	ENDS
; Function compile flags: /Odtp
; File c:\program files (x86)\microsoft visual studio 12.0\vc\include\iosfwd
;	COMDAT ?copy@?$char_traits@D@std@@SAPADPADPBDI@Z
_TEXT	SEGMENT
tv69 = -4						; size = 4
__First1$ = 8						; size = 4
__First2$ = 12						; size = 4
__Count$ = 16						; size = 4
?copy@?$char_traits@D@std@@SAPADPADPBDI@Z PROC		; std::char_traits<char>::copy, COMDAT

; 528  : 		{	// copy [_First2, _First2 + _Count) to [_First1, ...)

	push	ebp
	mov	ebp, esp
	push	ecx

; 529  : 		return (_Count == 0 ? _First1
; 530  : 			: (_Elem *)_CSTD memcpy(_First1, _First2, _Count));

	cmp	DWORD PTR __Count$[ebp], 0
	jne	SHORT $LN3@copy
	mov	eax, DWORD PTR __First1$[ebp]
	mov	DWORD PTR tv69[ebp], eax
	jmp	SHORT $LN4@copy
$LN3@copy:
	mov	ecx, DWORD PTR __Count$[ebp]
	push	ecx
	mov	edx, DWORD PTR __First2$[ebp]
	push	edx
	mov	eax, DWORD PTR __First1$[ebp]
	push	eax
	call	_memcpy
	add	esp, 12					; 0000000cH
	mov	DWORD PTR tv69[ebp], eax
$LN4@copy:
	mov	eax, DWORD PTR tv69[ebp]

; 531  : 		}

	mov	esp, ebp
	pop	ebp
	ret	0
?copy@?$char_traits@D@std@@SAPADPADPBDI@Z ENDP		; std::char_traits<char>::copy
_TEXT	ENDS
; Function compile flags: /Odtp
; File c:\program files (x86)\microsoft visual studio 12.0\vc\include\iosfwd
;	COMDAT ?length@?$char_traits@D@std@@SAIPBD@Z
_TEXT	SEGMENT
tv68 = -20						; size = 4
tv75 = -16						; size = 4
tv69 = -12						; size = 4
tv72 = -8						; size = 4
tv78 = -1						; size = 1
__First$ = 8						; size = 4
?length@?$char_traits@D@std@@SAIPBD@Z PROC		; std::char_traits<char>::length, COMDAT

; 521  : 		{	// find length of null-terminated string

	push	ebp
	mov	ebp, esp
	sub	esp, 20					; 00000014H

; 522  : 		return (*_First == 0 ? 0
; 523  : 			: _CSTD strlen(_First));

	mov	eax, DWORD PTR __First$[ebp]
	movsx	ecx, BYTE PTR [eax]
	test	ecx, ecx
	jne	SHORT $LN3@length
	mov	DWORD PTR tv69[ebp], 0
	jmp	SHORT $LN4@length
$LN3@length:
	mov	edx, DWORD PTR __First$[ebp]
	mov	DWORD PTR tv72[ebp], edx
	mov	eax, DWORD PTR tv72[ebp]
	add	eax, 1
	mov	DWORD PTR tv75[ebp], eax
$LL5@length:
	mov	ecx, DWORD PTR tv72[ebp]
	mov	dl, BYTE PTR [ecx]
	mov	BYTE PTR tv78[ebp], dl
	add	DWORD PTR tv72[ebp], 1
	cmp	BYTE PTR tv78[ebp], 0
	jne	SHORT $LL5@length
	mov	eax, DWORD PTR tv72[ebp]
	sub	eax, DWORD PTR tv75[ebp]
	mov	DWORD PTR tv68[ebp], eax
	mov	ecx, DWORD PTR tv68[ebp]
	mov	DWORD PTR tv69[ebp], ecx
$LN4@length:
	mov	eax, DWORD PTR tv69[ebp]

; 524  : 		}

	mov	esp, ebp
	pop	ebp
	ret	0
?length@?$char_traits@D@std@@SAIPBD@Z ENDP		; std::char_traits<char>::length
_TEXT	ENDS
; Function compile flags: /Odtp
; File c:\program files (x86)\microsoft visual studio 12.0\vc\include\new
;	COMDAT ??3@YAXPAX0@Z
_TEXT	SEGMENT
___formal$ = 8						; size = 4
___formal$ = 12						; size = 4
??3@YAXPAX0@Z PROC					; operator delete, COMDAT

; 64   : 	{	// delete if placement new fails

	push	ebp
	mov	ebp, esp

; 65   : 	}

	pop	ebp
	ret	0
??3@YAXPAX0@Z ENDP					; operator delete
_TEXT	ENDS
; Function compile flags: /Odtp
; File c:\program files (x86)\microsoft visual studio 12.0\vc\include\new
;	COMDAT ??2@YAPAXIPAX@Z
_TEXT	SEGMENT
___formal$ = 8						; size = 4
__Where$ = 12						; size = 4
??2@YAPAXIPAX@Z PROC					; operator new, COMDAT

; 59   : 	{	// construct array with placement at _Where

	push	ebp
	mov	ebp, esp

; 60   : 	return (_Where);

	mov	eax, DWORD PTR __Where$[ebp]

; 61   : 	}

	pop	ebp
	ret	0
??2@YAPAXIPAX@Z ENDP					; operator new
_TEXT	ENDS
; Function compile flags: /Odtp
; File c:\program files (x86)\microsoft visual studio 12.0\vc\include\math.h
;	COMDAT _hypot
_TEXT	SEGMENT
__X$ = 8						; size = 8
__Y$ = 16						; size = 8
_hypot	PROC						; COMDAT

; 556  : {

	push	ebp
	mov	ebp, esp

; 557  :     return _hypot(_X, _Y);

	sub	esp, 8
	movsd	xmm0, QWORD PTR __Y$[ebp]
	movsd	QWORD PTR [esp], xmm0
	sub	esp, 8
	movsd	xmm0, QWORD PTR __X$[ebp]
	movsd	QWORD PTR [esp], xmm0
	call	DWORD PTR __imp___hypot
	add	esp, 16					; 00000010H

; 558  : }

	pop	ebp
	ret	0
_hypot	ENDP
_TEXT	ENDS
; Function compile flags: /Odtp
; File h:\source\hg\client\code_core\jsoncpp-src-0.5.0\src\lib_json\json_reader.cpp
;	COMDAT ??0Features@Json@@QAE@XZ
_TEXT	SEGMENT
_this$ = -4						; size = 4
??0Features@Json@@QAE@XZ PROC				; Json::Features::Features, COMDAT
; _this$ = ecx

; 22   : {

	push	ebp
	mov	ebp, esp
	push	ecx
	mov	DWORD PTR _this$[ebp], ecx
	mov	eax, DWORD PTR _this$[ebp]
	mov	BYTE PTR [eax], 1
	mov	ecx, DWORD PTR _this$[ebp]
	mov	BYTE PTR [ecx+1], 0

; 23   : }

	mov	eax, DWORD PTR _this$[ebp]
	mov	esp, ebp
	pop	ebp
	ret	0
??0Features@Json@@QAE@XZ ENDP				; Json::Features::Features
_TEXT	ENDS
; Function compile flags: /Odtp
; File h:\source\hg\client\code_core\jsoncpp-src-0.5.0\src\lib_json\json_reader.cpp
;	COMDAT ?strictMode@Features@Json@@SA?AV12@XZ
_TEXT	SEGMENT
_features$ = -4						; size = 2
___$ReturnUdt$ = 8					; size = 4
?strictMode@Features@Json@@SA?AV12@XZ PROC		; Json::Features::strictMode, COMDAT

; 35   : {

	push	ebp
	mov	ebp, esp
	push	ecx

; 36   :    Features features;

	lea	ecx, DWORD PTR _features$[ebp]
	call	??0Features@Json@@QAE@XZ		; Json::Features::Features

; 37   :    features.allowComments_ = false;

	mov	BYTE PTR _features$[ebp], 0

; 38   :    features.strictRoot_ = true;

	mov	BYTE PTR _features$[ebp+1], 1

; 39   :    return features;

	mov	eax, DWORD PTR ___$ReturnUdt$[ebp]
	mov	cx, WORD PTR _features$[ebp]
	mov	WORD PTR [eax], cx
	mov	eax, DWORD PTR ___$ReturnUdt$[ebp]

; 40   : }

	mov	esp, ebp
	pop	ebp
	ret	0
?strictMode@Features@Json@@SA?AV12@XZ ENDP		; Json::Features::strictMode
_TEXT	ENDS
; Function compile flags: /Odtp
; File h:\source\hg\client\code_core\jsoncpp-src-0.5.0\src\lib_json\json_reader.cpp
;	COMDAT ?all@Features@Json@@SA?AV12@XZ
_TEXT	SEGMENT
___$ReturnUdt$ = 8					; size = 4
?all@Features@Json@@SA?AV12@XZ PROC			; Json::Features::all, COMDAT

; 28   : {

	push	ebp
	mov	ebp, esp

; 29   :    return Features();

	mov	ecx, DWORD PTR ___$ReturnUdt$[ebp]
	call	??0Features@Json@@QAE@XZ		; Json::Features::Features
	mov	eax, DWORD PTR ___$ReturnUdt$[ebp]

; 30   : }

	pop	ebp
	ret	0
?all@Features@Json@@SA?AV12@XZ ENDP			; Json::Features::all
_TEXT	ENDS
END
