; Listing generated by Microsoft (R) Optimizing Compiler Version 18.00.40629.0 

	TITLE	H:\Source\HG\Client\Code_Core\jsoncpp-src-0.5.0\src\lib_json\json_value.cpp
	.686P
	.XMM
	include listing.inc
	.model	flat

INCLUDELIB MSVCRT

PUBLIC	?digits@?$numeric_limits@_K@std@@2HB		; std::numeric_limits<unsigned __int64>::digits
PUBLIC	?digits10@?$numeric_limits@_K@std@@2HB		; std::numeric_limits<unsigned __int64>::digits10
PUBLIC	?digits@?$numeric_limits@M@std@@2HB		; std::numeric_limits<float>::digits
PUBLIC	?digits10@?$numeric_limits@M@std@@2HB		; std::numeric_limits<float>::digits10
PUBLIC	?max_digits10@?$numeric_limits@M@std@@2HB	; std::numeric_limits<float>::max_digits10
PUBLIC	?max_exponent@?$numeric_limits@M@std@@2HB	; std::numeric_limits<float>::max_exponent
PUBLIC	?max_exponent10@?$numeric_limits@M@std@@2HB	; std::numeric_limits<float>::max_exponent10
PUBLIC	?min_exponent@?$numeric_limits@M@std@@2HB	; std::numeric_limits<float>::min_exponent
PUBLIC	?min_exponent10@?$numeric_limits@M@std@@2HB	; std::numeric_limits<float>::min_exponent10
PUBLIC	?digits@?$numeric_limits@N@std@@2HB		; std::numeric_limits<double>::digits
PUBLIC	?digits10@?$numeric_limits@N@std@@2HB		; std::numeric_limits<double>::digits10
PUBLIC	?max_digits10@?$numeric_limits@N@std@@2HB	; std::numeric_limits<double>::max_digits10
PUBLIC	?max_exponent@?$numeric_limits@N@std@@2HB	; std::numeric_limits<double>::max_exponent
PUBLIC	?max_exponent10@?$numeric_limits@N@std@@2HB	; std::numeric_limits<double>::max_exponent10
PUBLIC	?min_exponent@?$numeric_limits@N@std@@2HB	; std::numeric_limits<double>::min_exponent
PUBLIC	?min_exponent10@?$numeric_limits@N@std@@2HB	; std::numeric_limits<double>::min_exponent10
PUBLIC	?digits@?$numeric_limits@O@std@@2HB		; std::numeric_limits<long double>::digits
PUBLIC	?minInt@Value@Json@@2HB				; Json::Value::minInt
PUBLIC	?digits10@?$numeric_limits@O@std@@2HB		; std::numeric_limits<long double>::digits10
PUBLIC	?maxInt@Value@Json@@2HB				; Json::Value::maxInt
PUBLIC	?max_digits10@?$numeric_limits@O@std@@2HB	; std::numeric_limits<long double>::max_digits10
PUBLIC	?maxUInt@Value@Json@@2IB			; Json::Value::maxUInt
PUBLIC	?max_exponent@?$numeric_limits@O@std@@2HB	; std::numeric_limits<long double>::max_exponent
PUBLIC	?max_exponent10@?$numeric_limits@O@std@@2HB	; std::numeric_limits<long double>::max_exponent10
PUBLIC	?min_exponent@?$numeric_limits@O@std@@2HB	; std::numeric_limits<long double>::min_exponent
PUBLIC	?min_exponent10@?$numeric_limits@O@std@@2HB	; std::numeric_limits<long double>::min_exponent10
PUBLIC	?has_denorm@_Num_base@std@@2W4float_denorm_style@2@B ; std::_Num_base::has_denorm
PUBLIC	?has_denorm_loss@_Num_base@std@@2_NB		; std::_Num_base::has_denorm_loss
PUBLIC	?has_infinity@_Num_base@std@@2_NB		; std::_Num_base::has_infinity
PUBLIC	?has_quiet_NaN@_Num_base@std@@2_NB		; std::_Num_base::has_quiet_NaN
PUBLIC	?has_signaling_NaN@_Num_base@std@@2_NB		; std::_Num_base::has_signaling_NaN
PUBLIC	?is_bounded@_Num_base@std@@2_NB			; std::_Num_base::is_bounded
PUBLIC	?is_exact@_Num_base@std@@2_NB			; std::_Num_base::is_exact
PUBLIC	?is_iec559@_Num_base@std@@2_NB			; std::_Num_base::is_iec559
PUBLIC	?is_integer@_Num_base@std@@2_NB			; std::_Num_base::is_integer
PUBLIC	?is_modulo@_Num_base@std@@2_NB			; std::_Num_base::is_modulo
PUBLIC	?is_signed@_Num_base@std@@2_NB			; std::_Num_base::is_signed
PUBLIC	?is_specialized@_Num_base@std@@2_NB		; std::_Num_base::is_specialized
PUBLIC	?tinyness_before@_Num_base@std@@2_NB		; std::_Num_base::tinyness_before
PUBLIC	?traps@_Num_base@std@@2_NB			; std::_Num_base::traps
PUBLIC	?round_style@_Num_base@std@@2W4float_round_style@2@B ; std::_Num_base::round_style
PUBLIC	?digits@_Num_base@std@@2HB			; std::_Num_base::digits
PUBLIC	?digits10@_Num_base@std@@2HB			; std::_Num_base::digits10
PUBLIC	?max_digits10@_Num_base@std@@2HB		; std::_Num_base::max_digits10
PUBLIC	?max_exponent@_Num_base@std@@2HB		; std::_Num_base::max_exponent
PUBLIC	?max_exponent10@_Num_base@std@@2HB		; std::_Num_base::max_exponent10
PUBLIC	?min_exponent@_Num_base@std@@2HB		; std::_Num_base::min_exponent
PUBLIC	?min_exponent10@_Num_base@std@@2HB		; std::_Num_base::min_exponent10
PUBLIC	?radix@_Num_base@std@@2HB			; std::_Num_base::radix
PUBLIC	?is_bounded@_Num_int_base@std@@2_NB		; std::_Num_int_base::is_bounded
PUBLIC	?is_exact@_Num_int_base@std@@2_NB		; std::_Num_int_base::is_exact
PUBLIC	?is_integer@_Num_int_base@std@@2_NB		; std::_Num_int_base::is_integer
PUBLIC	?is_modulo@_Num_int_base@std@@2_NB		; std::_Num_int_base::is_modulo
PUBLIC	?is_specialized@_Num_int_base@std@@2_NB		; std::_Num_int_base::is_specialized
PUBLIC	?radix@_Num_int_base@std@@2HB			; std::_Num_int_base::radix
PUBLIC	?has_denorm@_Num_float_base@std@@2W4float_denorm_style@2@B ; std::_Num_float_base::has_denorm
PUBLIC	?has_denorm_loss@_Num_float_base@std@@2_NB	; std::_Num_float_base::has_denorm_loss
PUBLIC	?has_infinity@_Num_float_base@std@@2_NB		; std::_Num_float_base::has_infinity
PUBLIC	?has_quiet_NaN@_Num_float_base@std@@2_NB	; std::_Num_float_base::has_quiet_NaN
PUBLIC	?has_signaling_NaN@_Num_float_base@std@@2_NB	; std::_Num_float_base::has_signaling_NaN
PUBLIC	?is_bounded@_Num_float_base@std@@2_NB		; std::_Num_float_base::is_bounded
PUBLIC	?is_exact@_Num_float_base@std@@2_NB		; std::_Num_float_base::is_exact
PUBLIC	?is_iec559@_Num_float_base@std@@2_NB		; std::_Num_float_base::is_iec559
PUBLIC	?is_integer@_Num_float_base@std@@2_NB		; std::_Num_float_base::is_integer
PUBLIC	?is_modulo@_Num_float_base@std@@2_NB		; std::_Num_float_base::is_modulo
PUBLIC	?is_signed@_Num_float_base@std@@2_NB		; std::_Num_float_base::is_signed
PUBLIC	?is_specialized@_Num_float_base@std@@2_NB	; std::_Num_float_base::is_specialized
PUBLIC	?tinyness_before@_Num_float_base@std@@2_NB	; std::_Num_float_base::tinyness_before
PUBLIC	?traps@_Num_float_base@std@@2_NB		; std::_Num_float_base::traps
PUBLIC	?round_style@_Num_float_base@std@@2W4float_round_style@2@B ; std::_Num_float_base::round_style
PUBLIC	?radix@_Num_float_base@std@@2HB			; std::_Num_float_base::radix
PUBLIC	?is_signed@?$numeric_limits@D@std@@2_NB		; std::numeric_limits<char>::is_signed
PUBLIC	?digits@?$numeric_limits@D@std@@2HB		; std::numeric_limits<char>::digits
PUBLIC	?digits10@?$numeric_limits@D@std@@2HB		; std::numeric_limits<char>::digits10
PUBLIC	?is_signed@?$numeric_limits@_W@std@@2_NB	; std::numeric_limits<wchar_t>::is_signed
PUBLIC	?digits@?$numeric_limits@_W@std@@2HB		; std::numeric_limits<wchar_t>::digits
PUBLIC	?digits10@?$numeric_limits@_W@std@@2HB		; std::numeric_limits<wchar_t>::digits10
PUBLIC	?is_modulo@?$numeric_limits@_N@std@@2_NB	; std::numeric_limits<bool>::is_modulo
PUBLIC	?is_signed@?$numeric_limits@_N@std@@2_NB	; std::numeric_limits<bool>::is_signed
PUBLIC	?digits@?$numeric_limits@_N@std@@2HB		; std::numeric_limits<bool>::digits
PUBLIC	?digits10@?$numeric_limits@_N@std@@2HB		; std::numeric_limits<bool>::digits10
PUBLIC	?is_signed@?$numeric_limits@C@std@@2_NB		; std::numeric_limits<signed char>::is_signed
PUBLIC	?digits@?$numeric_limits@C@std@@2HB		; std::numeric_limits<signed char>::digits
PUBLIC	?digits10@?$numeric_limits@C@std@@2HB		; std::numeric_limits<signed char>::digits10
PUBLIC	?is_signed@?$numeric_limits@E@std@@2_NB		; std::numeric_limits<unsigned char>::is_signed
PUBLIC	?digits@?$numeric_limits@E@std@@2HB		; std::numeric_limits<unsigned char>::digits
PUBLIC	?digits10@?$numeric_limits@E@std@@2HB		; std::numeric_limits<unsigned char>::digits10
PUBLIC	?is_signed@?$numeric_limits@F@std@@2_NB		; std::numeric_limits<short>::is_signed
PUBLIC	?digits@?$numeric_limits@F@std@@2HB		; std::numeric_limits<short>::digits
PUBLIC	?digits10@?$numeric_limits@F@std@@2HB		; std::numeric_limits<short>::digits10
PUBLIC	?is_signed@?$numeric_limits@G@std@@2_NB		; std::numeric_limits<unsigned short>::is_signed
PUBLIC	?digits@?$numeric_limits@G@std@@2HB		; std::numeric_limits<unsigned short>::digits
PUBLIC	?digits10@?$numeric_limits@G@std@@2HB		; std::numeric_limits<unsigned short>::digits10
PUBLIC	?is_signed@?$numeric_limits@H@std@@2_NB		; std::numeric_limits<int>::is_signed
PUBLIC	?digits@?$numeric_limits@H@std@@2HB		; std::numeric_limits<int>::digits
PUBLIC	?digits10@?$numeric_limits@H@std@@2HB		; std::numeric_limits<int>::digits10
PUBLIC	?is_signed@?$numeric_limits@I@std@@2_NB		; std::numeric_limits<unsigned int>::is_signed
PUBLIC	?digits@?$numeric_limits@I@std@@2HB		; std::numeric_limits<unsigned int>::digits
PUBLIC	?digits10@?$numeric_limits@I@std@@2HB		; std::numeric_limits<unsigned int>::digits10
PUBLIC	?is_signed@?$numeric_limits@J@std@@2_NB		; std::numeric_limits<long>::is_signed
PUBLIC	?digits@?$numeric_limits@J@std@@2HB		; std::numeric_limits<long>::digits
PUBLIC	?digits10@?$numeric_limits@J@std@@2HB		; std::numeric_limits<long>::digits10
PUBLIC	?is_signed@?$numeric_limits@K@std@@2_NB		; std::numeric_limits<unsigned long>::is_signed
PUBLIC	?digits@?$numeric_limits@K@std@@2HB		; std::numeric_limits<unsigned long>::digits
PUBLIC	?digits10@?$numeric_limits@K@std@@2HB		; std::numeric_limits<unsigned long>::digits10
PUBLIC	?is_signed@?$numeric_limits@_J@std@@2_NB	; std::numeric_limits<__int64>::is_signed
PUBLIC	?digits@?$numeric_limits@_J@std@@2HB		; std::numeric_limits<__int64>::digits
PUBLIC	?digits10@?$numeric_limits@_J@std@@2HB		; std::numeric_limits<__int64>::digits10
PUBLIC	?is_signed@?$numeric_limits@_K@std@@2_NB	; std::numeric_limits<unsigned __int64>::is_signed
;	COMDAT ?is_signed@?$numeric_limits@_K@std@@2_NB
CONST	SEGMENT
?is_signed@?$numeric_limits@_K@std@@2_NB DB 00H		; std::numeric_limits<unsigned __int64>::is_signed
CONST	ENDS
;	COMDAT ?digits10@?$numeric_limits@_J@std@@2HB
CONST	SEGMENT
?digits10@?$numeric_limits@_J@std@@2HB DD 012H		; std::numeric_limits<__int64>::digits10
CONST	ENDS
;	COMDAT ?digits@?$numeric_limits@_J@std@@2HB
CONST	SEGMENT
?digits@?$numeric_limits@_J@std@@2HB DD 03fH		; std::numeric_limits<__int64>::digits
CONST	ENDS
;	COMDAT ?is_signed@?$numeric_limits@_J@std@@2_NB
CONST	SEGMENT
?is_signed@?$numeric_limits@_J@std@@2_NB DB 01H		; std::numeric_limits<__int64>::is_signed
CONST	ENDS
;	COMDAT ?digits10@?$numeric_limits@K@std@@2HB
CONST	SEGMENT
?digits10@?$numeric_limits@K@std@@2HB DD 09H		; std::numeric_limits<unsigned long>::digits10
CONST	ENDS
;	COMDAT ?digits@?$numeric_limits@K@std@@2HB
CONST	SEGMENT
?digits@?$numeric_limits@K@std@@2HB DD 020H		; std::numeric_limits<unsigned long>::digits
CONST	ENDS
;	COMDAT ?is_signed@?$numeric_limits@K@std@@2_NB
CONST	SEGMENT
?is_signed@?$numeric_limits@K@std@@2_NB DB 00H		; std::numeric_limits<unsigned long>::is_signed
CONST	ENDS
;	COMDAT ?digits10@?$numeric_limits@J@std@@2HB
CONST	SEGMENT
?digits10@?$numeric_limits@J@std@@2HB DD 09H		; std::numeric_limits<long>::digits10
CONST	ENDS
;	COMDAT ?digits@?$numeric_limits@J@std@@2HB
CONST	SEGMENT
?digits@?$numeric_limits@J@std@@2HB DD 01fH		; std::numeric_limits<long>::digits
CONST	ENDS
;	COMDAT ?is_signed@?$numeric_limits@J@std@@2_NB
CONST	SEGMENT
?is_signed@?$numeric_limits@J@std@@2_NB DB 01H		; std::numeric_limits<long>::is_signed
CONST	ENDS
;	COMDAT ?digits10@?$numeric_limits@I@std@@2HB
CONST	SEGMENT
?digits10@?$numeric_limits@I@std@@2HB DD 09H		; std::numeric_limits<unsigned int>::digits10
CONST	ENDS
;	COMDAT ?digits@?$numeric_limits@I@std@@2HB
CONST	SEGMENT
?digits@?$numeric_limits@I@std@@2HB DD 020H		; std::numeric_limits<unsigned int>::digits
CONST	ENDS
;	COMDAT ?is_signed@?$numeric_limits@I@std@@2_NB
CONST	SEGMENT
?is_signed@?$numeric_limits@I@std@@2_NB DB 00H		; std::numeric_limits<unsigned int>::is_signed
CONST	ENDS
;	COMDAT ?digits10@?$numeric_limits@H@std@@2HB
CONST	SEGMENT
?digits10@?$numeric_limits@H@std@@2HB DD 09H		; std::numeric_limits<int>::digits10
CONST	ENDS
;	COMDAT ?digits@?$numeric_limits@H@std@@2HB
CONST	SEGMENT
?digits@?$numeric_limits@H@std@@2HB DD 01fH		; std::numeric_limits<int>::digits
CONST	ENDS
;	COMDAT ?is_signed@?$numeric_limits@H@std@@2_NB
CONST	SEGMENT
?is_signed@?$numeric_limits@H@std@@2_NB DB 01H		; std::numeric_limits<int>::is_signed
CONST	ENDS
;	COMDAT ?digits10@?$numeric_limits@G@std@@2HB
CONST	SEGMENT
?digits10@?$numeric_limits@G@std@@2HB DD 04H		; std::numeric_limits<unsigned short>::digits10
CONST	ENDS
;	COMDAT ?digits@?$numeric_limits@G@std@@2HB
CONST	SEGMENT
?digits@?$numeric_limits@G@std@@2HB DD 010H		; std::numeric_limits<unsigned short>::digits
CONST	ENDS
;	COMDAT ?is_signed@?$numeric_limits@G@std@@2_NB
CONST	SEGMENT
?is_signed@?$numeric_limits@G@std@@2_NB DB 00H		; std::numeric_limits<unsigned short>::is_signed
CONST	ENDS
;	COMDAT ?digits10@?$numeric_limits@F@std@@2HB
CONST	SEGMENT
?digits10@?$numeric_limits@F@std@@2HB DD 04H		; std::numeric_limits<short>::digits10
CONST	ENDS
;	COMDAT ?digits@?$numeric_limits@F@std@@2HB
CONST	SEGMENT
?digits@?$numeric_limits@F@std@@2HB DD 0fH		; std::numeric_limits<short>::digits
CONST	ENDS
;	COMDAT ?is_signed@?$numeric_limits@F@std@@2_NB
CONST	SEGMENT
?is_signed@?$numeric_limits@F@std@@2_NB DB 01H		; std::numeric_limits<short>::is_signed
CONST	ENDS
;	COMDAT ?digits10@?$numeric_limits@E@std@@2HB
CONST	SEGMENT
?digits10@?$numeric_limits@E@std@@2HB DD 02H		; std::numeric_limits<unsigned char>::digits10
CONST	ENDS
;	COMDAT ?digits@?$numeric_limits@E@std@@2HB
CONST	SEGMENT
?digits@?$numeric_limits@E@std@@2HB DD 08H		; std::numeric_limits<unsigned char>::digits
CONST	ENDS
;	COMDAT ?is_signed@?$numeric_limits@E@std@@2_NB
CONST	SEGMENT
?is_signed@?$numeric_limits@E@std@@2_NB DB 00H		; std::numeric_limits<unsigned char>::is_signed
CONST	ENDS
;	COMDAT ?digits10@?$numeric_limits@C@std@@2HB
CONST	SEGMENT
?digits10@?$numeric_limits@C@std@@2HB DD 02H		; std::numeric_limits<signed char>::digits10
CONST	ENDS
;	COMDAT ?digits@?$numeric_limits@C@std@@2HB
CONST	SEGMENT
?digits@?$numeric_limits@C@std@@2HB DD 07H		; std::numeric_limits<signed char>::digits
CONST	ENDS
;	COMDAT ?is_signed@?$numeric_limits@C@std@@2_NB
CONST	SEGMENT
?is_signed@?$numeric_limits@C@std@@2_NB DB 01H		; std::numeric_limits<signed char>::is_signed
CONST	ENDS
;	COMDAT ?digits10@?$numeric_limits@_N@std@@2HB
CONST	SEGMENT
?digits10@?$numeric_limits@_N@std@@2HB DD 00H		; std::numeric_limits<bool>::digits10
CONST	ENDS
;	COMDAT ?digits@?$numeric_limits@_N@std@@2HB
CONST	SEGMENT
?digits@?$numeric_limits@_N@std@@2HB DD 01H		; std::numeric_limits<bool>::digits
CONST	ENDS
;	COMDAT ?is_signed@?$numeric_limits@_N@std@@2_NB
CONST	SEGMENT
?is_signed@?$numeric_limits@_N@std@@2_NB DB 00H		; std::numeric_limits<bool>::is_signed
CONST	ENDS
;	COMDAT ?is_modulo@?$numeric_limits@_N@std@@2_NB
CONST	SEGMENT
?is_modulo@?$numeric_limits@_N@std@@2_NB DB 00H		; std::numeric_limits<bool>::is_modulo
CONST	ENDS
;	COMDAT ?digits10@?$numeric_limits@_W@std@@2HB
CONST	SEGMENT
?digits10@?$numeric_limits@_W@std@@2HB DD 04H		; std::numeric_limits<wchar_t>::digits10
CONST	ENDS
;	COMDAT ?digits@?$numeric_limits@_W@std@@2HB
CONST	SEGMENT
?digits@?$numeric_limits@_W@std@@2HB DD 010H		; std::numeric_limits<wchar_t>::digits
CONST	ENDS
;	COMDAT ?is_signed@?$numeric_limits@_W@std@@2_NB
CONST	SEGMENT
?is_signed@?$numeric_limits@_W@std@@2_NB DB 00H		; std::numeric_limits<wchar_t>::is_signed
CONST	ENDS
;	COMDAT ?digits10@?$numeric_limits@D@std@@2HB
CONST	SEGMENT
?digits10@?$numeric_limits@D@std@@2HB DD 02H		; std::numeric_limits<char>::digits10
CONST	ENDS
;	COMDAT ?digits@?$numeric_limits@D@std@@2HB
CONST	SEGMENT
?digits@?$numeric_limits@D@std@@2HB DD 07H		; std::numeric_limits<char>::digits
CONST	ENDS
;	COMDAT ?is_signed@?$numeric_limits@D@std@@2_NB
CONST	SEGMENT
?is_signed@?$numeric_limits@D@std@@2_NB DB 01H		; std::numeric_limits<char>::is_signed
CONST	ENDS
;	COMDAT ?radix@_Num_float_base@std@@2HB
CONST	SEGMENT
?radix@_Num_float_base@std@@2HB DD 02H			; std::_Num_float_base::radix
CONST	ENDS
;	COMDAT ?round_style@_Num_float_base@std@@2W4float_round_style@2@B
CONST	SEGMENT
?round_style@_Num_float_base@std@@2W4float_round_style@2@B DD 01H ; std::_Num_float_base::round_style
CONST	ENDS
;	COMDAT ?traps@_Num_float_base@std@@2_NB
CONST	SEGMENT
?traps@_Num_float_base@std@@2_NB DB 00H			; std::_Num_float_base::traps
CONST	ENDS
;	COMDAT ?tinyness_before@_Num_float_base@std@@2_NB
CONST	SEGMENT
?tinyness_before@_Num_float_base@std@@2_NB DB 01H	; std::_Num_float_base::tinyness_before
CONST	ENDS
;	COMDAT ?is_specialized@_Num_float_base@std@@2_NB
CONST	SEGMENT
?is_specialized@_Num_float_base@std@@2_NB DB 01H	; std::_Num_float_base::is_specialized
CONST	ENDS
;	COMDAT ?is_signed@_Num_float_base@std@@2_NB
CONST	SEGMENT
?is_signed@_Num_float_base@std@@2_NB DB 01H		; std::_Num_float_base::is_signed
CONST	ENDS
;	COMDAT ?is_modulo@_Num_float_base@std@@2_NB
CONST	SEGMENT
?is_modulo@_Num_float_base@std@@2_NB DB 00H		; std::_Num_float_base::is_modulo
CONST	ENDS
;	COMDAT ?is_integer@_Num_float_base@std@@2_NB
CONST	SEGMENT
?is_integer@_Num_float_base@std@@2_NB DB 00H		; std::_Num_float_base::is_integer
CONST	ENDS
;	COMDAT ?is_iec559@_Num_float_base@std@@2_NB
CONST	SEGMENT
?is_iec559@_Num_float_base@std@@2_NB DB 01H		; std::_Num_float_base::is_iec559
CONST	ENDS
;	COMDAT ?is_exact@_Num_float_base@std@@2_NB
CONST	SEGMENT
?is_exact@_Num_float_base@std@@2_NB DB 00H		; std::_Num_float_base::is_exact
CONST	ENDS
;	COMDAT ?is_bounded@_Num_float_base@std@@2_NB
CONST	SEGMENT
?is_bounded@_Num_float_base@std@@2_NB DB 01H		; std::_Num_float_base::is_bounded
CONST	ENDS
;	COMDAT ?has_signaling_NaN@_Num_float_base@std@@2_NB
CONST	SEGMENT
?has_signaling_NaN@_Num_float_base@std@@2_NB DB 01H	; std::_Num_float_base::has_signaling_NaN
CONST	ENDS
;	COMDAT ?has_quiet_NaN@_Num_float_base@std@@2_NB
CONST	SEGMENT
?has_quiet_NaN@_Num_float_base@std@@2_NB DB 01H		; std::_Num_float_base::has_quiet_NaN
CONST	ENDS
;	COMDAT ?has_infinity@_Num_float_base@std@@2_NB
CONST	SEGMENT
?has_infinity@_Num_float_base@std@@2_NB DB 01H		; std::_Num_float_base::has_infinity
CONST	ENDS
;	COMDAT ?has_denorm_loss@_Num_float_base@std@@2_NB
CONST	SEGMENT
?has_denorm_loss@_Num_float_base@std@@2_NB DB 01H	; std::_Num_float_base::has_denorm_loss
CONST	ENDS
;	COMDAT ?has_denorm@_Num_float_base@std@@2W4float_denorm_style@2@B
CONST	SEGMENT
?has_denorm@_Num_float_base@std@@2W4float_denorm_style@2@B DD 01H ; std::_Num_float_base::has_denorm
CONST	ENDS
;	COMDAT ?radix@_Num_int_base@std@@2HB
CONST	SEGMENT
?radix@_Num_int_base@std@@2HB DD 02H			; std::_Num_int_base::radix
CONST	ENDS
;	COMDAT ?is_specialized@_Num_int_base@std@@2_NB
CONST	SEGMENT
?is_specialized@_Num_int_base@std@@2_NB DB 01H		; std::_Num_int_base::is_specialized
CONST	ENDS
;	COMDAT ?is_modulo@_Num_int_base@std@@2_NB
CONST	SEGMENT
?is_modulo@_Num_int_base@std@@2_NB DB 01H		; std::_Num_int_base::is_modulo
CONST	ENDS
;	COMDAT ?is_integer@_Num_int_base@std@@2_NB
CONST	SEGMENT
?is_integer@_Num_int_base@std@@2_NB DB 01H		; std::_Num_int_base::is_integer
CONST	ENDS
;	COMDAT ?is_exact@_Num_int_base@std@@2_NB
CONST	SEGMENT
?is_exact@_Num_int_base@std@@2_NB DB 01H		; std::_Num_int_base::is_exact
CONST	ENDS
;	COMDAT ?is_bounded@_Num_int_base@std@@2_NB
CONST	SEGMENT
?is_bounded@_Num_int_base@std@@2_NB DB 01H		; std::_Num_int_base::is_bounded
CONST	ENDS
;	COMDAT ?radix@_Num_base@std@@2HB
CONST	SEGMENT
?radix@_Num_base@std@@2HB DD 00H			; std::_Num_base::radix
CONST	ENDS
;	COMDAT ?min_exponent10@_Num_base@std@@2HB
CONST	SEGMENT
?min_exponent10@_Num_base@std@@2HB DD 00H		; std::_Num_base::min_exponent10
CONST	ENDS
;	COMDAT ?min_exponent@_Num_base@std@@2HB
CONST	SEGMENT
?min_exponent@_Num_base@std@@2HB DD 00H			; std::_Num_base::min_exponent
CONST	ENDS
;	COMDAT ?max_exponent10@_Num_base@std@@2HB
CONST	SEGMENT
?max_exponent10@_Num_base@std@@2HB DD 00H		; std::_Num_base::max_exponent10
CONST	ENDS
;	COMDAT ?max_exponent@_Num_base@std@@2HB
CONST	SEGMENT
?max_exponent@_Num_base@std@@2HB DD 00H			; std::_Num_base::max_exponent
CONST	ENDS
;	COMDAT ?max_digits10@_Num_base@std@@2HB
CONST	SEGMENT
?max_digits10@_Num_base@std@@2HB DD 00H			; std::_Num_base::max_digits10
CONST	ENDS
;	COMDAT ?digits10@_Num_base@std@@2HB
CONST	SEGMENT
?digits10@_Num_base@std@@2HB DD 00H			; std::_Num_base::digits10
CONST	ENDS
;	COMDAT ?digits@_Num_base@std@@2HB
CONST	SEGMENT
?digits@_Num_base@std@@2HB DD 00H			; std::_Num_base::digits
CONST	ENDS
;	COMDAT ?round_style@_Num_base@std@@2W4float_round_style@2@B
CONST	SEGMENT
?round_style@_Num_base@std@@2W4float_round_style@2@B DD 00H ; std::_Num_base::round_style
CONST	ENDS
;	COMDAT ?traps@_Num_base@std@@2_NB
CONST	SEGMENT
?traps@_Num_base@std@@2_NB DB 00H			; std::_Num_base::traps
CONST	ENDS
;	COMDAT ?tinyness_before@_Num_base@std@@2_NB
CONST	SEGMENT
?tinyness_before@_Num_base@std@@2_NB DB 00H		; std::_Num_base::tinyness_before
CONST	ENDS
;	COMDAT ?is_specialized@_Num_base@std@@2_NB
CONST	SEGMENT
?is_specialized@_Num_base@std@@2_NB DB 00H		; std::_Num_base::is_specialized
CONST	ENDS
;	COMDAT ?is_signed@_Num_base@std@@2_NB
CONST	SEGMENT
?is_signed@_Num_base@std@@2_NB DB 00H			; std::_Num_base::is_signed
CONST	ENDS
;	COMDAT ?is_modulo@_Num_base@std@@2_NB
CONST	SEGMENT
?is_modulo@_Num_base@std@@2_NB DB 00H			; std::_Num_base::is_modulo
CONST	ENDS
;	COMDAT ?is_integer@_Num_base@std@@2_NB
CONST	SEGMENT
?is_integer@_Num_base@std@@2_NB DB 00H			; std::_Num_base::is_integer
CONST	ENDS
;	COMDAT ?is_iec559@_Num_base@std@@2_NB
CONST	SEGMENT
?is_iec559@_Num_base@std@@2_NB DB 00H			; std::_Num_base::is_iec559
CONST	ENDS
;	COMDAT ?is_exact@_Num_base@std@@2_NB
CONST	SEGMENT
?is_exact@_Num_base@std@@2_NB DB 00H			; std::_Num_base::is_exact
CONST	ENDS
;	COMDAT ?is_bounded@_Num_base@std@@2_NB
CONST	SEGMENT
?is_bounded@_Num_base@std@@2_NB DB 00H			; std::_Num_base::is_bounded
CONST	ENDS
;	COMDAT ?has_signaling_NaN@_Num_base@std@@2_NB
CONST	SEGMENT
?has_signaling_NaN@_Num_base@std@@2_NB DB 00H		; std::_Num_base::has_signaling_NaN
CONST	ENDS
;	COMDAT ?has_quiet_NaN@_Num_base@std@@2_NB
CONST	SEGMENT
?has_quiet_NaN@_Num_base@std@@2_NB DB 00H		; std::_Num_base::has_quiet_NaN
CONST	ENDS
;	COMDAT ?has_infinity@_Num_base@std@@2_NB
CONST	SEGMENT
?has_infinity@_Num_base@std@@2_NB DB 00H		; std::_Num_base::has_infinity
CONST	ENDS
;	COMDAT ?has_denorm_loss@_Num_base@std@@2_NB
CONST	SEGMENT
?has_denorm_loss@_Num_base@std@@2_NB DB 00H		; std::_Num_base::has_denorm_loss
CONST	ENDS
;	COMDAT ?has_denorm@_Num_base@std@@2W4float_denorm_style@2@B
CONST	SEGMENT
?has_denorm@_Num_base@std@@2W4float_denorm_style@2@B DD 00H ; std::_Num_base::has_denorm
CONST	ENDS
;	COMDAT ?min_exponent10@?$numeric_limits@O@std@@2HB
CONST	SEGMENT
?min_exponent10@?$numeric_limits@O@std@@2HB DD 0fffffecdH ; std::numeric_limits<long double>::min_exponent10
CONST	ENDS
;	COMDAT ?min_exponent@?$numeric_limits@O@std@@2HB
CONST	SEGMENT
?min_exponent@?$numeric_limits@O@std@@2HB DD 0fffffc03H	; std::numeric_limits<long double>::min_exponent
CONST	ENDS
;	COMDAT ?max_exponent10@?$numeric_limits@O@std@@2HB
CONST	SEGMENT
?max_exponent10@?$numeric_limits@O@std@@2HB DD 0134H	; std::numeric_limits<long double>::max_exponent10
CONST	ENDS
;	COMDAT ?max_exponent@?$numeric_limits@O@std@@2HB
CONST	SEGMENT
?max_exponent@?$numeric_limits@O@std@@2HB DD 0400H	; std::numeric_limits<long double>::max_exponent
CONST	ENDS
;	COMDAT ?max_digits10@?$numeric_limits@O@std@@2HB
CONST	SEGMENT
?max_digits10@?$numeric_limits@O@std@@2HB DD 011H	; std::numeric_limits<long double>::max_digits10
CONST	ENDS
;	COMDAT ?digits10@?$numeric_limits@O@std@@2HB
CONST	SEGMENT
?digits10@?$numeric_limits@O@std@@2HB DD 0fH		; std::numeric_limits<long double>::digits10
CONST	ENDS
CONST	SEGMENT
?minInt@Value@Json@@2HB DD 080000000H			; Json::Value::minInt
?maxInt@Value@Json@@2HB DD 07fffffffH			; Json::Value::maxInt
?maxUInt@Value@Json@@2IB DD 0ffffffffH			; Json::Value::maxUInt
CONST	ENDS
;	COMDAT ?digits@?$numeric_limits@O@std@@2HB
CONST	SEGMENT
?digits@?$numeric_limits@O@std@@2HB DD 035H		; std::numeric_limits<long double>::digits
CONST	ENDS
;	COMDAT ?min_exponent10@?$numeric_limits@N@std@@2HB
CONST	SEGMENT
?min_exponent10@?$numeric_limits@N@std@@2HB DD 0fffffecdH ; std::numeric_limits<double>::min_exponent10
CONST	ENDS
;	COMDAT ?min_exponent@?$numeric_limits@N@std@@2HB
CONST	SEGMENT
?min_exponent@?$numeric_limits@N@std@@2HB DD 0fffffc03H	; std::numeric_limits<double>::min_exponent
CONST	ENDS
;	COMDAT ?max_exponent10@?$numeric_limits@N@std@@2HB
CONST	SEGMENT
?max_exponent10@?$numeric_limits@N@std@@2HB DD 0134H	; std::numeric_limits<double>::max_exponent10
CONST	ENDS
;	COMDAT ?max_exponent@?$numeric_limits@N@std@@2HB
CONST	SEGMENT
?max_exponent@?$numeric_limits@N@std@@2HB DD 0400H	; std::numeric_limits<double>::max_exponent
CONST	ENDS
;	COMDAT ?max_digits10@?$numeric_limits@N@std@@2HB
CONST	SEGMENT
?max_digits10@?$numeric_limits@N@std@@2HB DD 011H	; std::numeric_limits<double>::max_digits10
CONST	ENDS
;	COMDAT ?digits10@?$numeric_limits@N@std@@2HB
CONST	SEGMENT
?digits10@?$numeric_limits@N@std@@2HB DD 0fH		; std::numeric_limits<double>::digits10
CONST	ENDS
;	COMDAT ?digits@?$numeric_limits@N@std@@2HB
CONST	SEGMENT
?digits@?$numeric_limits@N@std@@2HB DD 035H		; std::numeric_limits<double>::digits
CONST	ENDS
;	COMDAT ?min_exponent10@?$numeric_limits@M@std@@2HB
CONST	SEGMENT
?min_exponent10@?$numeric_limits@M@std@@2HB DD 0ffffffdbH ; std::numeric_limits<float>::min_exponent10
CONST	ENDS
;	COMDAT ?min_exponent@?$numeric_limits@M@std@@2HB
CONST	SEGMENT
?min_exponent@?$numeric_limits@M@std@@2HB DD 0ffffff83H	; std::numeric_limits<float>::min_exponent
CONST	ENDS
;	COMDAT ?max_exponent10@?$numeric_limits@M@std@@2HB
CONST	SEGMENT
?max_exponent10@?$numeric_limits@M@std@@2HB DD 026H	; std::numeric_limits<float>::max_exponent10
CONST	ENDS
;	COMDAT ?max_exponent@?$numeric_limits@M@std@@2HB
CONST	SEGMENT
?max_exponent@?$numeric_limits@M@std@@2HB DD 080H	; std::numeric_limits<float>::max_exponent
CONST	ENDS
;	COMDAT ?max_digits10@?$numeric_limits@M@std@@2HB
CONST	SEGMENT
?max_digits10@?$numeric_limits@M@std@@2HB DD 09H	; std::numeric_limits<float>::max_digits10
CONST	ENDS
;	COMDAT ?digits10@?$numeric_limits@M@std@@2HB
CONST	SEGMENT
?digits10@?$numeric_limits@M@std@@2HB DD 06H		; std::numeric_limits<float>::digits10
CONST	ENDS
;	COMDAT ?digits@?$numeric_limits@M@std@@2HB
CONST	SEGMENT
?digits@?$numeric_limits@M@std@@2HB DD 018H		; std::numeric_limits<float>::digits
CONST	ENDS
;	COMDAT ?digits10@?$numeric_limits@_K@std@@2HB
CONST	SEGMENT
?digits10@?$numeric_limits@_K@std@@2HB DD 013H		; std::numeric_limits<unsigned __int64>::digits10
CONST	ENDS
;	COMDAT ?digits@?$numeric_limits@_K@std@@2HB
CONST	SEGMENT
?digits@?$numeric_limits@_K@std@@2HB DD 040H		; std::numeric_limits<unsigned __int64>::digits
CONST	ENDS
PUBLIC	_hypot
PUBLIC	??2@YAPAXIPAX@Z					; operator new
PUBLIC	??3@YAXPAX0@Z					; operator delete
PUBLIC	?length@?$char_traits@D@std@@SAIPBD@Z		; std::char_traits<char>::length
PUBLIC	?copy@?$char_traits@D@std@@SAPADPADPBDI@Z	; std::char_traits<char>::copy
PUBLIC	?move@?$char_traits@D@std@@SAPADPADPBDI@Z	; std::char_traits<char>::move
PUBLIC	?assign@?$char_traits@D@std@@SAXAADABD@Z	; std::char_traits<char>::assign
PUBLIC	?_Adopt@_Iterator_base0@std@@QAEXPBX@Z		; std::_Iterator_base0::_Adopt
PUBLIC	?_Getcont@_Iterator_base0@std@@QBEPBU_Container_base0@2@XZ ; std::_Iterator_base0::_Getcont
PUBLIC	?select_on_container_copy_construction@?$allocator@D@std@@QBE?AV12@XZ ; std::allocator<char>::select_on_container_copy_construction
PUBLIC	??0?$allocator@D@std@@QAE@XZ			; std::allocator<char>::allocator<char>
PUBLIC	??0?$allocator@D@std@@QAE@ABV01@@Z		; std::allocator<char>::allocator<char>
PUBLIC	?deallocate@?$allocator@D@std@@QAEXPADI@Z	; std::allocator<char>::deallocate
PUBLIC	?allocate@?$allocator@D@std@@QAEPADI@Z		; std::allocator<char>::allocate
PUBLIC	?max_size@?$allocator@D@std@@QBEIXZ		; std::allocator<char>::max_size
PUBLIC	?max_size@?$allocator_traits@V?$allocator@D@std@@@std@@SAIABV?$allocator@D@2@@Z ; std::allocator_traits<std::allocator<char> >::max_size
PUBLIC	?select_on_container_copy_construction@?$allocator_traits@V?$allocator@D@std@@@std@@SA?AV?$allocator@D@2@ABV32@@Z ; std::allocator_traits<std::allocator<char> >::select_on_container_copy_construction
PUBLIC	?select_on_container_copy_construction@?$_Wrap_alloc@V?$allocator@D@std@@@std@@QBE?AU12@XZ ; std::_Wrap_alloc<std::allocator<char> >::select_on_container_copy_construction
PUBLIC	??0?$_Wrap_alloc@V?$allocator@D@std@@@std@@QAE@XZ ; std::_Wrap_alloc<std::allocator<char> >::_Wrap_alloc<std::allocator<char> >
PUBLIC	??0?$_Wrap_alloc@V?$allocator@D@std@@@std@@QAE@ABV?$allocator@D@1@@Z ; std::_Wrap_alloc<std::allocator<char> >::_Wrap_alloc<std::allocator<char> >
PUBLIC	?allocate@?$_Wrap_alloc@V?$allocator@D@std@@@std@@QAEPADI@Z ; std::_Wrap_alloc<std::allocator<char> >::allocate
PUBLIC	?deallocate@?$_Wrap_alloc@V?$allocator@D@std@@@std@@QAEXPADI@Z ; std::_Wrap_alloc<std::allocator<char> >::deallocate
PUBLIC	?max_size@?$_Wrap_alloc@V?$allocator@D@std@@@std@@QBEIXZ ; std::_Wrap_alloc<std::allocator<char> >::max_size
PUBLIC	??0?$_String_val@U?$_Simple_types@D@std@@@std@@QAE@XZ ; std::_String_val<std::_Simple_types<char> >::_String_val<std::_Simple_types<char> >
PUBLIC	?_Myptr@?$_String_val@U?$_Simple_types@D@std@@@std@@QAEPADXZ ; std::_String_val<std::_Simple_types<char> >::_Myptr
PUBLIC	?_Myptr@?$_String_val@U?$_Simple_types@D@std@@@std@@QBEPBDXZ ; std::_String_val<std::_Simple_types<char> >::_Myptr
PUBLIC	??0?$_String_alloc@$0A@U?$_String_base_types@DV?$allocator@D@std@@@std@@@std@@QAE@ABV?$allocator@D@1@@Z ; std::_String_alloc<0,std::_String_base_types<char,std::allocator<char> > >::_String_alloc<0,std::_String_base_types<char,std::allocator<char> > >
PUBLIC	?_Getal@?$_String_alloc@$0A@U?$_String_base_types@DV?$allocator@D@std@@@std@@@std@@QBE?AU?$_Wrap_alloc@V?$allocator@D@std@@@2@XZ ; std::_String_alloc<0,std::_String_base_types<char,std::allocator<char> > >::_Getal
PUBLIC	??0?$basic_string@DU?$char_traits@D@std@@V?$allocator@D@2@@std@@QAE@ABV01@@Z ; std::basic_string<char,std::char_traits<char>,std::allocator<char> >::basic_string<char,std::char_traits<char>,std::allocator<char> >
PUBLIC	??0?$basic_string@DU?$char_traits@D@std@@V?$allocator@D@2@@std@@QAE@XZ ; std::basic_string<char,std::char_traits<char>,std::allocator<char> >::basic_string<char,std::char_traits<char>,std::allocator<char> >
PUBLIC	??0?$basic_string@DU?$char_traits@D@std@@V?$allocator@D@2@@std@@QAE@PBD@Z ; std::basic_string<char,std::char_traits<char>,std::allocator<char> >::basic_string<char,std::char_traits<char>,std::allocator<char> >
PUBLIC	??0?$basic_string@DU?$char_traits@D@std@@V?$allocator@D@2@@std@@QAE@PBD0@Z ; std::basic_string<char,std::char_traits<char>,std::allocator<char> >::basic_string<char,std::char_traits<char>,std::allocator<char> >
PUBLIC	??0?$basic_string@DU?$char_traits@D@std@@V?$allocator@D@2@@std@@QAE@$$QAV01@@Z ; std::basic_string<char,std::char_traits<char>,std::allocator<char> >::basic_string<char,std::char_traits<char>,std::allocator<char> >
PUBLIC	?_Assign_rv@?$basic_string@DU?$char_traits@D@std@@V?$allocator@D@2@@std@@QAEX$$QAV12@@Z ; std::basic_string<char,std::char_traits<char>,std::allocator<char> >::_Assign_rv
PUBLIC	??1?$basic_string@DU?$char_traits@D@std@@V?$allocator@D@2@@std@@QAE@XZ ; std::basic_string<char,std::char_traits<char>,std::allocator<char> >::~basic_string<char,std::char_traits<char>,std::allocator<char> >
PUBLIC	?assign@?$basic_string@DU?$char_traits@D@std@@V?$allocator@D@2@@std@@QAEAAV12@ABV12@II@Z ; std::basic_string<char,std::char_traits<char>,std::allocator<char> >::assign
PUBLIC	?assign@?$basic_string@DU?$char_traits@D@std@@V?$allocator@D@2@@std@@QAEAAV12@PBDI@Z ; std::basic_string<char,std::char_traits<char>,std::allocator<char> >::assign
PUBLIC	?assign@?$basic_string@DU?$char_traits@D@std@@V?$allocator@D@2@@std@@QAEAAV12@PBD@Z ; std::basic_string<char,std::char_traits<char>,std::allocator<char> >::assign
PUBLIC	?erase@?$basic_string@DU?$char_traits@D@std@@V?$allocator@D@2@@std@@QAEAAV12@I@Z ; std::basic_string<char,std::char_traits<char>,std::allocator<char> >::erase
PUBLIC	?erase@?$basic_string@DU?$char_traits@D@std@@V?$allocator@D@2@@std@@QAEAAV12@II@Z ; std::basic_string<char,std::char_traits<char>,std::allocator<char> >::erase
PUBLIC	?c_str@?$basic_string@DU?$char_traits@D@std@@V?$allocator@D@2@@std@@QBEPBDXZ ; std::basic_string<char,std::char_traits<char>,std::allocator<char> >::c_str
PUBLIC	?length@?$basic_string@DU?$char_traits@D@std@@V?$allocator@D@2@@std@@QBEIXZ ; std::basic_string<char,std::char_traits<char>,std::allocator<char> >::length
PUBLIC	?size@?$basic_string@DU?$char_traits@D@std@@V?$allocator@D@2@@std@@QBEIXZ ; std::basic_string<char,std::char_traits<char>,std::allocator<char> >::size
PUBLIC	?max_size@?$basic_string@DU?$char_traits@D@std@@V?$allocator@D@2@@std@@QBEIXZ ; std::basic_string<char,std::char_traits<char>,std::allocator<char> >::max_size
PUBLIC	?_Copy@?$basic_string@DU?$char_traits@D@std@@V?$allocator@D@2@@std@@QAEXII@Z ; std::basic_string<char,std::char_traits<char>,std::allocator<char> >::_Copy
PUBLIC	?_Eos@?$basic_string@DU?$char_traits@D@std@@V?$allocator@D@2@@std@@QAEXI@Z ; std::basic_string<char,std::char_traits<char>,std::allocator<char> >::_Eos
PUBLIC	?_Grow@?$basic_string@DU?$char_traits@D@std@@V?$allocator@D@2@@std@@QAE_NI_N@Z ; std::basic_string<char,std::char_traits<char>,std::allocator<char> >::_Grow
PUBLIC	?_Inside@?$basic_string@DU?$char_traits@D@std@@V?$allocator@D@2@@std@@QAE_NPBD@Z ; std::basic_string<char,std::char_traits<char>,std::allocator<char> >::_Inside
PUBLIC	?_Tidy@?$basic_string@DU?$char_traits@D@std@@V?$allocator@D@2@@std@@QAEX_NI@Z ; std::basic_string<char,std::char_traits<char>,std::allocator<char> >::_Tidy
PUBLIC	?_Xlen@?$basic_string@DU?$char_traits@D@std@@V?$allocator@D@2@@std@@QBEXXZ ; std::basic_string<char,std::char_traits<char>,std::allocator<char> >::_Xlen
PUBLIC	?_Xran@?$basic_string@DU?$char_traits@D@std@@V?$allocator@D@2@@std@@QBEXXZ ; std::basic_string<char,std::char_traits<char>,std::allocator<char> >::_Xran
PUBLIC	??_G?$basic_string@DU?$char_traits@D@std@@V?$allocator@D@2@@std@@QAEPAXI@Z ; std::basic_string<char,std::char_traits<char>,std::allocator<char> >::`scalar deleting destructor'
PUBLIC	??0runtime_error@std@@QAE@PBD@Z			; std::runtime_error::runtime_error
PUBLIC	??1runtime_error@std@@UAE@XZ			; std::runtime_error::~runtime_error
PUBLIC	??0runtime_error@std@@QAE@ABV01@@Z		; std::runtime_error::runtime_error
PUBLIC	??_Gruntime_error@std@@UAEPAXI@Z		; std::runtime_error::`scalar deleting destructor'
PUBLIC	?generic_category@std@@YAABVerror_category@1@XZ	; std::generic_category
PUBLIC	?system_category@std@@YAABVerror_category@1@XZ	; std::system_category
PUBLIC	??0error_category@std@@QAE@XZ			; std::error_category::error_category
PUBLIC	??1error_category@std@@UAE@XZ			; std::error_category::~error_category
PUBLIC	?default_error_condition@error_category@std@@UBE?AVerror_condition@2@H@Z ; std::error_category::default_error_condition
PUBLIC	?equivalent@error_category@std@@UBE_NHABVerror_condition@2@@Z ; std::error_category::equivalent
PUBLIC	?equivalent@error_category@std@@UBE_NABVerror_code@2@H@Z ; std::error_category::equivalent
PUBLIC	??8error_category@std@@QBE_NABV01@@Z		; std::error_category::operator==
PUBLIC	??_Gerror_category@std@@UAEPAXI@Z		; std::error_category::`scalar deleting destructor'
PUBLIC	?value@error_code@std@@QBEHXZ			; std::error_code::value
PUBLIC	?category@error_code@std@@QBEABVerror_category@2@XZ ; std::error_code::category
PUBLIC	??0error_condition@std@@QAE@HABVerror_category@1@@Z ; std::error_condition::error_condition
PUBLIC	?value@error_condition@std@@QBEHXZ		; std::error_condition::value
PUBLIC	?category@error_condition@std@@QBEABVerror_category@2@XZ ; std::error_condition::category
PUBLIC	??8error_condition@std@@QBE_NABV01@@Z		; std::error_condition::operator==
PUBLIC	??0_Generic_error_category@std@@QAE@XZ		; std::_Generic_error_category::_Generic_error_category
PUBLIC	?name@_Generic_error_category@std@@UBEPBDXZ	; std::_Generic_error_category::name
PUBLIC	?message@_Generic_error_category@std@@UBE?AV?$basic_string@DU?$char_traits@D@std@@V?$allocator@D@2@@2@H@Z ; std::_Generic_error_category::message
PUBLIC	??1_Generic_error_category@std@@UAE@XZ		; std::_Generic_error_category::~_Generic_error_category
PUBLIC	??_G_Generic_error_category@std@@UAEPAXI@Z	; std::_Generic_error_category::`scalar deleting destructor'
PUBLIC	??0_Iostream_error_category@std@@QAE@XZ		; std::_Iostream_error_category::_Iostream_error_category
PUBLIC	?name@_Iostream_error_category@std@@UBEPBDXZ	; std::_Iostream_error_category::name
PUBLIC	?message@_Iostream_error_category@std@@UBE?AV?$basic_string@DU?$char_traits@D@std@@V?$allocator@D@2@@2@H@Z ; std::_Iostream_error_category::message
PUBLIC	??1_Iostream_error_category@std@@UAE@XZ		; std::_Iostream_error_category::~_Iostream_error_category
PUBLIC	??_G_Iostream_error_category@std@@UAEPAXI@Z	; std::_Iostream_error_category::`scalar deleting destructor'
PUBLIC	??0_System_error_category@std@@QAE@XZ		; std::_System_error_category::_System_error_category
PUBLIC	?name@_System_error_category@std@@UBEPBDXZ	; std::_System_error_category::name
PUBLIC	?message@_System_error_category@std@@UBE?AV?$basic_string@DU?$char_traits@D@std@@V?$allocator@D@2@@2@H@Z ; std::_System_error_category::message
PUBLIC	?default_error_condition@_System_error_category@std@@UBE?AVerror_condition@2@H@Z ; std::_System_error_category::default_error_condition
PUBLIC	??1_System_error_category@std@@UAE@XZ		; std::_System_error_category::~_System_error_category
PUBLIC	??_G_System_error_category@std@@UAEPAXI@Z	; std::_System_error_category::`scalar deleting destructor'
PUBLIC	??$swap@H@std@@YAXAAH0@Z			; std::swap<int>
PUBLIC	??0_Ignore@std@@QAE@XZ				; std::_Ignore::_Ignore
PUBLIC	??0StaticString@Json@@QAE@PBD@Z			; Json::StaticString::StaticString
PUBLIC	??BStaticString@Json@@QBEPBDXZ			; Json::StaticString::operator char const *
PUBLIC	?c_str@StaticString@Json@@QBEPBDXZ		; Json::StaticString::c_str
PUBLIC	??0CZString@Value@Json@@QAE@H@Z			; Json::Value::CZString::CZString
PUBLIC	??0CZString@Value@Json@@QAE@PBDW4DuplicationPolicy@012@@Z ; Json::Value::CZString::CZString
PUBLIC	??0CZString@Value@Json@@QAE@ABV012@@Z		; Json::Value::CZString::CZString
PUBLIC	??1CZString@Value@Json@@QAE@XZ			; Json::Value::CZString::~CZString
PUBLIC	??4CZString@Value@Json@@QAEAAV012@ABV012@@Z	; Json::Value::CZString::operator=
PUBLIC	??MCZString@Value@Json@@QBE_NABV012@@Z		; Json::Value::CZString::operator<
PUBLIC	??8CZString@Value@Json@@QBE_NABV012@@Z		; Json::Value::CZString::operator==
PUBLIC	?index@CZString@Value@Json@@QBEHXZ		; Json::Value::CZString::index
PUBLIC	?c_str@CZString@Value@Json@@QBEPBDXZ		; Json::Value::CZString::c_str
PUBLIC	?isStaticString@CZString@Value@Json@@QBE_NXZ	; Json::Value::CZString::isStaticString
PUBLIC	?swap@CZString@Value@Json@@AAEXAAV123@@Z	; Json::Value::CZString::swap
PUBLIC	??0Value@Json@@QAE@W4ValueType@1@@Z		; Json::Value::Value
PUBLIC	??0Value@Json@@QAE@H@Z				; Json::Value::Value
PUBLIC	??0Value@Json@@QAE@I@Z				; Json::Value::Value
PUBLIC	??0Value@Json@@QAE@N@Z				; Json::Value::Value
PUBLIC	??0Value@Json@@QAE@PBD@Z			; Json::Value::Value
PUBLIC	??0Value@Json@@QAE@PBD0@Z			; Json::Value::Value
PUBLIC	??0Value@Json@@QAE@ABVStaticString@1@@Z		; Json::Value::Value
PUBLIC	??0Value@Json@@QAE@ABV?$basic_string@DU?$char_traits@D@std@@V?$allocator@D@2@@std@@@Z ; Json::Value::Value
PUBLIC	??0Value@Json@@QAE@_N@Z				; Json::Value::Value
PUBLIC	??0Value@Json@@QAE@ABV01@@Z			; Json::Value::Value
PUBLIC	??1Value@Json@@QAE@XZ				; Json::Value::~Value
PUBLIC	??4Value@Json@@QAEAAV01@ABV01@@Z		; Json::Value::operator=
PUBLIC	?swap@Value@Json@@QAEXAAV12@@Z			; Json::Value::swap
PUBLIC	?type@Value@Json@@QBE?AW4ValueType@2@XZ		; Json::Value::type
PUBLIC	??MValue@Json@@QBE_NABV01@@Z			; Json::Value::operator<
PUBLIC	??NValue@Json@@QBE_NABV01@@Z			; Json::Value::operator<=
PUBLIC	??PValue@Json@@QBE_NABV01@@Z			; Json::Value::operator>=
PUBLIC	??OValue@Json@@QBE_NABV01@@Z			; Json::Value::operator>
PUBLIC	??8Value@Json@@QBE_NABV01@@Z			; Json::Value::operator==
PUBLIC	??9Value@Json@@QBE_NABV01@@Z			; Json::Value::operator!=
PUBLIC	?compare@Value@Json@@QAEHABV12@@Z		; Json::Value::compare
PUBLIC	?asCString@Value@Json@@QBEPBDXZ			; Json::Value::asCString
PUBLIC	?asString@Value@Json@@QBE?AV?$basic_string@DU?$char_traits@D@std@@V?$allocator@D@2@@std@@XZ ; Json::Value::asString
PUBLIC	?asInt@Value@Json@@QBEHXZ			; Json::Value::asInt
PUBLIC	?asUInt@Value@Json@@QBEIXZ			; Json::Value::asUInt
PUBLIC	?asDouble@Value@Json@@QBENXZ			; Json::Value::asDouble
PUBLIC	?asBool@Value@Json@@QBE_NXZ			; Json::Value::asBool
PUBLIC	?isNull@Value@Json@@QBE_NXZ			; Json::Value::isNull
PUBLIC	?isBool@Value@Json@@QBE_NXZ			; Json::Value::isBool
PUBLIC	?isInt@Value@Json@@QBE_NXZ			; Json::Value::isInt
PUBLIC	?isUInt@Value@Json@@QBE_NXZ			; Json::Value::isUInt
PUBLIC	?isIntegral@Value@Json@@QBE_NXZ			; Json::Value::isIntegral
PUBLIC	?isDouble@Value@Json@@QBE_NXZ			; Json::Value::isDouble
PUBLIC	?isNumeric@Value@Json@@QBE_NXZ			; Json::Value::isNumeric
PUBLIC	?isString@Value@Json@@QBE_NXZ			; Json::Value::isString
PUBLIC	?isArray@Value@Json@@QBE_NXZ			; Json::Value::isArray
PUBLIC	?isObject@Value@Json@@QBE_NXZ			; Json::Value::isObject
PUBLIC	?isConvertibleTo@Value@Json@@QBE_NW4ValueType@2@@Z ; Json::Value::isConvertibleTo
PUBLIC	?size@Value@Json@@QBEIXZ			; Json::Value::size
PUBLIC	?empty@Value@Json@@QBE_NXZ			; Json::Value::empty
PUBLIC	??7Value@Json@@QBE_NXZ				; Json::Value::operator!
PUBLIC	?clear@Value@Json@@QAEXXZ			; Json::Value::clear
PUBLIC	?resize@Value@Json@@QAEXI@Z			; Json::Value::resize
PUBLIC	??AValue@Json@@QAEAAV01@I@Z			; Json::Value::operator[]
PUBLIC	??AValue@Json@@QBEABV01@I@Z			; Json::Value::operator[]
PUBLIC	?get@Value@Json@@QBE?AV12@IABV12@@Z		; Json::Value::get
PUBLIC	?isValidIndex@Value@Json@@QBE_NI@Z		; Json::Value::isValidIndex
PUBLIC	?append@Value@Json@@QAEAAV12@ABV12@@Z		; Json::Value::append
PUBLIC	??AValue@Json@@QAEAAV01@PBD@Z			; Json::Value::operator[]
PUBLIC	??AValue@Json@@QBEABV01@PBD@Z			; Json::Value::operator[]
PUBLIC	??AValue@Json@@QAEAAV01@ABV?$basic_string@DU?$char_traits@D@std@@V?$allocator@D@2@@std@@@Z ; Json::Value::operator[]
PUBLIC	??AValue@Json@@QBEABV01@ABV?$basic_string@DU?$char_traits@D@std@@V?$allocator@D@2@@std@@@Z ; Json::Value::operator[]
PUBLIC	??AValue@Json@@QAEAAV01@ABVStaticString@1@@Z	; Json::Value::operator[]
PUBLIC	?get@Value@Json@@QBE?AV12@PBDABV12@@Z		; Json::Value::get
PUBLIC	?get@Value@Json@@QBE?AV12@ABV?$basic_string@DU?$char_traits@D@std@@V?$allocator@D@2@@std@@ABV12@@Z ; Json::Value::get
PUBLIC	?removeMember@Value@Json@@QAE?AV12@PBD@Z	; Json::Value::removeMember
PUBLIC	?removeMember@Value@Json@@QAE?AV12@ABV?$basic_string@DU?$char_traits@D@std@@V?$allocator@D@2@@std@@@Z ; Json::Value::removeMember
PUBLIC	?isMember@Value@Json@@QBE_NPBD@Z		; Json::Value::isMember
PUBLIC	?isMember@Value@Json@@QBE_NABV?$basic_string@DU?$char_traits@D@std@@V?$allocator@D@2@@std@@@Z ; Json::Value::isMember
PUBLIC	?getMemberNames@Value@Json@@QBE?AV?$vector@V?$basic_string@DU?$char_traits@D@std@@V?$allocator@D@2@@std@@V?$allocator@V?$basic_string@DU?$char_traits@D@std@@V?$allocator@D@2@@std@@@2@@std@@XZ ; Json::Value::getMemberNames
PUBLIC	?setComment@Value@Json@@QAEXPBDW4CommentPlacement@2@@Z ; Json::Value::setComment
PUBLIC	?setComment@Value@Json@@QAEXABV?$basic_string@DU?$char_traits@D@std@@V?$allocator@D@2@@std@@W4CommentPlacement@2@@Z ; Json::Value::setComment
PUBLIC	?hasComment@Value@Json@@QBE_NW4CommentPlacement@2@@Z ; Json::Value::hasComment
PUBLIC	?getComment@Value@Json@@QBE?AV?$basic_string@DU?$char_traits@D@std@@V?$allocator@D@2@@std@@W4CommentPlacement@2@@Z ; Json::Value::getComment
PUBLIC	?toStyledString@Value@Json@@QBE?AV?$basic_string@DU?$char_traits@D@std@@V?$allocator@D@2@@std@@XZ ; Json::Value::toStyledString
PUBLIC	?begin@Value@Json@@QBE?AVValueConstIterator@2@XZ ; Json::Value::begin
PUBLIC	?end@Value@Json@@QBE?AVValueConstIterator@2@XZ	; Json::Value::end
PUBLIC	?begin@Value@Json@@QAE?AVValueIterator@2@XZ	; Json::Value::begin
PUBLIC	?end@Value@Json@@QAE?AVValueIterator@2@XZ	; Json::Value::end
PUBLIC	?resolveReference@Value@Json@@AAEAAV12@PBD_N@Z	; Json::Value::resolveReference
PUBLIC	??0CommentInfo@Value@Json@@QAE@XZ		; Json::Value::CommentInfo::CommentInfo
PUBLIC	??1CommentInfo@Value@Json@@QAE@XZ		; Json::Value::CommentInfo::~CommentInfo
PUBLIC	?setComment@CommentInfo@Value@Json@@QAEXPBD@Z	; Json::Value::CommentInfo::setComment
PUBLIC	??_ECommentInfo@Value@Json@@QAEPAXI@Z		; Json::Value::CommentInfo::`vector deleting destructor'
PUBLIC	??0PathArgument@Json@@QAE@XZ			; Json::PathArgument::PathArgument
PUBLIC	??0PathArgument@Json@@QAE@I@Z			; Json::PathArgument::PathArgument
PUBLIC	??0PathArgument@Json@@QAE@PBD@Z			; Json::PathArgument::PathArgument
PUBLIC	??0PathArgument@Json@@QAE@ABV?$basic_string@DU?$char_traits@D@std@@V?$allocator@D@2@@std@@@Z ; Json::PathArgument::PathArgument
PUBLIC	??1PathArgument@Json@@QAE@XZ			; Json::PathArgument::~PathArgument
PUBLIC	??0PathArgument@Json@@QAE@ABV01@@Z		; Json::PathArgument::PathArgument
PUBLIC	??_GPathArgument@Json@@QAEPAXI@Z		; Json::PathArgument::`scalar deleting destructor'
PUBLIC	??0Path@Json@@QAE@ABV?$basic_string@DU?$char_traits@D@std@@V?$allocator@D@2@@std@@ABVPathArgument@1@1111@Z ; Json::Path::Path
PUBLIC	?resolve@Path@Json@@QBEABVValue@2@ABV32@@Z	; Json::Path::resolve
PUBLIC	?resolve@Path@Json@@QBE?AVValue@2@ABV32@0@Z	; Json::Path::resolve
PUBLIC	?make@Path@Json@@QBEAAVValue@2@AAV32@@Z		; Json::Path::make
PUBLIC	?makePath@Path@Json@@AAEXABV?$basic_string@DU?$char_traits@D@std@@V?$allocator@D@2@@std@@ABV?$vector@PBVPathArgument@Json@@V?$allocator@PBVPathArgument@Json@@@std@@@4@@Z ; Json::Path::makePath
PUBLIC	??0?$allocator@PBVPathArgument@Json@@@std@@QAE@XZ ; std::allocator<Json::PathArgument const *>::allocator<Json::PathArgument const *>
PUBLIC	?deallocate@?$allocator@PBVPathArgument@Json@@@std@@QAEXPAPBVPathArgument@Json@@I@Z ; std::allocator<Json::PathArgument const *>::deallocate
PUBLIC	?allocate@?$allocator@PBVPathArgument@Json@@@std@@QAEPAPBVPathArgument@Json@@I@Z ; std::allocator<Json::PathArgument const *>::allocate
PUBLIC	?max_size@?$allocator@PBVPathArgument@Json@@@std@@QBEIXZ ; std::allocator<Json::PathArgument const *>::max_size
PUBLIC	?max_size@?$allocator_traits@V?$allocator@PBVPathArgument@Json@@@std@@@std@@SAIABV?$allocator@PBVPathArgument@Json@@@2@@Z ; std::allocator_traits<std::allocator<Json::PathArgument const *> >::max_size
PUBLIC	??0?$_Wrap_alloc@V?$allocator@PBVPathArgument@Json@@@std@@@std@@QAE@XZ ; std::_Wrap_alloc<std::allocator<Json::PathArgument const *> >::_Wrap_alloc<std::allocator<Json::PathArgument const *> >
PUBLIC	?allocate@?$_Wrap_alloc@V?$allocator@PBVPathArgument@Json@@@std@@@std@@QAEPAPBVPathArgument@Json@@I@Z ; std::_Wrap_alloc<std::allocator<Json::PathArgument const *> >::allocate
PUBLIC	?deallocate@?$_Wrap_alloc@V?$allocator@PBVPathArgument@Json@@@std@@@std@@QAEXPAPBVPathArgument@Json@@I@Z ; std::_Wrap_alloc<std::allocator<Json::PathArgument const *> >::deallocate
PUBLIC	?max_size@?$_Wrap_alloc@V?$allocator@PBVPathArgument@Json@@@std@@@std@@QBEIXZ ; std::_Wrap_alloc<std::allocator<Json::PathArgument const *> >::max_size
PUBLIC	??0?$_Vector_val@U?$_Simple_types@PBVPathArgument@Json@@@std@@@std@@QAE@XZ ; std::_Vector_val<std::_Simple_types<Json::PathArgument const *> >::_Vector_val<std::_Simple_types<Json::PathArgument const *> >
PUBLIC	??0?$_Vector_alloc@$0A@U?$_Vec_base_types@PBVPathArgument@Json@@V?$allocator@PBVPathArgument@Json@@@std@@@std@@@std@@QAE@ABV?$allocator@PBVPathArgument@Json@@@1@@Z ; std::_Vector_alloc<0,std::_Vec_base_types<Json::PathArgument const *,std::allocator<Json::PathArgument const *> > >::_Vector_alloc<0,std::_Vec_base_types<Json::PathArgument const *,std::allocator<Json::PathArgument const *> > >
PUBLIC	?_Getal@?$_Vector_alloc@$0A@U?$_Vec_base_types@PBVPathArgument@Json@@V?$allocator@PBVPathArgument@Json@@@std@@@std@@@std@@QBE?AU?$_Wrap_alloc@V?$allocator@PBVPathArgument@Json@@@std@@@2@XZ ; std::_Vector_alloc<0,std::_Vec_base_types<Json::PathArgument const *,std::allocator<Json::PathArgument const *> > >::_Getal
PUBLIC	??0?$vector@PBVPathArgument@Json@@V?$allocator@PBVPathArgument@Json@@@std@@@std@@QAE@XZ ; std::vector<Json::PathArgument const *,std::allocator<Json::PathArgument const *> >::vector<Json::PathArgument const *,std::allocator<Json::PathArgument const *> >
PUBLIC	?push_back@?$vector@PBVPathArgument@Json@@V?$allocator@PBVPathArgument@Json@@@std@@@std@@QAEX$$QAPBVPathArgument@Json@@@Z ; std::vector<Json::PathArgument const *,std::allocator<Json::PathArgument const *> >::push_back
PUBLIC	??1?$vector@PBVPathArgument@Json@@V?$allocator@PBVPathArgument@Json@@@std@@@std@@QAE@XZ ; std::vector<Json::PathArgument const *,std::allocator<Json::PathArgument const *> >::~vector<Json::PathArgument const *,std::allocator<Json::PathArgument const *> >
PUBLIC	?capacity@?$vector@PBVPathArgument@Json@@V?$allocator@PBVPathArgument@Json@@@std@@@std@@QBEIXZ ; std::vector<Json::PathArgument const *,std::allocator<Json::PathArgument const *> >::capacity
PUBLIC	?_Unused_capacity@?$vector@PBVPathArgument@Json@@V?$allocator@PBVPathArgument@Json@@@std@@@std@@QBEIXZ ; std::vector<Json::PathArgument const *,std::allocator<Json::PathArgument const *> >::_Unused_capacity
PUBLIC	?begin@?$vector@PBVPathArgument@Json@@V?$allocator@PBVPathArgument@Json@@@std@@@std@@QBE?AV?$_Vector_const_iterator@V?$_Vector_val@U?$_Simple_types@PBVPathArgument@Json@@@std@@@std@@@2@XZ ; std::vector<Json::PathArgument const *,std::allocator<Json::PathArgument const *> >::begin
PUBLIC	?end@?$vector@PBVPathArgument@Json@@V?$allocator@PBVPathArgument@Json@@@std@@@std@@QBE?AV?$_Vector_const_iterator@V?$_Vector_val@U?$_Simple_types@PBVPathArgument@Json@@@std@@@std@@@2@XZ ; std::vector<Json::PathArgument const *,std::allocator<Json::PathArgument const *> >::end
PUBLIC	?size@?$vector@PBVPathArgument@Json@@V?$allocator@PBVPathArgument@Json@@@std@@@std@@QBEIXZ ; std::vector<Json::PathArgument const *,std::allocator<Json::PathArgument const *> >::size
PUBLIC	?max_size@?$vector@PBVPathArgument@Json@@V?$allocator@PBVPathArgument@Json@@@std@@@std@@QBEIXZ ; std::vector<Json::PathArgument const *,std::allocator<Json::PathArgument const *> >::max_size
PUBLIC	?_Destroy@?$vector@PBVPathArgument@Json@@V?$allocator@PBVPathArgument@Json@@@std@@@std@@IAEXPAPBVPathArgument@Json@@0@Z ; std::vector<Json::PathArgument const *,std::allocator<Json::PathArgument const *> >::_Destroy
PUBLIC	?_Grow_to@?$vector@PBVPathArgument@Json@@V?$allocator@PBVPathArgument@Json@@@std@@@std@@IBEII@Z ; std::vector<Json::PathArgument const *,std::allocator<Json::PathArgument const *> >::_Grow_to
PUBLIC	?_Inside@?$vector@PBVPathArgument@Json@@V?$allocator@PBVPathArgument@Json@@@std@@@std@@IBE_NPBQBVPathArgument@Json@@@Z ; std::vector<Json::PathArgument const *,std::allocator<Json::PathArgument const *> >::_Inside
PUBLIC	?_Reallocate@?$vector@PBVPathArgument@Json@@V?$allocator@PBVPathArgument@Json@@@std@@@std@@IAEXI@Z ; std::vector<Json::PathArgument const *,std::allocator<Json::PathArgument const *> >::_Reallocate
PUBLIC	?_Reserve@?$vector@PBVPathArgument@Json@@V?$allocator@PBVPathArgument@Json@@@std@@@std@@IAEXI@Z ; std::vector<Json::PathArgument const *,std::allocator<Json::PathArgument const *> >::_Reserve
PUBLIC	?_Tidy@?$vector@PBVPathArgument@Json@@V?$allocator@PBVPathArgument@Json@@@std@@@std@@IAEXXZ ; std::vector<Json::PathArgument const *,std::allocator<Json::PathArgument const *> >::_Tidy
PUBLIC	?_Xlen@?$vector@PBVPathArgument@Json@@V?$allocator@PBVPathArgument@Json@@@std@@@std@@IBEXXZ ; std::vector<Json::PathArgument const *,std::allocator<Json::PathArgument const *> >::_Xlen
PUBLIC	?_Orphan_range@?$vector@PBVPathArgument@Json@@V?$allocator@PBVPathArgument@Json@@@std@@@std@@IBEXPAPBVPathArgument@Json@@0@Z ; std::vector<Json::PathArgument const *,std::allocator<Json::PathArgument const *> >::_Orphan_range
PUBLIC	?addPathInArg@Path@Json@@AAEXABV?$basic_string@DU?$char_traits@D@std@@V?$allocator@D@2@@std@@ABV?$vector@PBVPathArgument@Json@@V?$allocator@PBVPathArgument@Json@@@std@@@4@AAV?$_Vector_const_iterator@V?$_Vector_val@U?$_Simple_types@PBVPathArgument@Json@@@std@@@std@@@4@W4Kind@PathArgument@2@@Z ; Json::Path::addPathInArg
PUBLIC	?invalidPath@Path@Json@@AAEXABV?$basic_string@DU?$char_traits@D@std@@V?$allocator@D@2@@std@@H@Z ; Json::Path::invalidPath
PUBLIC	??0?$allocator@VPathArgument@Json@@@std@@QAE@XZ	; std::allocator<Json::PathArgument>::allocator<Json::PathArgument>
PUBLIC	?deallocate@?$allocator@VPathArgument@Json@@@std@@QAEXPAVPathArgument@Json@@I@Z ; std::allocator<Json::PathArgument>::deallocate
PUBLIC	?allocate@?$allocator@VPathArgument@Json@@@std@@QAEPAVPathArgument@Json@@I@Z ; std::allocator<Json::PathArgument>::allocate
PUBLIC	?construct@?$allocator@VPathArgument@Json@@@std@@QAEXPAVPathArgument@Json@@ABV34@@Z ; std::allocator<Json::PathArgument>::construct
PUBLIC	?max_size@?$allocator@VPathArgument@Json@@@std@@QBEIXZ ; std::allocator<Json::PathArgument>::max_size
PUBLIC	?max_size@?$allocator_traits@V?$allocator@VPathArgument@Json@@@std@@@std@@SAIABV?$allocator@VPathArgument@Json@@@2@@Z ; std::allocator_traits<std::allocator<Json::PathArgument> >::max_size
PUBLIC	??0?$_Wrap_alloc@V?$allocator@VPathArgument@Json@@@std@@@std@@QAE@XZ ; std::_Wrap_alloc<std::allocator<Json::PathArgument> >::_Wrap_alloc<std::allocator<Json::PathArgument> >
PUBLIC	?allocate@?$_Wrap_alloc@V?$allocator@VPathArgument@Json@@@std@@@std@@QAEPAVPathArgument@Json@@I@Z ; std::_Wrap_alloc<std::allocator<Json::PathArgument> >::allocate
PUBLIC	?deallocate@?$_Wrap_alloc@V?$allocator@VPathArgument@Json@@@std@@@std@@QAEXPAVPathArgument@Json@@I@Z ; std::_Wrap_alloc<std::allocator<Json::PathArgument> >::deallocate
PUBLIC	?max_size@?$_Wrap_alloc@V?$allocator@VPathArgument@Json@@@std@@@std@@QBEIXZ ; std::_Wrap_alloc<std::allocator<Json::PathArgument> >::max_size
PUBLIC	??0?$_Vector_val@U?$_Simple_types@VPathArgument@Json@@@std@@@std@@QAE@XZ ; std::_Vector_val<std::_Simple_types<Json::PathArgument> >::_Vector_val<std::_Simple_types<Json::PathArgument> >
PUBLIC	??0?$_Vector_alloc@$0A@U?$_Vec_base_types@VPathArgument@Json@@V?$allocator@VPathArgument@Json@@@std@@@std@@@std@@QAE@ABV?$allocator@VPathArgument@Json@@@1@@Z ; std::_Vector_alloc<0,std::_Vec_base_types<Json::PathArgument,std::allocator<Json::PathArgument> > >::_Vector_alloc<0,std::_Vec_base_types<Json::PathArgument,std::allocator<Json::PathArgument> > >
PUBLIC	?_Getal@?$_Vector_alloc@$0A@U?$_Vec_base_types@VPathArgument@Json@@V?$allocator@VPathArgument@Json@@@std@@@std@@@std@@QBE?AU?$_Wrap_alloc@V?$allocator@VPathArgument@Json@@@std@@@2@XZ ; std::_Vector_alloc<0,std::_Vec_base_types<Json::PathArgument,std::allocator<Json::PathArgument> > >::_Getal
PUBLIC	??0?$vector@VPathArgument@Json@@V?$allocator@VPathArgument@Json@@@std@@@std@@QAE@XZ ; std::vector<Json::PathArgument,std::allocator<Json::PathArgument> >::vector<Json::PathArgument,std::allocator<Json::PathArgument> >
PUBLIC	?push_back@?$vector@VPathArgument@Json@@V?$allocator@VPathArgument@Json@@@std@@@std@@QAEX$$QAVPathArgument@Json@@@Z ; std::vector<Json::PathArgument,std::allocator<Json::PathArgument> >::push_back
PUBLIC	??1?$vector@VPathArgument@Json@@V?$allocator@VPathArgument@Json@@@std@@@std@@QAE@XZ ; std::vector<Json::PathArgument,std::allocator<Json::PathArgument> >::~vector<Json::PathArgument,std::allocator<Json::PathArgument> >
PUBLIC	?capacity@?$vector@VPathArgument@Json@@V?$allocator@VPathArgument@Json@@@std@@@std@@QBEIXZ ; std::vector<Json::PathArgument,std::allocator<Json::PathArgument> >::capacity
PUBLIC	?_Unused_capacity@?$vector@VPathArgument@Json@@V?$allocator@VPathArgument@Json@@@std@@@std@@QBEIXZ ; std::vector<Json::PathArgument,std::allocator<Json::PathArgument> >::_Unused_capacity
PUBLIC	?begin@?$vector@VPathArgument@Json@@V?$allocator@VPathArgument@Json@@@std@@@std@@QBE?AV?$_Vector_const_iterator@V?$_Vector_val@U?$_Simple_types@VPathArgument@Json@@@std@@@std@@@2@XZ ; std::vector<Json::PathArgument,std::allocator<Json::PathArgument> >::begin
PUBLIC	?end@?$vector@VPathArgument@Json@@V?$allocator@VPathArgument@Json@@@std@@@std@@QBE?AV?$_Vector_const_iterator@V?$_Vector_val@U?$_Simple_types@VPathArgument@Json@@@std@@@std@@@2@XZ ; std::vector<Json::PathArgument,std::allocator<Json::PathArgument> >::end
PUBLIC	?size@?$vector@VPathArgument@Json@@V?$allocator@VPathArgument@Json@@@std@@@std@@QBEIXZ ; std::vector<Json::PathArgument,std::allocator<Json::PathArgument> >::size
PUBLIC	?max_size@?$vector@VPathArgument@Json@@V?$allocator@VPathArgument@Json@@@std@@@std@@QBEIXZ ; std::vector<Json::PathArgument,std::allocator<Json::PathArgument> >::max_size
PUBLIC	?push_back@?$vector@VPathArgument@Json@@V?$allocator@VPathArgument@Json@@@std@@@std@@QAEXABVPathArgument@Json@@@Z ; std::vector<Json::PathArgument,std::allocator<Json::PathArgument> >::push_back
PUBLIC	?_Destroy@?$vector@VPathArgument@Json@@V?$allocator@VPathArgument@Json@@@std@@@std@@IAEXPAVPathArgument@Json@@0@Z ; std::vector<Json::PathArgument,std::allocator<Json::PathArgument> >::_Destroy
PUBLIC	?_Grow_to@?$vector@VPathArgument@Json@@V?$allocator@VPathArgument@Json@@@std@@@std@@IBEII@Z ; std::vector<Json::PathArgument,std::allocator<Json::PathArgument> >::_Grow_to
PUBLIC	?_Inside@?$vector@VPathArgument@Json@@V?$allocator@VPathArgument@Json@@@std@@@std@@IBE_NPBVPathArgument@Json@@@Z ; std::vector<Json::PathArgument,std::allocator<Json::PathArgument> >::_Inside
PUBLIC	?_Reallocate@?$vector@VPathArgument@Json@@V?$allocator@VPathArgument@Json@@@std@@@std@@IAEXI@Z ; std::vector<Json::PathArgument,std::allocator<Json::PathArgument> >::_Reallocate
PUBLIC	?_Reserve@?$vector@VPathArgument@Json@@V?$allocator@VPathArgument@Json@@@std@@@std@@IAEXI@Z ; std::vector<Json::PathArgument,std::allocator<Json::PathArgument> >::_Reserve
PUBLIC	?_Tidy@?$vector@VPathArgument@Json@@V?$allocator@VPathArgument@Json@@@std@@@std@@IAEXXZ ; std::vector<Json::PathArgument,std::allocator<Json::PathArgument> >::_Tidy
PUBLIC	?_Xlen@?$vector@VPathArgument@Json@@V?$allocator@VPathArgument@Json@@@std@@@std@@IBEXXZ ; std::vector<Json::PathArgument,std::allocator<Json::PathArgument> >::_Xlen
PUBLIC	?_Orphan_range@?$vector@VPathArgument@Json@@V?$allocator@VPathArgument@Json@@@std@@@std@@IBEXPAVPathArgument@Json@@0@Z ; std::vector<Json::PathArgument,std::allocator<Json::PathArgument> >::_Orphan_range
PUBLIC	??1ValueAllocator@Json@@UAE@XZ			; Json::ValueAllocator::~ValueAllocator
PUBLIC	??0ValueAllocator@Json@@QAE@XZ			; Json::ValueAllocator::ValueAllocator
PUBLIC	??_GValueAllocator@Json@@UAEPAXI@Z		; Json::ValueAllocator::`scalar deleting destructor'
PUBLIC	??0ValueIteratorBase@Json@@QAE@XZ		; Json::ValueIteratorBase::ValueIteratorBase
PUBLIC	??R?$less@VCZString@Value@Json@@@std@@QBE_NABVCZString@Value@Json@@0@Z ; std::less<Json::Value::CZString>::operator()
PUBLIC	??0?$allocator@U?$pair@$$CBVCZString@Value@Json@@V23@@std@@@std@@QAE@XZ ; std::allocator<std::pair<Json::Value::CZString const ,Json::Value> >::allocator<std::pair<Json::Value::CZString const ,Json::Value> >
PUBLIC	?select_on_container_copy_construction@?$allocator@U?$_Tree_node@U?$pair@$$CBVCZString@Value@Json@@V23@@std@@PAX@std@@@std@@QBE?AV12@XZ ; std::allocator<std::_Tree_node<std::pair<Json::Value::CZString const ,Json::Value>,void *> >::select_on_container_copy_construction
PUBLIC	??0?$allocator@U?$_Tree_node@U?$pair@$$CBVCZString@Value@Json@@V23@@std@@PAX@std@@@std@@QAE@XZ ; std::allocator<std::_Tree_node<std::pair<Json::Value::CZString const ,Json::Value>,void *> >::allocator<std::_Tree_node<std::pair<Json::Value::CZString const ,Json::Value>,void *> >
PUBLIC	??0?$allocator@U?$_Tree_node@U?$pair@$$CBVCZString@Value@Json@@V23@@std@@PAX@std@@@std@@QAE@ABV01@@Z ; std::allocator<std::_Tree_node<std::pair<Json::Value::CZString const ,Json::Value>,void *> >::allocator<std::_Tree_node<std::pair<Json::Value::CZString const ,Json::Value>,void *> >
PUBLIC	?deallocate@?$allocator@U?$_Tree_node@U?$pair@$$CBVCZString@Value@Json@@V23@@std@@PAX@std@@@std@@QAEXPAU?$_Tree_node@U?$pair@$$CBVCZString@Value@Json@@V23@@std@@PAX@2@I@Z ; std::allocator<std::_Tree_node<std::pair<Json::Value::CZString const ,Json::Value>,void *> >::deallocate
PUBLIC	?allocate@?$allocator@U?$_Tree_node@U?$pair@$$CBVCZString@Value@Json@@V23@@std@@PAX@std@@@std@@QAEPAU?$_Tree_node@U?$pair@$$CBVCZString@Value@Json@@V23@@std@@PAX@2@I@Z ; std::allocator<std::_Tree_node<std::pair<Json::Value::CZString const ,Json::Value>,void *> >::allocate
PUBLIC	?max_size@?$allocator@U?$_Tree_node@U?$pair@$$CBVCZString@Value@Json@@V23@@std@@PAX@std@@@std@@QBEIXZ ; std::allocator<std::_Tree_node<std::pair<Json::Value::CZString const ,Json::Value>,void *> >::max_size
PUBLIC	?max_size@?$allocator_traits@V?$allocator@U?$_Tree_node@U?$pair@$$CBVCZString@Value@Json@@V23@@std@@PAX@std@@@std@@@std@@SAIABV?$allocator@U?$_Tree_node@U?$pair@$$CBVCZString@Value@Json@@V23@@std@@PAX@std@@@2@@Z ; std::allocator_traits<std::allocator<std::_Tree_node<std::pair<Json::Value::CZString const ,Json::Value>,void *> > >::max_size
PUBLIC	?select_on_container_copy_construction@?$allocator_traits@V?$allocator@U?$_Tree_node@U?$pair@$$CBVCZString@Value@Json@@V23@@std@@PAX@std@@@std@@@std@@SA?AV?$allocator@U?$_Tree_node@U?$pair@$$CBVCZString@Value@Json@@V23@@std@@PAX@std@@@2@ABV32@@Z ; std::allocator_traits<std::allocator<std::_Tree_node<std::pair<Json::Value::CZString const ,Json::Value>,void *> > >::select_on_container_copy_construction
PUBLIC	?select_on_container_copy_construction@?$_Wrap_alloc@V?$allocator@U?$_Tree_node@U?$pair@$$CBVCZString@Value@Json@@V23@@std@@PAX@std@@@std@@@std@@QBE?AU12@XZ ; std::_Wrap_alloc<std::allocator<std::_Tree_node<std::pair<Json::Value::CZString const ,Json::Value>,void *> > >::select_on_container_copy_construction
PUBLIC	??0?$_Wrap_alloc@V?$allocator@U?$_Tree_node@U?$pair@$$CBVCZString@Value@Json@@V23@@std@@PAX@std@@@std@@@std@@QAE@XZ ; std::_Wrap_alloc<std::allocator<std::_Tree_node<std::pair<Json::Value::CZString const ,Json::Value>,void *> > >::_Wrap_alloc<std::allocator<std::_Tree_node<std::pair<Json::Value::CZString const ,Json::Value>,void *> > >
PUBLIC	??0?$_Wrap_alloc@V?$allocator@U?$_Tree_node@U?$pair@$$CBVCZString@Value@Json@@V23@@std@@PAX@std@@@std@@@std@@QAE@ABV?$allocator@U?$_Tree_node@U?$pair@$$CBVCZString@Value@Json@@V23@@std@@PAX@std@@@1@@Z ; std::_Wrap_alloc<std::allocator<std::_Tree_node<std::pair<Json::Value::CZString const ,Json::Value>,void *> > >::_Wrap_alloc<std::allocator<std::_Tree_node<std::pair<Json::Value::CZString const ,Json::Value>,void *> > >
PUBLIC	?allocate@?$_Wrap_alloc@V?$allocator@U?$_Tree_node@U?$pair@$$CBVCZString@Value@Json@@V23@@std@@PAX@std@@@std@@@std@@QAEPAU?$_Tree_node@U?$pair@$$CBVCZString@Value@Json@@V23@@std@@PAX@2@I@Z ; std::_Wrap_alloc<std::allocator<std::_Tree_node<std::pair<Json::Value::CZString const ,Json::Value>,void *> > >::allocate
PUBLIC	?deallocate@?$_Wrap_alloc@V?$allocator@U?$_Tree_node@U?$pair@$$CBVCZString@Value@Json@@V23@@std@@PAX@std@@@std@@@std@@QAEXPAU?$_Tree_node@U?$pair@$$CBVCZString@Value@Json@@V23@@std@@PAX@2@I@Z ; std::_Wrap_alloc<std::allocator<std::_Tree_node<std::pair<Json::Value::CZString const ,Json::Value>,void *> > >::deallocate
PUBLIC	?max_size@?$_Wrap_alloc@V?$allocator@U?$_Tree_node@U?$pair@$$CBVCZString@Value@Json@@V23@@std@@PAX@std@@@std@@@std@@QBEIXZ ; std::_Wrap_alloc<std::allocator<std::_Tree_node<std::pair<Json::Value::CZString const ,Json::Value>,void *> > >::max_size
PUBLIC	??0?$_Tree_val@U?$_Tree_simple_types@U?$pair@$$CBVCZString@Value@Json@@V23@@std@@@std@@@std@@QAE@XZ ; std::_Tree_val<std::_Tree_simple_types<std::pair<Json::Value::CZString const ,Json::Value> > >::_Tree_val<std::_Tree_simple_types<std::pair<Json::Value::CZString const ,Json::Value> > >
PUBLIC	?_Color@?$_Tree_val@U?$_Tree_simple_types@U?$pair@$$CBVCZString@Value@Json@@V23@@std@@@std@@@std@@SAAADPAU?$_Tree_node@U?$pair@$$CBVCZString@Value@Json@@V23@@std@@PAX@2@@Z ; std::_Tree_val<std::_Tree_simple_types<std::pair<Json::Value::CZString const ,Json::Value> > >::_Color
PUBLIC	?_Isnil@?$_Tree_val@U?$_Tree_simple_types@U?$pair@$$CBVCZString@Value@Json@@V23@@std@@@std@@@std@@SAAADPAU?$_Tree_node@U?$pair@$$CBVCZString@Value@Json@@V23@@std@@PAX@2@@Z ; std::_Tree_val<std::_Tree_simple_types<std::pair<Json::Value::CZString const ,Json::Value> > >::_Isnil
PUBLIC	?_Left@?$_Tree_val@U?$_Tree_simple_types@U?$pair@$$CBVCZString@Value@Json@@V23@@std@@@std@@@std@@SAAAPAU?$_Tree_node@U?$pair@$$CBVCZString@Value@Json@@V23@@std@@PAX@2@PAU32@@Z ; std::_Tree_val<std::_Tree_simple_types<std::pair<Json::Value::CZString const ,Json::Value> > >::_Left
PUBLIC	?_Parent@?$_Tree_val@U?$_Tree_simple_types@U?$pair@$$CBVCZString@Value@Json@@V23@@std@@@std@@@std@@SAAAPAU?$_Tree_node@U?$pair@$$CBVCZString@Value@Json@@V23@@std@@PAX@2@PAU32@@Z ; std::_Tree_val<std::_Tree_simple_types<std::pair<Json::Value::CZString const ,Json::Value> > >::_Parent
PUBLIC	?_Right@?$_Tree_val@U?$_Tree_simple_types@U?$pair@$$CBVCZString@Value@Json@@V23@@std@@@std@@@std@@SAAAPAU?$_Tree_node@U?$pair@$$CBVCZString@Value@Json@@V23@@std@@PAX@2@PAU32@@Z ; std::_Tree_val<std::_Tree_simple_types<std::pair<Json::Value::CZString const ,Json::Value> > >::_Right
PUBLIC	?_Myval@?$_Tree_val@U?$_Tree_simple_types@U?$pair@$$CBVCZString@Value@Json@@V23@@std@@@std@@@std@@SAAAU?$pair@$$CBVCZString@Value@Json@@V23@@2@PAU?$_Tree_node@U?$pair@$$CBVCZString@Value@Json@@V23@@std@@PAX@2@@Z ; std::_Tree_val<std::_Tree_simple_types<std::pair<Json::Value::CZString const ,Json::Value> > >::_Myval
PUBLIC	?_Max@?$_Tree_val@U?$_Tree_simple_types@U?$pair@$$CBVCZString@Value@Json@@V23@@std@@@std@@@std@@SAPAU?$_Tree_node@U?$pair@$$CBVCZString@Value@Json@@V23@@std@@PAX@2@PAU32@@Z ; std::_Tree_val<std::_Tree_simple_types<std::pair<Json::Value::CZString const ,Json::Value> > >::_Max
PUBLIC	?_Min@?$_Tree_val@U?$_Tree_simple_types@U?$pair@$$CBVCZString@Value@Json@@V23@@std@@@std@@@std@@SAPAU?$_Tree_node@U?$pair@$$CBVCZString@Value@Json@@V23@@std@@PAX@2@PAU32@@Z ; std::_Tree_val<std::_Tree_simple_types<std::pair<Json::Value::CZString const ,Json::Value> > >::_Min
PUBLIC	??0?$_Tree_alloc@$0A@U?$_Tree_base_types@U?$pair@$$CBVCZString@Value@Json@@V23@@std@@V?$allocator@U?$pair@$$CBVCZString@Value@Json@@V23@@std@@@2@@std@@@std@@QAE@ABV?$allocator@U?$pair@$$CBVCZString@Value@Json@@V23@@std@@@1@@Z ; std::_Tree_alloc<0,std::_Tree_base_types<std::pair<Json::Value::CZString const ,Json::Value>,std::allocator<std::pair<Json::Value::CZString const ,Json::Value> > > >::_Tree_alloc<0,std::_Tree_base_types<std::pair<Json::Value::CZString const ,Json::Value>,std::allocator<std::pair<Json::Value::CZString const ,Json::Value> > > >
PUBLIC	??1?$_Tree_alloc@$0A@U?$_Tree_base_types@U?$pair@$$CBVCZString@Value@Json@@V23@@std@@V?$allocator@U?$pair@$$CBVCZString@Value@Json@@V23@@std@@@2@@std@@@std@@QAE@XZ ; std::_Tree_alloc<0,std::_Tree_base_types<std::pair<Json::Value::CZString const ,Json::Value>,std::allocator<std::pair<Json::Value::CZString const ,Json::Value> > > >::~_Tree_alloc<0,std::_Tree_base_types<std::pair<Json::Value::CZString const ,Json::Value>,std::allocator<std::pair<Json::Value::CZString const ,Json::Value> > > >
PUBLIC	?_Buyheadnode@?$_Tree_alloc@$0A@U?$_Tree_base_types@U?$pair@$$CBVCZString@Value@Json@@V23@@std@@V?$allocator@U?$pair@$$CBVCZString@Value@Json@@V23@@std@@@2@@std@@@std@@QAEPAU?$_Tree_node@U?$pair@$$CBVCZString@Value@Json@@V23@@std@@PAX@2@XZ ; std::_Tree_alloc<0,std::_Tree_base_types<std::pair<Json::Value::CZString const ,Json::Value>,std::allocator<std::pair<Json::Value::CZString const ,Json::Value> > > >::_Buyheadnode
PUBLIC	?_Freeheadnode@?$_Tree_alloc@$0A@U?$_Tree_base_types@U?$pair@$$CBVCZString@Value@Json@@V23@@std@@V?$allocator@U?$pair@$$CBVCZString@Value@Json@@V23@@std@@@2@@std@@@std@@QAEXPAU?$_Tree_node@U?$pair@$$CBVCZString@Value@Json@@V23@@std@@PAX@2@@Z ; std::_Tree_alloc<0,std::_Tree_base_types<std::pair<Json::Value::CZString const ,Json::Value>,std::allocator<std::pair<Json::Value::CZString const ,Json::Value> > > >::_Freeheadnode
PUBLIC	?_Getal@?$_Tree_alloc@$0A@U?$_Tree_base_types@U?$pair@$$CBVCZString@Value@Json@@V23@@std@@V?$allocator@U?$pair@$$CBVCZString@Value@Json@@V23@@std@@@2@@std@@@std@@QBE?AU?$_Wrap_alloc@V?$allocator@U?$_Tree_node@U?$pair@$$CBVCZString@Value@Json@@V23@@std@@PAX@std@@@std@@@2@XZ ; std::_Tree_alloc<0,std::_Tree_base_types<std::pair<Json::Value::CZString const ,Json::Value>,std::allocator<std::pair<Json::Value::CZString const ,Json::Value> > > >::_Getal
PUBLIC	??0?$_Tree_buy@U?$pair@$$CBVCZString@Value@Json@@V23@@std@@V?$allocator@U?$pair@$$CBVCZString@Value@Json@@V23@@std@@@2@@std@@QAE@ABV?$allocator@U?$pair@$$CBVCZString@Value@Json@@V23@@std@@@1@@Z ; std::_Tree_buy<std::pair<Json::Value::CZString const ,Json::Value>,std::allocator<std::pair<Json::Value::CZString const ,Json::Value> > >::_Tree_buy<std::pair<Json::Value::CZString const ,Json::Value>,std::allocator<std::pair<Json::Value::CZString const ,Json::Value> > >
PUBLIC	?_Buynode0@?$_Tree_buy@U?$pair@$$CBVCZString@Value@Json@@V23@@std@@V?$allocator@U?$pair@$$CBVCZString@Value@Json@@V23@@std@@@2@@std@@QAEPAU?$_Tree_node@U?$pair@$$CBVCZString@Value@Json@@V23@@std@@PAX@2@XZ ; std::_Tree_buy<std::pair<Json::Value::CZString const ,Json::Value>,std::allocator<std::pair<Json::Value::CZString const ,Json::Value> > >::_Buynode0
PUBLIC	?_Freenode0@?$_Tree_buy@U?$pair@$$CBVCZString@Value@Json@@V23@@std@@V?$allocator@U?$pair@$$CBVCZString@Value@Json@@V23@@std@@@2@@std@@QAEXPAU?$_Tree_node@U?$pair@$$CBVCZString@Value@Json@@V23@@std@@PAX@2@@Z ; std::_Tree_buy<std::pair<Json::Value::CZString const ,Json::Value>,std::allocator<std::pair<Json::Value::CZString const ,Json::Value> > >::_Freenode0
PUBLIC	??1?$_Tree_buy@U?$pair@$$CBVCZString@Value@Json@@V23@@std@@V?$allocator@U?$pair@$$CBVCZString@Value@Json@@V23@@std@@@2@@std@@QAE@XZ ; std::_Tree_buy<std::pair<Json::Value::CZString const ,Json::Value>,std::allocator<std::pair<Json::Value::CZString const ,Json::Value> > >::~_Tree_buy<std::pair<Json::Value::CZString const ,Json::Value>,std::allocator<std::pair<Json::Value::CZString const ,Json::Value> > >
PUBLIC	??0?$_Tree_comp@$0A@V?$_Tmap_traits@VCZString@Value@Json@@V23@U?$less@VCZString@Value@Json@@@std@@V?$allocator@U?$pair@$$CBVCZString@Value@Json@@V23@@std@@@5@$0A@@std@@@std@@QAE@ABU?$less@VCZString@Value@Json@@@1@ABV?$allocator@U?$pair@$$CBVCZString@Value@Json@@V23@@std@@@1@@Z ; std::_Tree_comp<0,std::_Tmap_traits<Json::Value::CZString,Json::Value,std::less<Json::Value::CZString>,std::allocator<std::pair<Json::Value::CZString const ,Json::Value> >,0> >::_Tree_comp<0,std::_Tmap_traits<Json::Value::CZString,Json::Value,std::less<Json::Value::CZString>,std::allocator<std::pair<Json::Value::CZString const ,Json::Value> >,0> >
PUBLIC	?_Getcomp@?$_Tree_comp@$0A@V?$_Tmap_traits@VCZString@Value@Json@@V23@U?$less@VCZString@Value@Json@@@std@@V?$allocator@U?$pair@$$CBVCZString@Value@Json@@V23@@std@@@5@$0A@@std@@@std@@QBE?AU?$less@VCZString@Value@Json@@@2@XZ ; std::_Tree_comp<0,std::_Tmap_traits<Json::Value::CZString,Json::Value,std::less<Json::Value::CZString>,std::allocator<std::pair<Json::Value::CZString const ,Json::Value> >,0> >::_Getcomp
PUBLIC	??1?$_Tree_comp@$0A@V?$_Tmap_traits@VCZString@Value@Json@@V23@U?$less@VCZString@Value@Json@@@std@@V?$allocator@U?$pair@$$CBVCZString@Value@Json@@V23@@std@@@5@$0A@@std@@@std@@QAE@XZ ; std::_Tree_comp<0,std::_Tmap_traits<Json::Value::CZString,Json::Value,std::less<Json::Value::CZString>,std::allocator<std::pair<Json::Value::CZString const ,Json::Value> >,0> >::~_Tree_comp<0,std::_Tmap_traits<Json::Value::CZString,Json::Value,std::less<Json::Value::CZString>,std::allocator<std::pair<Json::Value::CZString const ,Json::Value> >,0> >
PUBLIC	??0?$_Tree@V?$_Tmap_traits@VCZString@Value@Json@@V23@U?$less@VCZString@Value@Json@@@std@@V?$allocator@U?$pair@$$CBVCZString@Value@Json@@V23@@std@@@5@$0A@@std@@@std@@QAE@ABU?$less@VCZString@Value@Json@@@1@ABV?$allocator@U?$pair@$$CBVCZString@Value@Json@@V23@@std@@@1@@Z ; std::_Tree<std::_Tmap_traits<Json::Value::CZString,Json::Value,std::less<Json::Value::CZString>,std::allocator<std::pair<Json::Value::CZString const ,Json::Value> >,0> >::_Tree<std::_Tmap_traits<Json::Value::CZString,Json::Value,std::less<Json::Value::CZString>,std::allocator<std::pair<Json::Value::CZString const ,Json::Value> >,0> >
PUBLIC	??0?$_Tree@V?$_Tmap_traits@VCZString@Value@Json@@V23@U?$less@VCZString@Value@Json@@@std@@V?$allocator@U?$pair@$$CBVCZString@Value@Json@@V23@@std@@@5@$0A@@std@@@std@@QAE@ABV01@ABV?$allocator@U?$pair@$$CBVCZString@Value@Json@@V23@@std@@@1@@Z ; std::_Tree<std::_Tmap_traits<Json::Value::CZString,Json::Value,std::less<Json::Value::CZString>,std::allocator<std::pair<Json::Value::CZString const ,Json::Value> >,0> >::_Tree<std::_Tmap_traits<Json::Value::CZString,Json::Value,std::less<Json::Value::CZString>,std::allocator<std::pair<Json::Value::CZString const ,Json::Value> >,0> >
PUBLIC	??1?$_Tree@V?$_Tmap_traits@VCZString@Value@Json@@V23@U?$less@VCZString@Value@Json@@@std@@V?$allocator@U?$pair@$$CBVCZString@Value@Json@@V23@@std@@@5@$0A@@std@@@std@@QAE@XZ ; std::_Tree<std::_Tmap_traits<Json::Value::CZString,Json::Value,std::less<Json::Value::CZString>,std::allocator<std::pair<Json::Value::CZString const ,Json::Value> >,0> >::~_Tree<std::_Tmap_traits<Json::Value::CZString,Json::Value,std::less<Json::Value::CZString>,std::allocator<std::pair<Json::Value::CZString const ,Json::Value> >,0> >
PUBLIC	?begin@?$_Tree@V?$_Tmap_traits@VCZString@Value@Json@@V23@U?$less@VCZString@Value@Json@@@std@@V?$allocator@U?$pair@$$CBVCZString@Value@Json@@V23@@std@@@5@$0A@@std@@@std@@QAE?AV?$_Tree_iterator@V?$_Tree_val@U?$_Tree_simple_types@U?$pair@$$CBVCZString@Value@Json@@V23@@std@@@std@@@std@@@2@XZ ; std::_Tree<std::_Tmap_traits<Json::Value::CZString,Json::Value,std::less<Json::Value::CZString>,std::allocator<std::pair<Json::Value::CZString const ,Json::Value> >,0> >::begin
PUBLIC	?begin@?$_Tree@V?$_Tmap_traits@VCZString@Value@Json@@V23@U?$less@VCZString@Value@Json@@@std@@V?$allocator@U?$pair@$$CBVCZString@Value@Json@@V23@@std@@@5@$0A@@std@@@std@@QBE?AV?$_Tree_const_iterator@V?$_Tree_val@U?$_Tree_simple_types@U?$pair@$$CBVCZString@Value@Json@@V23@@std@@@std@@@std@@@2@XZ ; std::_Tree<std::_Tmap_traits<Json::Value::CZString,Json::Value,std::less<Json::Value::CZString>,std::allocator<std::pair<Json::Value::CZString const ,Json::Value> >,0> >::begin
PUBLIC	?end@?$_Tree@V?$_Tmap_traits@VCZString@Value@Json@@V23@U?$less@VCZString@Value@Json@@@std@@V?$allocator@U?$pair@$$CBVCZString@Value@Json@@V23@@std@@@5@$0A@@std@@@std@@QAE?AV?$_Tree_iterator@V?$_Tree_val@U?$_Tree_simple_types@U?$pair@$$CBVCZString@Value@Json@@V23@@std@@@std@@@std@@@2@XZ ; std::_Tree<std::_Tmap_traits<Json::Value::CZString,Json::Value,std::less<Json::Value::CZString>,std::allocator<std::pair<Json::Value::CZString const ,Json::Value> >,0> >::end
PUBLIC	?end@?$_Tree@V?$_Tmap_traits@VCZString@Value@Json@@V23@U?$less@VCZString@Value@Json@@@std@@V?$allocator@U?$pair@$$CBVCZString@Value@Json@@V23@@std@@@5@$0A@@std@@@std@@QBE?AV?$_Tree_const_iterator@V?$_Tree_val@U?$_Tree_simple_types@U?$pair@$$CBVCZString@Value@Json@@V23@@std@@@std@@@std@@@2@XZ ; std::_Tree<std::_Tmap_traits<Json::Value::CZString,Json::Value,std::less<Json::Value::CZString>,std::allocator<std::pair<Json::Value::CZString const ,Json::Value> >,0> >::end
PUBLIC	?size@?$_Tree@V?$_Tmap_traits@VCZString@Value@Json@@V23@U?$less@VCZString@Value@Json@@@std@@V?$allocator@U?$pair@$$CBVCZString@Value@Json@@V23@@std@@@5@$0A@@std@@@std@@QBEIXZ ; std::_Tree<std::_Tmap_traits<Json::Value::CZString,Json::Value,std::less<Json::Value::CZString>,std::allocator<std::pair<Json::Value::CZString const ,Json::Value> >,0> >::size
PUBLIC	?max_size@?$_Tree@V?$_Tmap_traits@VCZString@Value@Json@@V23@U?$less@VCZString@Value@Json@@@std@@V?$allocator@U?$pair@$$CBVCZString@Value@Json@@V23@@std@@@5@$0A@@std@@@std@@QBEIXZ ; std::_Tree<std::_Tmap_traits<Json::Value::CZString,Json::Value,std::less<Json::Value::CZString>,std::allocator<std::pair<Json::Value::CZString const ,Json::Value> >,0> >::max_size
PUBLIC	?empty@?$_Tree@V?$_Tmap_traits@VCZString@Value@Json@@V23@U?$less@VCZString@Value@Json@@@std@@V?$allocator@U?$pair@$$CBVCZString@Value@Json@@V23@@std@@@5@$0A@@std@@@std@@QBE_NXZ ; std::_Tree<std::_Tmap_traits<Json::Value::CZString,Json::Value,std::less<Json::Value::CZString>,std::allocator<std::pair<Json::Value::CZString const ,Json::Value> >,0> >::empty
PUBLIC	?key_comp@?$_Tree@V?$_Tmap_traits@VCZString@Value@Json@@V23@U?$less@VCZString@Value@Json@@@std@@V?$allocator@U?$pair@$$CBVCZString@Value@Json@@V23@@std@@@5@$0A@@std@@@std@@QBE?AU?$less@VCZString@Value@Json@@@2@XZ ; std::_Tree<std::_Tmap_traits<Json::Value::CZString,Json::Value,std::less<Json::Value::CZString>,std::allocator<std::pair<Json::Value::CZString const ,Json::Value> >,0> >::key_comp
PUBLIC	?erase@?$_Tree@V?$_Tmap_traits@VCZString@Value@Json@@V23@U?$less@VCZString@Value@Json@@@std@@V?$allocator@U?$pair@$$CBVCZString@Value@Json@@V23@@std@@@5@$0A@@std@@@std@@QAE?AV?$_Tree_iterator@V?$_Tree_val@U?$_Tree_simple_types@U?$pair@$$CBVCZString@Value@Json@@V23@@std@@@std@@@std@@@2@V?$_Tree_const_iterator@V?$_Tree_val@U?$_Tree_simple_types@U?$pair@$$CBVCZString@Value@Json@@V23@@std@@@std@@@std@@@2@@Z ; std::_Tree<std::_Tmap_traits<Json::Value::CZString,Json::Value,std::less<Json::Value::CZString>,std::allocator<std::pair<Json::Value::CZString const ,Json::Value> >,0> >::erase
PUBLIC	?erase@?$_Tree@V?$_Tmap_traits@VCZString@Value@Json@@V23@U?$less@VCZString@Value@Json@@@std@@V?$allocator@U?$pair@$$CBVCZString@Value@Json@@V23@@std@@@5@$0A@@std@@@std@@QAE?AV?$_Tree_iterator@V?$_Tree_val@U?$_Tree_simple_types@U?$pair@$$CBVCZString@Value@Json@@V23@@std@@@std@@@std@@@2@V?$_Tree_const_iterator@V?$_Tree_val@U?$_Tree_simple_types@U?$pair@$$CBVCZString@Value@Json@@V23@@std@@@std@@@std@@@2@0@Z ; std::_Tree<std::_Tmap_traits<Json::Value::CZString,Json::Value,std::less<Json::Value::CZString>,std::allocator<std::pair<Json::Value::CZString const ,Json::Value> >,0> >::erase
PUBLIC	?erase@?$_Tree@V?$_Tmap_traits@VCZString@Value@Json@@V23@U?$less@VCZString@Value@Json@@@std@@V?$allocator@U?$pair@$$CBVCZString@Value@Json@@V23@@std@@@5@$0A@@std@@@std@@QAEIABVCZString@Value@Json@@@Z ; std::_Tree<std::_Tmap_traits<Json::Value::CZString,Json::Value,std::less<Json::Value::CZString>,std::allocator<std::pair<Json::Value::CZString const ,Json::Value> >,0> >::erase
PUBLIC	?clear@?$_Tree@V?$_Tmap_traits@VCZString@Value@Json@@V23@U?$less@VCZString@Value@Json@@@std@@V?$allocator@U?$pair@$$CBVCZString@Value@Json@@V23@@std@@@5@$0A@@std@@@std@@QAEXXZ ; std::_Tree<std::_Tmap_traits<Json::Value::CZString,Json::Value,std::less<Json::Value::CZString>,std::allocator<std::pair<Json::Value::CZString const ,Json::Value> >,0> >::clear
PUBLIC	?find@?$_Tree@V?$_Tmap_traits@VCZString@Value@Json@@V23@U?$less@VCZString@Value@Json@@@std@@V?$allocator@U?$pair@$$CBVCZString@Value@Json@@V23@@std@@@5@$0A@@std@@@std@@QAE?AV?$_Tree_iterator@V?$_Tree_val@U?$_Tree_simple_types@U?$pair@$$CBVCZString@Value@Json@@V23@@std@@@std@@@std@@@2@ABVCZString@Value@Json@@@Z ; std::_Tree<std::_Tmap_traits<Json::Value::CZString,Json::Value,std::less<Json::Value::CZString>,std::allocator<std::pair<Json::Value::CZString const ,Json::Value> >,0> >::find
PUBLIC	?lower_bound@?$_Tree@V?$_Tmap_traits@VCZString@Value@Json@@V23@U?$less@VCZString@Value@Json@@@std@@V?$allocator@U?$pair@$$CBVCZString@Value@Json@@V23@@std@@@5@$0A@@std@@@std@@QAE?AV?$_Tree_iterator@V?$_Tree_val@U?$_Tree_simple_types@U?$pair@$$CBVCZString@Value@Json@@V23@@std@@@std@@@std@@@2@ABVCZString@Value@Json@@@Z ; std::_Tree<std::_Tmap_traits<Json::Value::CZString,Json::Value,std::less<Json::Value::CZString>,std::allocator<std::pair<Json::Value::CZString const ,Json::Value> >,0> >::lower_bound
PUBLIC	?equal_range@?$_Tree@V?$_Tmap_traits@VCZString@Value@Json@@V23@U?$less@VCZString@Value@Json@@@std@@V?$allocator@U?$pair@$$CBVCZString@Value@Json@@V23@@std@@@5@$0A@@std@@@std@@QAE?AU?$pair@V?$_Tree_iterator@V?$_Tree_val@U?$_Tree_simple_types@U?$pair@$$CBVCZString@Value@Json@@V23@@std@@@std@@@std@@@std@@V12@@2@ABVCZString@Value@Json@@@Z ; std::_Tree<std::_Tmap_traits<Json::Value::CZString,Json::Value,std::less<Json::Value::CZString>,std::allocator<std::pair<Json::Value::CZString const ,Json::Value> >,0> >::equal_range
PUBLIC	?_Destroy_if_not_nil@?$_Tree@V?$_Tmap_traits@VCZString@Value@Json@@V23@U?$less@VCZString@Value@Json@@@std@@V?$allocator@U?$pair@$$CBVCZString@Value@Json@@V23@@std@@@5@$0A@@std@@@std@@IAEXPAU?$_Tree_node@U?$pair@$$CBVCZString@Value@Json@@V23@@std@@PAX@2@@Z ; std::_Tree<std::_Tmap_traits<Json::Value::CZString,Json::Value,std::less<Json::Value::CZString>,std::allocator<std::pair<Json::Value::CZString const ,Json::Value> >,0> >::_Destroy_if_not_nil
PUBLIC	?_Eqrange@?$_Tree@V?$_Tmap_traits@VCZString@Value@Json@@V23@U?$less@VCZString@Value@Json@@@std@@V?$allocator@U?$pair@$$CBVCZString@Value@Json@@V23@@std@@@5@$0A@@std@@@std@@IAE?AU?$pair@V?$_Tree_iterator@V?$_Tree_val@U?$_Tree_simple_types@U?$pair@$$CBVCZString@Value@Json@@V23@@std@@@std@@@std@@@std@@V12@@2@ABVCZString@Value@Json@@@Z ; std::_Tree<std::_Tmap_traits<Json::Value::CZString,Json::Value,std::less<Json::Value::CZString>,std::allocator<std::pair<Json::Value::CZString const ,Json::Value> >,0> >::_Eqrange
PUBLIC	?_Erase@?$_Tree@V?$_Tmap_traits@VCZString@Value@Json@@V23@U?$less@VCZString@Value@Json@@@std@@V?$allocator@U?$pair@$$CBVCZString@Value@Json@@V23@@std@@@5@$0A@@std@@@std@@IAEXPAU?$_Tree_node@U?$pair@$$CBVCZString@Value@Json@@V23@@std@@PAX@2@@Z ; std::_Tree<std::_Tmap_traits<Json::Value::CZString,Json::Value,std::less<Json::Value::CZString>,std::allocator<std::pair<Json::Value::CZString const ,Json::Value> >,0> >::_Erase
PUBLIC	?_Lbound@?$_Tree@V?$_Tmap_traits@VCZString@Value@Json@@V23@U?$less@VCZString@Value@Json@@@std@@V?$allocator@U?$pair@$$CBVCZString@Value@Json@@V23@@std@@@5@$0A@@std@@@std@@IAEPAU?$_Tree_node@U?$pair@$$CBVCZString@Value@Json@@V23@@std@@PAX@2@ABVCZString@Value@Json@@@Z ; std::_Tree<std::_Tmap_traits<Json::Value::CZString,Json::Value,std::less<Json::Value::CZString>,std::allocator<std::pair<Json::Value::CZString const ,Json::Value> >,0> >::_Lbound
PUBLIC	?_Lmost@?$_Tree@V?$_Tmap_traits@VCZString@Value@Json@@V23@U?$less@VCZString@Value@Json@@@std@@V?$allocator@U?$pair@$$CBVCZString@Value@Json@@V23@@std@@@5@$0A@@std@@@std@@IBEAAPAU?$_Tree_node@U?$pair@$$CBVCZString@Value@Json@@V23@@std@@PAX@2@XZ ; std::_Tree<std::_Tmap_traits<Json::Value::CZString,Json::Value,std::less<Json::Value::CZString>,std::allocator<std::pair<Json::Value::CZString const ,Json::Value> >,0> >::_Lmost
PUBLIC	?_Lrotate@?$_Tree@V?$_Tmap_traits@VCZString@Value@Json@@V23@U?$less@VCZString@Value@Json@@@std@@V?$allocator@U?$pair@$$CBVCZString@Value@Json@@V23@@std@@@5@$0A@@std@@@std@@IAEXPAU?$_Tree_node@U?$pair@$$CBVCZString@Value@Json@@V23@@std@@PAX@2@@Z ; std::_Tree<std::_Tmap_traits<Json::Value::CZString,Json::Value,std::less<Json::Value::CZString>,std::allocator<std::pair<Json::Value::CZString const ,Json::Value> >,0> >::_Lrotate
PUBLIC	?_Rmost@?$_Tree@V?$_Tmap_traits@VCZString@Value@Json@@V23@U?$less@VCZString@Value@Json@@@std@@V?$allocator@U?$pair@$$CBVCZString@Value@Json@@V23@@std@@@5@$0A@@std@@@std@@IBEAAPAU?$_Tree_node@U?$pair@$$CBVCZString@Value@Json@@V23@@std@@PAX@2@XZ ; std::_Tree<std::_Tmap_traits<Json::Value::CZString,Json::Value,std::less<Json::Value::CZString>,std::allocator<std::pair<Json::Value::CZString const ,Json::Value> >,0> >::_Rmost
PUBLIC	?_Root@?$_Tree@V?$_Tmap_traits@VCZString@Value@Json@@V23@U?$less@VCZString@Value@Json@@@std@@V?$allocator@U?$pair@$$CBVCZString@Value@Json@@V23@@std@@@5@$0A@@std@@@std@@IBEAAPAU?$_Tree_node@U?$pair@$$CBVCZString@Value@Json@@V23@@std@@PAX@2@XZ ; std::_Tree<std::_Tmap_traits<Json::Value::CZString,Json::Value,std::less<Json::Value::CZString>,std::allocator<std::pair<Json::Value::CZString const ,Json::Value> >,0> >::_Root
PUBLIC	?_Rrotate@?$_Tree@V?$_Tmap_traits@VCZString@Value@Json@@V23@U?$less@VCZString@Value@Json@@@std@@V?$allocator@U?$pair@$$CBVCZString@Value@Json@@V23@@std@@@5@$0A@@std@@@std@@IAEXPAU?$_Tree_node@U?$pair@$$CBVCZString@Value@Json@@V23@@std@@PAX@2@@Z ; std::_Tree<std::_Tmap_traits<Json::Value::CZString,Json::Value,std::less<Json::Value::CZString>,std::allocator<std::pair<Json::Value::CZString const ,Json::Value> >,0> >::_Rrotate
PUBLIC	?_Tidy@?$_Tree@V?$_Tmap_traits@VCZString@Value@Json@@V23@U?$less@VCZString@Value@Json@@@std@@V?$allocator@U?$pair@$$CBVCZString@Value@Json@@V23@@std@@@5@$0A@@std@@@std@@IAEXXZ ; std::_Tree<std::_Tmap_traits<Json::Value::CZString,Json::Value,std::less<Json::Value::CZString>,std::allocator<std::pair<Json::Value::CZString const ,Json::Value> >,0> >::_Tidy
PUBLIC	?_Kfn@?$_Tree@V?$_Tmap_traits@VCZString@Value@Json@@V23@U?$less@VCZString@Value@Json@@@std@@V?$allocator@U?$pair@$$CBVCZString@Value@Json@@V23@@std@@@5@$0A@@std@@@std@@IBEABVCZString@Value@Json@@ABU?$pair@$$CBVCZString@Value@Json@@V23@@2@@Z ; std::_Tree<std::_Tmap_traits<Json::Value::CZString,Json::Value,std::less<Json::Value::CZString>,std::allocator<std::pair<Json::Value::CZString const ,Json::Value> >,0> >::_Kfn
PUBLIC	?_Key@?$_Tree@V?$_Tmap_traits@VCZString@Value@Json@@V23@U?$less@VCZString@Value@Json@@@std@@V?$allocator@U?$pair@$$CBVCZString@Value@Json@@V23@@std@@@5@$0A@@std@@@std@@IBEABVCZString@Value@Json@@PAU?$_Tree_node@U?$pair@$$CBVCZString@Value@Json@@V23@@std@@PAX@2@@Z ; std::_Tree<std::_Tmap_traits<Json::Value::CZString,Json::Value,std::less<Json::Value::CZString>,std::allocator<std::pair<Json::Value::CZString const ,Json::Value> >,0> >::_Key
PUBLIC	??0?$map@VCZString@Value@Json@@V23@U?$less@VCZString@Value@Json@@@std@@V?$allocator@U?$pair@$$CBVCZString@Value@Json@@V23@@std@@@5@@std@@QAE@XZ ; std::map<Json::Value::CZString,Json::Value,std::less<Json::Value::CZString>,std::allocator<std::pair<Json::Value::CZString const ,Json::Value> > >::map<Json::Value::CZString,Json::Value,std::less<Json::Value::CZString>,std::allocator<std::pair<Json::Value::CZString const ,Json::Value> > >
PUBLIC	??0?$map@VCZString@Value@Json@@V23@U?$less@VCZString@Value@Json@@@std@@V?$allocator@U?$pair@$$CBVCZString@Value@Json@@V23@@std@@@5@@std@@QAE@ABV01@@Z ; std::map<Json::Value::CZString,Json::Value,std::less<Json::Value::CZString>,std::allocator<std::pair<Json::Value::CZString const ,Json::Value> > >::map<Json::Value::CZString,Json::Value,std::less<Json::Value::CZString>,std::allocator<std::pair<Json::Value::CZString const ,Json::Value> > >
PUBLIC	??1?$map@VCZString@Value@Json@@V23@U?$less@VCZString@Value@Json@@@std@@V?$allocator@U?$pair@$$CBVCZString@Value@Json@@V23@@std@@@5@@std@@QAE@XZ ; std::map<Json::Value::CZString,Json::Value,std::less<Json::Value::CZString>,std::allocator<std::pair<Json::Value::CZString const ,Json::Value> > >::~map<Json::Value::CZString,Json::Value,std::less<Json::Value::CZString>,std::allocator<std::pair<Json::Value::CZString const ,Json::Value> > >
PUBLIC	??_G?$map@VCZString@Value@Json@@V23@U?$less@VCZString@Value@Json@@@std@@V?$allocator@U?$pair@$$CBVCZString@Value@Json@@V23@@std@@@5@@std@@QAEPAXI@Z ; std::map<Json::Value::CZString,Json::Value,std::less<Json::Value::CZString>,std::allocator<std::pair<Json::Value::CZString const ,Json::Value> > >::`scalar deleting destructor'
PUBLIC	??0ValueIteratorBase@Json@@QAE@ABV?$_Tree_iterator@V?$_Tree_val@U?$_Tree_simple_types@U?$pair@$$CBVCZString@Value@Json@@V23@@std@@@std@@@std@@@std@@@Z ; Json::ValueIteratorBase::ValueIteratorBase
PUBLIC	?key@ValueIteratorBase@Json@@QBE?AVValue@2@XZ	; Json::ValueIteratorBase::key
PUBLIC	?index@ValueIteratorBase@Json@@QBEIXZ		; Json::ValueIteratorBase::index
PUBLIC	?memberName@ValueIteratorBase@Json@@QBEPBDXZ	; Json::ValueIteratorBase::memberName
PUBLIC	?deref@ValueIteratorBase@Json@@IBEAAVValue@2@XZ	; Json::ValueIteratorBase::deref
PUBLIC	?increment@ValueIteratorBase@Json@@IAEXXZ	; Json::ValueIteratorBase::increment
PUBLIC	?decrement@ValueIteratorBase@Json@@IAEXXZ	; Json::ValueIteratorBase::decrement
PUBLIC	?computeDistance@ValueIteratorBase@Json@@IBEHABV12@@Z ; Json::ValueIteratorBase::computeDistance
PUBLIC	?isEqual@ValueIteratorBase@Json@@IBE_NABV12@@Z	; Json::ValueIteratorBase::isEqual
PUBLIC	?copy@ValueIteratorBase@Json@@IAEXABV12@@Z	; Json::ValueIteratorBase::copy
PUBLIC	??0?$_Tree_unchecked_const_iterator@V?$_Tree_val@U?$_Tree_simple_types@U?$pair@$$CBVCZString@Value@Json@@V23@@std@@@std@@@std@@U_Iterator_base0@2@@std@@QAE@XZ ; std::_Tree_unchecked_const_iterator<std::_Tree_val<std::_Tree_simple_types<std::pair<Json::Value::CZString const ,Json::Value> > >,std::_Iterator_base0>::_Tree_unchecked_const_iterator<std::_Tree_val<std::_Tree_simple_types<std::pair<Json::Value::CZString const ,Json::Value> > >,std::_Iterator_base0>
PUBLIC	??0?$_Tree_unchecked_const_iterator@V?$_Tree_val@U?$_Tree_simple_types@U?$pair@$$CBVCZString@Value@Json@@V23@@std@@@std@@@std@@U_Iterator_base0@2@@std@@QAE@PAU?$_Tree_node@U?$pair@$$CBVCZString@Value@Json@@V23@@std@@PAX@1@PBV?$_Tree_val@U?$_Tree_simple_types@U?$pair@$$CBVCZString@Value@Json@@V23@@std@@@std@@@1@@Z ; std::_Tree_unchecked_const_iterator<std::_Tree_val<std::_Tree_simple_types<std::pair<Json::Value::CZString const ,Json::Value> > >,std::_Iterator_base0>::_Tree_unchecked_const_iterator<std::_Tree_val<std::_Tree_simple_types<std::pair<Json::Value::CZString const ,Json::Value> > >,std::_Iterator_base0>
PUBLIC	??D?$_Tree_unchecked_const_iterator@V?$_Tree_val@U?$_Tree_simple_types@U?$pair@$$CBVCZString@Value@Json@@V23@@std@@@std@@@std@@U_Iterator_base0@2@@std@@QBEABU?$pair@$$CBVCZString@Value@Json@@V23@@1@XZ ; std::_Tree_unchecked_const_iterator<std::_Tree_val<std::_Tree_simple_types<std::pair<Json::Value::CZString const ,Json::Value> > >,std::_Iterator_base0>::operator*
PUBLIC	??E?$_Tree_unchecked_const_iterator@V?$_Tree_val@U?$_Tree_simple_types@U?$pair@$$CBVCZString@Value@Json@@V23@@std@@@std@@@std@@U_Iterator_base0@2@@std@@QAEAAV01@XZ ; std::_Tree_unchecked_const_iterator<std::_Tree_val<std::_Tree_simple_types<std::pair<Json::Value::CZString const ,Json::Value> > >,std::_Iterator_base0>::operator++
PUBLIC	??F?$_Tree_unchecked_const_iterator@V?$_Tree_val@U?$_Tree_simple_types@U?$pair@$$CBVCZString@Value@Json@@V23@@std@@@std@@@std@@U_Iterator_base0@2@@std@@QAEAAV01@XZ ; std::_Tree_unchecked_const_iterator<std::_Tree_val<std::_Tree_simple_types<std::pair<Json::Value::CZString const ,Json::Value> > >,std::_Iterator_base0>::operator--
PUBLIC	??8?$_Tree_unchecked_const_iterator@V?$_Tree_val@U?$_Tree_simple_types@U?$pair@$$CBVCZString@Value@Json@@V23@@std@@@std@@@std@@U_Iterator_base0@2@@std@@QBE_NABV01@@Z ; std::_Tree_unchecked_const_iterator<std::_Tree_val<std::_Tree_simple_types<std::pair<Json::Value::CZString const ,Json::Value> > >,std::_Iterator_base0>::operator==
PUBLIC	??9?$_Tree_unchecked_const_iterator@V?$_Tree_val@U?$_Tree_simple_types@U?$pair@$$CBVCZString@Value@Json@@V23@@std@@@std@@@std@@U_Iterator_base0@2@@std@@QBE_NABV01@@Z ; std::_Tree_unchecked_const_iterator<std::_Tree_val<std::_Tree_simple_types<std::pair<Json::Value::CZString const ,Json::Value> > >,std::_Iterator_base0>::operator!=
PUBLIC	?_Mynode@?$_Tree_unchecked_const_iterator@V?$_Tree_val@U?$_Tree_simple_types@U?$pair@$$CBVCZString@Value@Json@@V23@@std@@@std@@@std@@U_Iterator_base0@2@@std@@QBEPAU?$_Tree_node@U?$pair@$$CBVCZString@Value@Json@@V23@@std@@PAX@2@XZ ; std::_Tree_unchecked_const_iterator<std::_Tree_val<std::_Tree_simple_types<std::pair<Json::Value::CZString const ,Json::Value> > >,std::_Iterator_base0>::_Mynode
PUBLIC	??0?$_Tree_const_iterator@V?$_Tree_val@U?$_Tree_simple_types@U?$pair@$$CBVCZString@Value@Json@@V23@@std@@@std@@@std@@@std@@QAE@XZ ; std::_Tree_const_iterator<std::_Tree_val<std::_Tree_simple_types<std::pair<Json::Value::CZString const ,Json::Value> > > >::_Tree_const_iterator<std::_Tree_val<std::_Tree_simple_types<std::pair<Json::Value::CZString const ,Json::Value> > > >
PUBLIC	??0?$_Tree_const_iterator@V?$_Tree_val@U?$_Tree_simple_types@U?$pair@$$CBVCZString@Value@Json@@V23@@std@@@std@@@std@@@std@@QAE@PAU?$_Tree_node@U?$pair@$$CBVCZString@Value@Json@@V23@@std@@PAX@1@PBV?$_Tree_val@U?$_Tree_simple_types@U?$pair@$$CBVCZString@Value@Json@@V23@@std@@@std@@@1@@Z ; std::_Tree_const_iterator<std::_Tree_val<std::_Tree_simple_types<std::pair<Json::Value::CZString const ,Json::Value> > > >::_Tree_const_iterator<std::_Tree_val<std::_Tree_simple_types<std::pair<Json::Value::CZString const ,Json::Value> > > >
PUBLIC	?_Unchecked@?$_Tree_const_iterator@V?$_Tree_val@U?$_Tree_simple_types@U?$pair@$$CBVCZString@Value@Json@@V23@@std@@@std@@@std@@@std@@QBE?AV?$_Tree_unchecked_const_iterator@V?$_Tree_val@U?$_Tree_simple_types@U?$pair@$$CBVCZString@Value@Json@@V23@@std@@@std@@@std@@U_Iterator_base0@2@@2@XZ ; std::_Tree_const_iterator<std::_Tree_val<std::_Tree_simple_types<std::pair<Json::Value::CZString const ,Json::Value> > > >::_Unchecked
PUBLIC	??D?$_Tree_const_iterator@V?$_Tree_val@U?$_Tree_simple_types@U?$pair@$$CBVCZString@Value@Json@@V23@@std@@@std@@@std@@@std@@QBEABU?$pair@$$CBVCZString@Value@Json@@V23@@1@XZ ; std::_Tree_const_iterator<std::_Tree_val<std::_Tree_simple_types<std::pair<Json::Value::CZString const ,Json::Value> > > >::operator*
PUBLIC	??E?$_Tree_const_iterator@V?$_Tree_val@U?$_Tree_simple_types@U?$pair@$$CBVCZString@Value@Json@@V23@@std@@@std@@@std@@@std@@QAEAAV01@XZ ; std::_Tree_const_iterator<std::_Tree_val<std::_Tree_simple_types<std::pair<Json::Value::CZString const ,Json::Value> > > >::operator++
PUBLIC	??E?$_Tree_const_iterator@V?$_Tree_val@U?$_Tree_simple_types@U?$pair@$$CBVCZString@Value@Json@@V23@@std@@@std@@@std@@@std@@QAE?AV01@H@Z ; std::_Tree_const_iterator<std::_Tree_val<std::_Tree_simple_types<std::pair<Json::Value::CZString const ,Json::Value> > > >::operator++
PUBLIC	??F?$_Tree_const_iterator@V?$_Tree_val@U?$_Tree_simple_types@U?$pair@$$CBVCZString@Value@Json@@V23@@std@@@std@@@std@@@std@@QAEAAV01@XZ ; std::_Tree_const_iterator<std::_Tree_val<std::_Tree_simple_types<std::pair<Json::Value::CZString const ,Json::Value> > > >::operator--
PUBLIC	??8?$_Tree_const_iterator@V?$_Tree_val@U?$_Tree_simple_types@U?$pair@$$CBVCZString@Value@Json@@V23@@std@@@std@@@std@@@std@@QBE_NABV01@@Z ; std::_Tree_const_iterator<std::_Tree_val<std::_Tree_simple_types<std::pair<Json::Value::CZString const ,Json::Value> > > >::operator==
PUBLIC	??9?$_Tree_const_iterator@V?$_Tree_val@U?$_Tree_simple_types@U?$pair@$$CBVCZString@Value@Json@@V23@@std@@@std@@@std@@@std@@QBE_NABV01@@Z ; std::_Tree_const_iterator<std::_Tree_val<std::_Tree_simple_types<std::pair<Json::Value::CZString const ,Json::Value> > > >::operator!=
PUBLIC	??0?$_Tree_iterator@V?$_Tree_val@U?$_Tree_simple_types@U?$pair@$$CBVCZString@Value@Json@@V23@@std@@@std@@@std@@@std@@QAE@XZ ; std::_Tree_iterator<std::_Tree_val<std::_Tree_simple_types<std::pair<Json::Value::CZString const ,Json::Value> > > >::_Tree_iterator<std::_Tree_val<std::_Tree_simple_types<std::pair<Json::Value::CZString const ,Json::Value> > > >
PUBLIC	??0?$_Tree_iterator@V?$_Tree_val@U?$_Tree_simple_types@U?$pair@$$CBVCZString@Value@Json@@V23@@std@@@std@@@std@@@std@@QAE@PAU?$_Tree_node@U?$pair@$$CBVCZString@Value@Json@@V23@@std@@PAX@1@PBV?$_Tree_val@U?$_Tree_simple_types@U?$pair@$$CBVCZString@Value@Json@@V23@@std@@@std@@@1@@Z ; std::_Tree_iterator<std::_Tree_val<std::_Tree_simple_types<std::pair<Json::Value::CZString const ,Json::Value> > > >::_Tree_iterator<std::_Tree_val<std::_Tree_simple_types<std::pair<Json::Value::CZString const ,Json::Value> > > >
PUBLIC	??D?$_Tree_iterator@V?$_Tree_val@U?$_Tree_simple_types@U?$pair@$$CBVCZString@Value@Json@@V23@@std@@@std@@@std@@@std@@QBEAAU?$pair@$$CBVCZString@Value@Json@@V23@@1@XZ ; std::_Tree_iterator<std::_Tree_val<std::_Tree_simple_types<std::pair<Json::Value::CZString const ,Json::Value> > > >::operator*
PUBLIC	??C?$_Tree_iterator@V?$_Tree_val@U?$_Tree_simple_types@U?$pair@$$CBVCZString@Value@Json@@V23@@std@@@std@@@std@@@std@@QBEPAU?$pair@$$CBVCZString@Value@Json@@V23@@1@XZ ; std::_Tree_iterator<std::_Tree_val<std::_Tree_simple_types<std::pair<Json::Value::CZString const ,Json::Value> > > >::operator->
PUBLIC	??E?$_Tree_iterator@V?$_Tree_val@U?$_Tree_simple_types@U?$pair@$$CBVCZString@Value@Json@@V23@@std@@@std@@@std@@@std@@QAEAAV01@XZ ; std::_Tree_iterator<std::_Tree_val<std::_Tree_simple_types<std::pair<Json::Value::CZString const ,Json::Value> > > >::operator++
PUBLIC	??F?$_Tree_iterator@V?$_Tree_val@U?$_Tree_simple_types@U?$pair@$$CBVCZString@Value@Json@@V23@@std@@@std@@@std@@@std@@QAEAAV01@XZ ; std::_Tree_iterator<std::_Tree_val<std::_Tree_simple_types<std::pair<Json::Value::CZString const ,Json::Value> > > >::operator--
PUBLIC	??0ValueConstIterator@Json@@QAE@XZ		; Json::ValueConstIterator::ValueConstIterator
PUBLIC	??0ValueConstIterator@Json@@AAE@ABV?$_Tree_iterator@V?$_Tree_val@U?$_Tree_simple_types@U?$pair@$$CBVCZString@Value@Json@@V23@@std@@@std@@@std@@@std@@@Z ; Json::ValueConstIterator::ValueConstIterator
PUBLIC	??4ValueConstIterator@Json@@QAEAAV01@ABVValueIteratorBase@1@@Z ; Json::ValueConstIterator::operator=
PUBLIC	??0ValueIterator@Json@@QAE@XZ			; Json::ValueIterator::ValueIterator
PUBLIC	??0ValueIterator@Json@@QAE@ABVValueConstIterator@1@@Z ; Json::ValueIterator::ValueIterator
PUBLIC	??0ValueIterator@Json@@QAE@ABV01@@Z		; Json::ValueIterator::ValueIterator
PUBLIC	??0ValueIterator@Json@@AAE@ABV?$_Tree_iterator@V?$_Tree_val@U?$_Tree_simple_types@U?$pair@$$CBVCZString@Value@Json@@V23@@std@@@std@@@std@@@std@@@Z ; Json::ValueIterator::ValueIterator
PUBLIC	??4ValueIterator@Json@@QAEAAV01@ABV01@@Z	; Json::ValueIterator::operator=
PUBLIC	??1StyledWriter@Json@@UAE@XZ			; Json::StyledWriter::~StyledWriter
PUBLIC	??0?$allocator@V?$basic_string@DU?$char_traits@D@std@@V?$allocator@D@2@@std@@@std@@QAE@XZ ; std::allocator<std::basic_string<char,std::char_traits<char>,std::allocator<char> > >::allocator<std::basic_string<char,std::char_traits<char>,std::allocator<char> > >
PUBLIC	?deallocate@?$allocator@V?$basic_string@DU?$char_traits@D@std@@V?$allocator@D@2@@std@@@std@@QAEXPAV?$basic_string@DU?$char_traits@D@std@@V?$allocator@D@2@@2@I@Z ; std::allocator<std::basic_string<char,std::char_traits<char>,std::allocator<char> > >::deallocate
PUBLIC	?allocate@?$allocator@V?$basic_string@DU?$char_traits@D@std@@V?$allocator@D@2@@std@@@std@@QAEPAV?$basic_string@DU?$char_traits@D@std@@V?$allocator@D@2@@2@I@Z ; std::allocator<std::basic_string<char,std::char_traits<char>,std::allocator<char> > >::allocate
PUBLIC	?max_size@?$allocator@V?$basic_string@DU?$char_traits@D@std@@V?$allocator@D@2@@std@@@std@@QBEIXZ ; std::allocator<std::basic_string<char,std::char_traits<char>,std::allocator<char> > >::max_size
PUBLIC	?max_size@?$allocator_traits@V?$allocator@V?$basic_string@DU?$char_traits@D@std@@V?$allocator@D@2@@std@@@std@@@std@@SAIABV?$allocator@V?$basic_string@DU?$char_traits@D@std@@V?$allocator@D@2@@std@@@2@@Z ; std::allocator_traits<std::allocator<std::basic_string<char,std::char_traits<char>,std::allocator<char> > > >::max_size
PUBLIC	??0?$_Wrap_alloc@V?$allocator@V?$basic_string@DU?$char_traits@D@std@@V?$allocator@D@2@@std@@@std@@@std@@QAE@XZ ; std::_Wrap_alloc<std::allocator<std::basic_string<char,std::char_traits<char>,std::allocator<char> > > >::_Wrap_alloc<std::allocator<std::basic_string<char,std::char_traits<char>,std::allocator<char> > > >
PUBLIC	?allocate@?$_Wrap_alloc@V?$allocator@V?$basic_string@DU?$char_traits@D@std@@V?$allocator@D@2@@std@@@std@@@std@@QAEPAV?$basic_string@DU?$char_traits@D@std@@V?$allocator@D@2@@2@I@Z ; std::_Wrap_alloc<std::allocator<std::basic_string<char,std::char_traits<char>,std::allocator<char> > > >::allocate
PUBLIC	?deallocate@?$_Wrap_alloc@V?$allocator@V?$basic_string@DU?$char_traits@D@std@@V?$allocator@D@2@@std@@@std@@@std@@QAEXPAV?$basic_string@DU?$char_traits@D@std@@V?$allocator@D@2@@2@I@Z ; std::_Wrap_alloc<std::allocator<std::basic_string<char,std::char_traits<char>,std::allocator<char> > > >::deallocate
PUBLIC	?max_size@?$_Wrap_alloc@V?$allocator@V?$basic_string@DU?$char_traits@D@std@@V?$allocator@D@2@@std@@@std@@@std@@QBEIXZ ; std::_Wrap_alloc<std::allocator<std::basic_string<char,std::char_traits<char>,std::allocator<char> > > >::max_size
PUBLIC	??0?$_Vector_val@U?$_Simple_types@V?$basic_string@DU?$char_traits@D@std@@V?$allocator@D@2@@std@@@std@@@std@@QAE@XZ ; std::_Vector_val<std::_Simple_types<std::basic_string<char,std::char_traits<char>,std::allocator<char> > > >::_Vector_val<std::_Simple_types<std::basic_string<char,std::char_traits<char>,std::allocator<char> > > >
PUBLIC	??0?$_Vector_alloc@$0A@U?$_Vec_base_types@V?$basic_string@DU?$char_traits@D@std@@V?$allocator@D@2@@std@@V?$allocator@V?$basic_string@DU?$char_traits@D@std@@V?$allocator@D@2@@std@@@2@@std@@@std@@QAE@ABV?$allocator@V?$basic_string@DU?$char_traits@D@std@@V?$allocator@D@2@@std@@@1@@Z ; std::_Vector_alloc<0,std::_Vec_base_types<std::basic_string<char,std::char_traits<char>,std::allocator<char> >,std::allocator<std::basic_string<char,std::char_traits<char>,std::allocator<char> > > > >::_Vector_alloc<0,std::_Vec_base_types<std::basic_string<char,std::char_traits<char>,std::allocator<char> >,std::allocator<std::basic_string<char,std::char_traits<char>,std::allocator<char> > > > >
PUBLIC	?_Getal@?$_Vector_alloc@$0A@U?$_Vec_base_types@V?$basic_string@DU?$char_traits@D@std@@V?$allocator@D@2@@std@@V?$allocator@V?$basic_string@DU?$char_traits@D@std@@V?$allocator@D@2@@std@@@2@@std@@@std@@QBE?AU?$_Wrap_alloc@V?$allocator@V?$basic_string@DU?$char_traits@D@std@@V?$allocator@D@2@@std@@@std@@@2@XZ ; std::_Vector_alloc<0,std::_Vec_base_types<std::basic_string<char,std::char_traits<char>,std::allocator<char> >,std::allocator<std::basic_string<char,std::char_traits<char>,std::allocator<char> > > > >::_Getal
PUBLIC	??0?$vector@V?$basic_string@DU?$char_traits@D@std@@V?$allocator@D@2@@std@@V?$allocator@V?$basic_string@DU?$char_traits@D@std@@V?$allocator@D@2@@std@@@2@@std@@QAE@XZ ; std::vector<std::basic_string<char,std::char_traits<char>,std::allocator<char> >,std::allocator<std::basic_string<char,std::char_traits<char>,std::allocator<char> > > >::vector<std::basic_string<char,std::char_traits<char>,std::allocator<char> >,std::allocator<std::basic_string<char,std::char_traits<char>,std::allocator<char> > > >
PUBLIC	??0?$vector@V?$basic_string@DU?$char_traits@D@std@@V?$allocator@D@2@@std@@V?$allocator@V?$basic_string@DU?$char_traits@D@std@@V?$allocator@D@2@@std@@@2@@std@@QAE@$$QAV01@@Z ; std::vector<std::basic_string<char,std::char_traits<char>,std::allocator<char> >,std::allocator<std::basic_string<char,std::char_traits<char>,std::allocator<char> > > >::vector<std::basic_string<char,std::char_traits<char>,std::allocator<char> >,std::allocator<std::basic_string<char,std::char_traits<char>,std::allocator<char> > > >
PUBLIC	?_Assign_rv@?$vector@V?$basic_string@DU?$char_traits@D@std@@V?$allocator@D@2@@std@@V?$allocator@V?$basic_string@DU?$char_traits@D@std@@V?$allocator@D@2@@std@@@2@@std@@QAEX$$QAV12@U?$integral_constant@_N$00@2@@Z ; std::vector<std::basic_string<char,std::char_traits<char>,std::allocator<char> >,std::allocator<std::basic_string<char,std::char_traits<char>,std::allocator<char> > > >::_Assign_rv
PUBLIC	?push_back@?$vector@V?$basic_string@DU?$char_traits@D@std@@V?$allocator@D@2@@std@@V?$allocator@V?$basic_string@DU?$char_traits@D@std@@V?$allocator@D@2@@std@@@2@@std@@QAEX$$QAV?$basic_string@DU?$char_traits@D@std@@V?$allocator@D@2@@2@@Z ; std::vector<std::basic_string<char,std::char_traits<char>,std::allocator<char> >,std::allocator<std::basic_string<char,std::char_traits<char>,std::allocator<char> > > >::push_back
PUBLIC	??1?$vector@V?$basic_string@DU?$char_traits@D@std@@V?$allocator@D@2@@std@@V?$allocator@V?$basic_string@DU?$char_traits@D@std@@V?$allocator@D@2@@std@@@2@@std@@QAE@XZ ; std::vector<std::basic_string<char,std::char_traits<char>,std::allocator<char> >,std::allocator<std::basic_string<char,std::char_traits<char>,std::allocator<char> > > >::~vector<std::basic_string<char,std::char_traits<char>,std::allocator<char> >,std::allocator<std::basic_string<char,std::char_traits<char>,std::allocator<char> > > >
PUBLIC	?reserve@?$vector@V?$basic_string@DU?$char_traits@D@std@@V?$allocator@D@2@@std@@V?$allocator@V?$basic_string@DU?$char_traits@D@std@@V?$allocator@D@2@@std@@@2@@std@@QAEXI@Z ; std::vector<std::basic_string<char,std::char_traits<char>,std::allocator<char> >,std::allocator<std::basic_string<char,std::char_traits<char>,std::allocator<char> > > >::reserve
PUBLIC	?capacity@?$vector@V?$basic_string@DU?$char_traits@D@std@@V?$allocator@D@2@@std@@V?$allocator@V?$basic_string@DU?$char_traits@D@std@@V?$allocator@D@2@@std@@@2@@std@@QBEIXZ ; std::vector<std::basic_string<char,std::char_traits<char>,std::allocator<char> >,std::allocator<std::basic_string<char,std::char_traits<char>,std::allocator<char> > > >::capacity
PUBLIC	?_Unused_capacity@?$vector@V?$basic_string@DU?$char_traits@D@std@@V?$allocator@D@2@@std@@V?$allocator@V?$basic_string@DU?$char_traits@D@std@@V?$allocator@D@2@@std@@@2@@std@@QBEIXZ ; std::vector<std::basic_string<char,std::char_traits<char>,std::allocator<char> >,std::allocator<std::basic_string<char,std::char_traits<char>,std::allocator<char> > > >::_Unused_capacity
PUBLIC	?size@?$vector@V?$basic_string@DU?$char_traits@D@std@@V?$allocator@D@2@@std@@V?$allocator@V?$basic_string@DU?$char_traits@D@std@@V?$allocator@D@2@@std@@@2@@std@@QBEIXZ ; std::vector<std::basic_string<char,std::char_traits<char>,std::allocator<char> >,std::allocator<std::basic_string<char,std::char_traits<char>,std::allocator<char> > > >::size
PUBLIC	?max_size@?$vector@V?$basic_string@DU?$char_traits@D@std@@V?$allocator@D@2@@std@@V?$allocator@V?$basic_string@DU?$char_traits@D@std@@V?$allocator@D@2@@std@@@2@@std@@QBEIXZ ; std::vector<std::basic_string<char,std::char_traits<char>,std::allocator<char> >,std::allocator<std::basic_string<char,std::char_traits<char>,std::allocator<char> > > >::max_size
PUBLIC	?_Destroy@?$vector@V?$basic_string@DU?$char_traits@D@std@@V?$allocator@D@2@@std@@V?$allocator@V?$basic_string@DU?$char_traits@D@std@@V?$allocator@D@2@@std@@@2@@std@@IAEXPAV?$basic_string@DU?$char_traits@D@std@@V?$allocator@D@2@@2@0@Z ; std::vector<std::basic_string<char,std::char_traits<char>,std::allocator<char> >,std::allocator<std::basic_string<char,std::char_traits<char>,std::allocator<char> > > >::_Destroy
PUBLIC	?_Grow_to@?$vector@V?$basic_string@DU?$char_traits@D@std@@V?$allocator@D@2@@std@@V?$allocator@V?$basic_string@DU?$char_traits@D@std@@V?$allocator@D@2@@std@@@2@@std@@IBEII@Z ; std::vector<std::basic_string<char,std::char_traits<char>,std::allocator<char> >,std::allocator<std::basic_string<char,std::char_traits<char>,std::allocator<char> > > >::_Grow_to
PUBLIC	?_Inside@?$vector@V?$basic_string@DU?$char_traits@D@std@@V?$allocator@D@2@@std@@V?$allocator@V?$basic_string@DU?$char_traits@D@std@@V?$allocator@D@2@@std@@@2@@std@@IBE_NPBV?$basic_string@DU?$char_traits@D@std@@V?$allocator@D@2@@2@@Z ; std::vector<std::basic_string<char,std::char_traits<char>,std::allocator<char> >,std::allocator<std::basic_string<char,std::char_traits<char>,std::allocator<char> > > >::_Inside
PUBLIC	?_Reallocate@?$vector@V?$basic_string@DU?$char_traits@D@std@@V?$allocator@D@2@@std@@V?$allocator@V?$basic_string@DU?$char_traits@D@std@@V?$allocator@D@2@@std@@@2@@std@@IAEXI@Z ; std::vector<std::basic_string<char,std::char_traits<char>,std::allocator<char> >,std::allocator<std::basic_string<char,std::char_traits<char>,std::allocator<char> > > >::_Reallocate
PUBLIC	?_Reserve@?$vector@V?$basic_string@DU?$char_traits@D@std@@V?$allocator@D@2@@std@@V?$allocator@V?$basic_string@DU?$char_traits@D@std@@V?$allocator@D@2@@std@@@2@@std@@IAEXI@Z ; std::vector<std::basic_string<char,std::char_traits<char>,std::allocator<char> >,std::allocator<std::basic_string<char,std::char_traits<char>,std::allocator<char> > > >::_Reserve
PUBLIC	?_Tidy@?$vector@V?$basic_string@DU?$char_traits@D@std@@V?$allocator@D@2@@std@@V?$allocator@V?$basic_string@DU?$char_traits@D@std@@V?$allocator@D@2@@std@@@2@@std@@IAEXXZ ; std::vector<std::basic_string<char,std::char_traits<char>,std::allocator<char> >,std::allocator<std::basic_string<char,std::char_traits<char>,std::allocator<char> > > >::_Tidy
PUBLIC	?_Xlen@?$vector@V?$basic_string@DU?$char_traits@D@std@@V?$allocator@D@2@@std@@V?$allocator@V?$basic_string@DU?$char_traits@D@std@@V?$allocator@D@2@@std@@@2@@std@@IBEXXZ ; std::vector<std::basic_string<char,std::char_traits<char>,std::allocator<char> >,std::allocator<std::basic_string<char,std::char_traits<char>,std::allocator<char> > > >::_Xlen
PUBLIC	?_Orphan_range@?$vector@V?$basic_string@DU?$char_traits@D@std@@V?$allocator@D@2@@std@@V?$allocator@V?$basic_string@DU?$char_traits@D@std@@V?$allocator@D@2@@std@@@2@@std@@IBEXPAV?$basic_string@DU?$char_traits@D@std@@V?$allocator@D@2@@2@0@Z ; std::vector<std::basic_string<char,std::char_traits<char>,std::allocator<char> >,std::allocator<std::basic_string<char,std::char_traits<char>,std::allocator<char> > > >::_Orphan_range
PUBLIC	??_GStyledWriter@Json@@UAEPAXI@Z		; Json::StyledWriter::`scalar deleting destructor'
PUBLIC	??1DefaultValueAllocator@Json@@UAE@XZ		; Json::DefaultValueAllocator::~DefaultValueAllocator
PUBLIC	?makeMemberName@DefaultValueAllocator@Json@@UAEPADPBD@Z ; Json::DefaultValueAllocator::makeMemberName
PUBLIC	?releaseMemberName@DefaultValueAllocator@Json@@UAEXPAD@Z ; Json::DefaultValueAllocator::releaseMemberName
PUBLIC	?duplicateStringValue@DefaultValueAllocator@Json@@UAEPADPBDI@Z ; Json::DefaultValueAllocator::duplicateStringValue
PUBLIC	?releaseStringValue@DefaultValueAllocator@Json@@UAEXPAD@Z ; Json::DefaultValueAllocator::releaseStringValue
PUBLIC	??0DefaultValueAllocator@Json@@QAE@XZ		; Json::DefaultValueAllocator::DefaultValueAllocator
PUBLIC	??_GDefaultValueAllocator@Json@@UAEPAXI@Z	; Json::DefaultValueAllocator::`scalar deleting destructor'
PUBLIC	??0DummyValueAllocatorInitializer@Json@@QAE@XZ	; Json::DummyValueAllocatorInitializer::DummyValueAllocatorInitializer
PUBLIC	??1?$pair@$$CBVCZString@Value@Json@@V23@@std@@QAE@XZ ; std::pair<Json::Value::CZString const ,Json::Value>::~pair<Json::Value::CZString const ,Json::Value>
PUBLIC	??0?$pair@$$CBVCZString@Value@Json@@V23@@std@@QAE@ABU01@@Z ; std::pair<Json::Value::CZString const ,Json::Value>::pair<Json::Value::CZString const ,Json::Value>
PUBLIC	??_G?$pair@$$CBVCZString@Value@Json@@V23@@std@@QAEPAXI@Z ; std::pair<Json::Value::CZString const ,Json::Value>::`scalar deleting destructor'
PUBLIC	??$swap@PBD@std@@YAXAAPBD0@Z			; std::swap<char const *>
PUBLIC	??$swap@TValueHolder@Value@Json@@@std@@YAXAATValueHolder@Value@Json@@0@Z ; std::swap<Json::Value::ValueHolder>
PUBLIC	??$?MV?$_Tmap_traits@VCZString@Value@Json@@V23@U?$less@VCZString@Value@Json@@@std@@V?$allocator@U?$pair@$$CBVCZString@Value@Json@@V23@@std@@@5@$0A@@std@@@std@@YA_NABV?$_Tree@V?$_Tmap_traits@VCZString@Value@Json@@V23@U?$less@VCZString@Value@Json@@@std@@V?$allocator@U?$pair@$$CBVCZString@Value@Json@@V23@@std@@@5@$0A@@std@@@0@0@Z ; std::operator<<std::_Tmap_traits<Json::Value::CZString,Json::Value,std::less<Json::Value::CZString>,std::allocator<std::pair<Json::Value::CZString const ,Json::Value> >,0> >
PUBLIC	??$?8V?$_Tmap_traits@VCZString@Value@Json@@V23@U?$less@VCZString@Value@Json@@@std@@V?$allocator@U?$pair@$$CBVCZString@Value@Json@@V23@@std@@@5@$0A@@std@@@std@@YA_NABV?$_Tree@V?$_Tmap_traits@VCZString@Value@Json@@V23@U?$less@VCZString@Value@Json@@@std@@V?$allocator@U?$pair@$$CBVCZString@Value@Json@@V23@@std@@@5@$0A@@std@@@0@0@Z ; std::operator==<std::_Tmap_traits<Json::Value::CZString,Json::Value,std::less<Json::Value::CZString>,std::allocator<std::pair<Json::Value::CZString const ,Json::Value> >,0> >
PUBLIC	??$?0AAVCZString@Value@Json@@ABV12@X@?$pair@$$CBVCZString@Value@Json@@V23@@std@@QAE@AAVCZString@Value@Json@@ABV34@@Z ; std::pair<Json::Value::CZString const ,Json::Value>::pair<Json::Value::CZString const ,Json::Value><Json::Value::CZString &,Json::Value const &,void>
PUBLIC	??$insert@AAU?$pair@$$CBVCZString@Value@Json@@V23@@std@@@?$_Tree@V?$_Tmap_traits@VCZString@Value@Json@@V23@U?$less@VCZString@Value@Json@@@std@@V?$allocator@U?$pair@$$CBVCZString@Value@Json@@V23@@std@@@5@$0A@@std@@@std@@QAE?AV?$_Tree_iterator@V?$_Tree_val@U?$_Tree_simple_types@U?$pair@$$CBVCZString@Value@Json@@V23@@std@@@std@@@std@@@1@V?$_Tree_const_iterator@V?$_Tree_val@U?$_Tree_simple_types@U?$pair@$$CBVCZString@Value@Json@@V23@@std@@@std@@@std@@@1@AAU?$pair@$$CBVCZString@Value@Json@@V23@@1@@Z ; std::_Tree<std::_Tmap_traits<Json::Value::CZString,Json::Value,std::less<Json::Value::CZString>,std::allocator<std::pair<Json::Value::CZString const ,Json::Value> >,0> >::insert<std::pair<Json::Value::CZString const ,Json::Value> &>
PUBLIC	??0?$_Vector_const_iterator@V?$_Vector_val@U?$_Simple_types@PBVPathArgument@Json@@@std@@@std@@@std@@QAE@PAPBVPathArgument@Json@@PBU_Container_base0@1@@Z ; std::_Vector_const_iterator<std::_Vector_val<std::_Simple_types<Json::PathArgument const *> > >::_Vector_const_iterator<std::_Vector_val<std::_Simple_types<Json::PathArgument const *> > >
PUBLIC	??D?$_Vector_const_iterator@V?$_Vector_val@U?$_Simple_types@PBVPathArgument@Json@@@std@@@std@@@std@@QBEABQBVPathArgument@Json@@XZ ; std::_Vector_const_iterator<std::_Vector_val<std::_Simple_types<Json::PathArgument const *> > >::operator*
PUBLIC	??8?$_Vector_const_iterator@V?$_Vector_val@U?$_Simple_types@PBVPathArgument@Json@@@std@@@std@@@std@@QBE_NABV01@@Z ; std::_Vector_const_iterator<std::_Vector_val<std::_Simple_types<Json::PathArgument const *> > >::operator==
PUBLIC	?_Compat@?$_Vector_const_iterator@V?$_Vector_val@U?$_Simple_types@PBVPathArgument@Json@@@std@@@std@@@std@@QBEXABV12@@Z ; std::_Vector_const_iterator<std::_Vector_val<std::_Simple_types<Json::PathArgument const *> > >::_Compat
PUBLIC	??0?$_Vector_const_iterator@V?$_Vector_val@U?$_Simple_types@VPathArgument@Json@@@std@@@std@@@std@@QAE@PAVPathArgument@Json@@PBU_Container_base0@1@@Z ; std::_Vector_const_iterator<std::_Vector_val<std::_Simple_types<Json::PathArgument> > >::_Vector_const_iterator<std::_Vector_val<std::_Simple_types<Json::PathArgument> > >
PUBLIC	??D?$_Vector_const_iterator@V?$_Vector_val@U?$_Simple_types@VPathArgument@Json@@@std@@@std@@@std@@QBEABVPathArgument@Json@@XZ ; std::_Vector_const_iterator<std::_Vector_val<std::_Simple_types<Json::PathArgument> > >::operator*
PUBLIC	??E?$_Vector_const_iterator@V?$_Vector_val@U?$_Simple_types@VPathArgument@Json@@@std@@@std@@@std@@QAEAAV01@XZ ; std::_Vector_const_iterator<std::_Vector_val<std::_Simple_types<Json::PathArgument> > >::operator++
PUBLIC	??8?$_Vector_const_iterator@V?$_Vector_val@U?$_Simple_types@VPathArgument@Json@@@std@@@std@@@std@@QBE_NABV01@@Z ; std::_Vector_const_iterator<std::_Vector_val<std::_Simple_types<Json::PathArgument> > >::operator==
PUBLIC	??9?$_Vector_const_iterator@V?$_Vector_val@U?$_Simple_types@VPathArgument@Json@@@std@@@std@@@std@@QBE_NABV01@@Z ; std::_Vector_const_iterator<std::_Vector_val<std::_Simple_types<Json::PathArgument> > >::operator!=
PUBLIC	?_Compat@?$_Vector_const_iterator@V?$_Vector_val@U?$_Simple_types@VPathArgument@Json@@@std@@@std@@@std@@QBEXABV12@@Z ; std::_Vector_const_iterator<std::_Vector_val<std::_Simple_types<Json::PathArgument> > >::_Compat
PUBLIC	??$forward@V?$basic_string@DU?$char_traits@D@std@@V?$allocator@D@2@@std@@@std@@YA$$QAV?$basic_string@DU?$char_traits@D@std@@V?$allocator@D@2@@0@AAV10@@Z ; std::forward<std::basic_string<char,std::char_traits<char>,std::allocator<char> > >
PUBLIC	??$addressof@V?$basic_string@DU?$char_traits@D@std@@V?$allocator@D@2@@std@@@std@@YAPAV?$basic_string@DU?$char_traits@D@std@@V?$allocator@D@2@@0@AAV10@@Z ; std::addressof<std::basic_string<char,std::char_traits<char>,std::allocator<char> > >
PUBLIC	??$addressof@PBVPathArgument@Json@@@std@@YAPAPBVPathArgument@Json@@AAPBV12@@Z ; std::addressof<Json::PathArgument const *>
PUBLIC	??$forward@PBVPathArgument@Json@@@std@@YA$$QAPBVPathArgument@Json@@AAPBV12@@Z ; std::forward<Json::PathArgument const *>
PUBLIC	??$construct@PBVPathArgument@Json@@PBV12@@?$_Wrap_alloc@V?$allocator@PBVPathArgument@Json@@@std@@@std@@QAEXPAPBVPathArgument@Json@@$$QAPBV23@@Z ; std::_Wrap_alloc<std::allocator<Json::PathArgument const *> >::construct<Json::PathArgument const *,Json::PathArgument const *>
PUBLIC	??$addressof@VPathArgument@Json@@@std@@YAPAVPathArgument@Json@@AAV12@@Z ; std::addressof<Json::PathArgument>
PUBLIC	??$forward@VPathArgument@Json@@@std@@YA$$QAVPathArgument@Json@@AAV12@@Z ; std::forward<Json::PathArgument>
PUBLIC	??$construct@VPathArgument@Json@@V12@@?$_Wrap_alloc@V?$allocator@VPathArgument@Json@@@std@@@std@@QAEXPAVPathArgument@Json@@$$QAV23@@Z ; std::_Wrap_alloc<std::allocator<Json::PathArgument> >::construct<Json::PathArgument,Json::PathArgument>
PUBLIC	??$addressof@$$CBVPathArgument@Json@@@std@@YAPBVPathArgument@Json@@ABV12@@Z ; std::addressof<Json::PathArgument const >
PUBLIC	??$construct@VPathArgument@Json@@AAV12@@?$_Wrap_alloc@V?$allocator@VPathArgument@Json@@@std@@@std@@QAEXPAVPathArgument@Json@@AAV23@@Z ; std::_Wrap_alloc<std::allocator<Json::PathArgument> >::construct<Json::PathArgument,Json::PathArgument &>
PUBLIC	??$construct@VPathArgument@Json@@ABV12@@?$_Wrap_alloc@V?$allocator@VPathArgument@Json@@@std@@@std@@QAEXPAVPathArgument@Json@@ABV23@@Z ; std::_Wrap_alloc<std::allocator<Json::PathArgument> >::construct<Json::PathArgument,Json::PathArgument const &>
PUBLIC	??$?0U?$_Tree_node@U?$pair@$$CBVCZString@Value@Json@@V23@@std@@PAX@std@@@?$allocator@U?$pair@$$CBVCZString@Value@Json@@V23@@std@@@std@@QAE@ABV?$allocator@U?$_Tree_node@U?$pair@$$CBVCZString@Value@Json@@V23@@std@@PAX@std@@@1@@Z ; std::allocator<std::pair<Json::Value::CZString const ,Json::Value> >::allocator<std::pair<Json::Value::CZString const ,Json::Value> ><std::_Tree_node<std::pair<Json::Value::CZString const ,Json::Value>,void *> >
PUBLIC	??$swap@D@std@@YAXAAD0@Z			; std::swap<char>
PUBLIC	??$addressof@U?$pair@$$CBVCZString@Value@Json@@V23@@std@@@std@@YAPAU?$pair@$$CBVCZString@Value@Json@@V23@@0@AAU10@@Z ; std::addressof<std::pair<Json::Value::CZString const ,Json::Value> >
PUBLIC	??$destroy@U?$pair@$$CBVCZString@Value@Json@@V23@@std@@@?$_Wrap_alloc@V?$allocator@U?$_Tree_node@U?$pair@$$CBVCZString@Value@Json@@V23@@std@@PAX@std@@@std@@@std@@QAEXPAU?$pair@$$CBVCZString@Value@Json@@V23@@1@@Z ; std::_Wrap_alloc<std::allocator<std::_Tree_node<std::pair<Json::Value::CZString const ,Json::Value>,void *> > >::destroy<std::pair<Json::Value::CZString const ,Json::Value> >
PUBLIC	??$_Distance@V?$_Tree_iterator@V?$_Tree_val@U?$_Tree_simple_types@U?$pair@$$CBVCZString@Value@Json@@V23@@std@@@std@@@std@@@std@@I@std@@YAXV?$_Tree_iterator@V?$_Tree_val@U?$_Tree_simple_types@U?$pair@$$CBVCZString@Value@Json@@V23@@std@@@std@@@std@@@0@0AAI@Z ; std::_Distance<std::_Tree_iterator<std::_Tree_val<std::_Tree_simple_types<std::pair<Json::Value::CZString const ,Json::Value> > > >,unsigned int>
PUBLIC	?pointer_to@?$pointer_traits@PAU?$pair@$$CBVCZString@Value@Json@@V23@@std@@@std@@SAPAU?$pair@$$CBVCZString@Value@Json@@V23@@2@AAU32@@Z ; std::pointer_traits<std::pair<Json::Value::CZString const ,Json::Value> *>::pointer_to
PUBLIC	??$forward@V?$vector@V?$basic_string@DU?$char_traits@D@std@@V?$allocator@D@2@@std@@V?$allocator@V?$basic_string@DU?$char_traits@D@std@@V?$allocator@D@2@@std@@@2@@std@@@std@@YA$$QAV?$vector@V?$basic_string@DU?$char_traits@D@std@@V?$allocator@D@2@@std@@V?$allocator@V?$basic_string@DU?$char_traits@D@std@@V?$allocator@D@2@@std@@@2@@0@AAV10@@Z ; std::forward<std::vector<std::basic_string<char,std::char_traits<char>,std::allocator<char> >,std::allocator<std::basic_string<char,std::char_traits<char>,std::allocator<char> > > > >
PUBLIC	??$construct@V?$basic_string@DU?$char_traits@D@std@@V?$allocator@D@2@@std@@V12@@?$_Wrap_alloc@V?$allocator@V?$basic_string@DU?$char_traits@D@std@@V?$allocator@D@2@@std@@@std@@@std@@QAEXPAV?$basic_string@DU?$char_traits@D@std@@V?$allocator@D@2@@1@$$QAV21@@Z ; std::_Wrap_alloc<std::allocator<std::basic_string<char,std::char_traits<char>,std::allocator<char> > > >::construct<std::basic_string<char,std::char_traits<char>,std::allocator<char> >,std::basic_string<char,std::char_traits<char>,std::allocator<char> > >
PUBLIC	??$construct@PADAAPAD@?$_Wrap_alloc@V?$allocator@D@std@@@std@@QAEXPAPADAAPAD@Z ; std::_Wrap_alloc<std::allocator<char> >::construct<char *,char * &>
PUBLIC	??$destroy@PAD@?$_Wrap_alloc@V?$allocator@D@std@@@std@@QAEXPAPAD@Z ; std::_Wrap_alloc<std::allocator<char> >::destroy<char *>
PUBLIC	??$addressof@D@std@@YAPADAAD@Z			; std::addressof<char>
PUBLIC	??$_Copy@U?$integral_constant@_N$0A@@std@@@?$_Tree@V?$_Tmap_traits@VCZString@Value@Json@@V23@U?$less@VCZString@Value@Json@@@std@@V?$allocator@U?$pair@$$CBVCZString@Value@Json@@V23@@std@@@5@$0A@@std@@@std@@IAEXABV01@U?$integral_constant@_N$0A@@1@@Z ; std::_Tree<std::_Tmap_traits<Json::Value::CZString,Json::Value,std::less<Json::Value::CZString>,std::allocator<std::pair<Json::Value::CZString const ,Json::Value> >,0> >::_Copy<std::integral_constant<bool,0> >
PUBLIC	??$_Umove@PAV?$basic_string@DU?$char_traits@D@std@@V?$allocator@D@2@@std@@@?$vector@V?$basic_string@DU?$char_traits@D@std@@V?$allocator@D@2@@std@@V?$allocator@V?$basic_string@DU?$char_traits@D@std@@V?$allocator@D@2@@std@@@2@@std@@IAEPAV?$basic_string@DU?$char_traits@D@std@@V?$allocator@D@2@@1@PAV21@00@Z ; std::vector<std::basic_string<char,std::char_traits<char>,std::allocator<char> >,std::allocator<std::basic_string<char,std::char_traits<char>,std::allocator<char> > > >::_Umove<std::basic_string<char,std::char_traits<char>,std::allocator<char> > *>
PUBLIC	??$_Destroy_range@U?$_Wrap_alloc@V?$allocator@PBVPathArgument@Json@@@std@@@std@@@std@@YAXPAPBVPathArgument@Json@@0AAU?$_Wrap_alloc@V?$allocator@PBVPathArgument@Json@@@std@@@0@@Z ; std::_Destroy_range<std::_Wrap_alloc<std::allocator<Json::PathArgument const *> > >
PUBLIC	??$_Umove@PAPBVPathArgument@Json@@@?$vector@PBVPathArgument@Json@@V?$allocator@PBVPathArgument@Json@@@std@@@std@@IAEPAPBVPathArgument@Json@@PAPBV23@00@Z ; std::vector<Json::PathArgument const *,std::allocator<Json::PathArgument const *> >::_Umove<Json::PathArgument const * *>
PUBLIC	??$_Destroy_range@U?$_Wrap_alloc@V?$allocator@VPathArgument@Json@@@std@@@std@@@std@@YAXPAVPathArgument@Json@@0AAU?$_Wrap_alloc@V?$allocator@VPathArgument@Json@@@std@@@0@@Z ; std::_Destroy_range<std::_Wrap_alloc<std::allocator<Json::PathArgument> > >
PUBLIC	??$_Umove@PAVPathArgument@Json@@@?$vector@VPathArgument@Json@@V?$allocator@VPathArgument@Json@@@std@@@std@@IAEPAVPathArgument@Json@@PAV23@00@Z ; std::vector<Json::PathArgument,std::allocator<Json::PathArgument> >::_Umove<Json::PathArgument *>
PUBLIC	??$?0AAV?$_Tree_iterator@V?$_Tree_val@U?$_Tree_simple_types@U?$pair@$$CBVCZString@Value@Json@@V23@@std@@@std@@@std@@@std@@AAV01@X@?$pair@V?$_Tree_iterator@V?$_Tree_val@U?$_Tree_simple_types@U?$pair@$$CBVCZString@Value@Json@@V23@@std@@@std@@@std@@@std@@V12@@std@@QAE@AAV?$_Tree_iterator@V?$_Tree_val@U?$_Tree_simple_types@U?$pair@$$CBVCZString@Value@Json@@V23@@std@@@std@@@std@@@1@0@Z ; std::pair<std::_Tree_iterator<std::_Tree_val<std::_Tree_simple_types<std::pair<Json::Value::CZString const ,Json::Value> > > >,std::_Tree_iterator<std::_Tree_val<std::_Tree_simple_types<std::pair<Json::Value::CZString const ,Json::Value> > > > >::pair<std::_Tree_iterator<std::_Tree_val<std::_Tree_simple_types<std::pair<Json::Value::CZString const ,Json::Value> > > >,std::_Tree_iterator<std::_Tree_val<std::_Tree_simple_types<std::pair<Json::Value::CZString const ,Json::Value> > > > ><std::_Tree_iterator<std::_Tree_val<std::_Tree_simple_types<std::pair<Json::Value::CZString const ,Json::Value> > > > &,std::_Tree_iterator<std::_Tree_val<std::_Tree_simple_types<std::pair<Json::Value::CZString const ,Json::Value> > > > &,void>
PUBLIC	??$_Kfn@$$CBVCZString@Value@Json@@V23@@?$_Tmap_traits@VCZString@Value@Json@@V23@U?$less@VCZString@Value@Json@@@std@@V?$allocator@U?$pair@$$CBVCZString@Value@Json@@V23@@std@@@5@$0A@@std@@SAABVCZString@Value@Json@@ABU?$pair@$$CBVCZString@Value@Json@@V23@@1@@Z ; std::_Tmap_traits<Json::Value::CZString,Json::Value,std::less<Json::Value::CZString>,std::allocator<std::pair<Json::Value::CZString const ,Json::Value> >,0>::_Kfn<Json::Value::CZString const ,Json::Value>
PUBLIC	??$addressof@PAU?$_Tree_node@U?$pair@$$CBVCZString@Value@Json@@V23@@std@@PAX@std@@@std@@YAPAPAU?$_Tree_node@U?$pair@$$CBVCZString@Value@Json@@V23@@std@@PAX@0@AAPAU10@@Z ; std::addressof<std::_Tree_node<std::pair<Json::Value::CZString const ,Json::Value>,void *> *>
PUBLIC	??$destroy@PAU?$_Tree_node@U?$pair@$$CBVCZString@Value@Json@@V23@@std@@PAX@std@@@?$_Wrap_alloc@V?$allocator@U?$_Tree_node@U?$pair@$$CBVCZString@Value@Json@@V23@@std@@PAX@std@@@std@@@std@@QAEXPAPAU?$_Tree_node@U?$pair@$$CBVCZString@Value@Json@@V23@@std@@PAX@1@@Z ; std::_Wrap_alloc<std::allocator<std::_Tree_node<std::pair<Json::Value::CZString const ,Json::Value>,void *> > >::destroy<std::_Tree_node<std::pair<Json::Value::CZString const ,Json::Value>,void *> *>
PUBLIC	??$_Destroy_range@U?$_Wrap_alloc@V?$allocator@V?$basic_string@DU?$char_traits@D@std@@V?$allocator@D@2@@std@@@std@@@std@@@std@@YAXPAV?$basic_string@DU?$char_traits@D@std@@V?$allocator@D@2@@0@0AAU?$_Wrap_alloc@V?$allocator@V?$basic_string@DU?$char_traits@D@std@@V?$allocator@D@2@@std@@@std@@@0@@Z ; std::_Destroy_range<std::_Wrap_alloc<std::allocator<std::basic_string<char,std::char_traits<char>,std::allocator<char> > > > >
PUBLIC	??$_Allocate@V?$basic_string@DU?$char_traits@D@std@@V?$allocator@D@2@@std@@@std@@YAPAV?$basic_string@DU?$char_traits@D@std@@V?$allocator@D@2@@0@IPAV10@@Z ; std::_Allocate<std::basic_string<char,std::char_traits<char>,std::allocator<char> > >
PUBLIC	??$_Allocate@PBVPathArgument@Json@@@std@@YAPAPBVPathArgument@Json@@IPAPBV12@@Z ; std::_Allocate<Json::PathArgument const *>
PUBLIC	??$_Allocate@VPathArgument@Json@@@std@@YAPAVPathArgument@Json@@IPAV12@@Z ; std::_Allocate<Json::PathArgument>
PUBLIC	??$_Allocate@D@std@@YAPADIPAD@Z			; std::_Allocate<char>
PUBLIC	??$construct@PAU?$_Tree_node@U?$pair@$$CBVCZString@Value@Json@@V23@@std@@PAX@std@@AAPAU12@@?$_Wrap_alloc@V?$allocator@U?$_Tree_node@U?$pair@$$CBVCZString@Value@Json@@V23@@std@@PAX@std@@@std@@@std@@QAEXPAPAU?$_Tree_node@U?$pair@$$CBVCZString@Value@Json@@V23@@std@@PAX@1@AAPAU21@@Z ; std::_Wrap_alloc<std::allocator<std::_Tree_node<std::pair<Json::Value::CZString const ,Json::Value>,void *> > >::construct<std::_Tree_node<std::pair<Json::Value::CZString const ,Json::Value>,void *> *,std::_Tree_node<std::pair<Json::Value::CZString const ,Json::Value>,void *> * &>
PUBLIC	??$_Allocate@U?$_Tree_node@U?$pair@$$CBVCZString@Value@Json@@V23@@std@@PAX@std@@@std@@YAPAU?$_Tree_node@U?$pair@$$CBVCZString@Value@Json@@V23@@std@@PAX@0@IPAU10@@Z ; std::_Allocate<std::_Tree_node<std::pair<Json::Value::CZString const ,Json::Value>,void *> >
PUBLIC	??$_Move@AAH@std@@YA$$QAHAAH@Z			; std::_Move<int &>
PUBLIC	??$_Move@AAPBD@std@@YA$$QAPBDAAPBD@Z		; std::_Move<char const * &>
PUBLIC	??$_Move@AATValueHolder@Value@Json@@@std@@YA$$QATValueHolder@Value@Json@@AAT123@@Z ; std::_Move<Json::Value::ValueHolder &>
PUBLIC	??$lexicographical_compare@V?$_Tree_const_iterator@V?$_Tree_val@U?$_Tree_simple_types@U?$pair@$$CBVCZString@Value@Json@@V23@@std@@@std@@@std@@@std@@V12@@std@@YA_NV?$_Tree_const_iterator@V?$_Tree_val@U?$_Tree_simple_types@U?$pair@$$CBVCZString@Value@Json@@V23@@std@@@std@@@std@@@0@000@Z ; std::lexicographical_compare<std::_Tree_const_iterator<std::_Tree_val<std::_Tree_simple_types<std::pair<Json::Value::CZString const ,Json::Value> > > >,std::_Tree_const_iterator<std::_Tree_val<std::_Tree_simple_types<std::pair<Json::Value::CZString const ,Json::Value> > > > >
PUBLIC	??$equal@V?$_Tree_const_iterator@V?$_Tree_val@U?$_Tree_simple_types@U?$pair@$$CBVCZString@Value@Json@@V23@@std@@@std@@@std@@@std@@V12@@std@@YA_NV?$_Tree_const_iterator@V?$_Tree_val@U?$_Tree_simple_types@U?$pair@$$CBVCZString@Value@Json@@V23@@std@@@std@@@std@@@0@00@Z ; std::equal<std::_Tree_const_iterator<std::_Tree_val<std::_Tree_simple_types<std::pair<Json::Value::CZString const ,Json::Value> > > >,std::_Tree_const_iterator<std::_Tree_val<std::_Tree_simple_types<std::pair<Json::Value::CZString const ,Json::Value> > > > >
PUBLIC	??$forward@AAVCZString@Value@Json@@@std@@YAAAVCZString@Value@Json@@AAV123@@Z ; std::forward<Json::Value::CZString &>
PUBLIC	??$forward@ABVValue@Json@@@std@@YAABVValue@Json@@ABV12@@Z ; std::forward<Json::Value const &>
PUBLIC	??$forward@AAU?$pair@$$CBVCZString@Value@Json@@V23@@std@@@std@@YAAAU?$pair@$$CBVCZString@Value@Json@@V23@@0@AAU10@@Z ; std::forward<std::pair<Json::Value::CZString const ,Json::Value> &>
PUBLIC	??$_Buynode@AAU?$pair@$$CBVCZString@Value@Json@@V23@@std@@@?$_Tree_buy@U?$pair@$$CBVCZString@Value@Json@@V23@@std@@V?$allocator@U?$pair@$$CBVCZString@Value@Json@@V23@@std@@@2@@std@@QAEPAU?$_Tree_node@U?$pair@$$CBVCZString@Value@Json@@V23@@std@@PAX@1@AAU?$pair@$$CBVCZString@Value@Json@@V23@@1@@Z ; std::_Tree_buy<std::pair<Json::Value::CZString const ,Json::Value>,std::allocator<std::pair<Json::Value::CZString const ,Json::Value> > >::_Buynode<std::pair<Json::Value::CZString const ,Json::Value> &>
PUBLIC	??$_Insert_hint@AAU?$pair@$$CBVCZString@Value@Json@@V23@@std@@PAU?$_Tree_node@U?$pair@$$CBVCZString@Value@Json@@V23@@std@@PAX@2@@?$_Tree@V?$_Tmap_traits@VCZString@Value@Json@@V23@U?$less@VCZString@Value@Json@@@std@@V?$allocator@U?$pair@$$CBVCZString@Value@Json@@V23@@std@@@5@$0A@@std@@@std@@IAE?AV?$_Tree_iterator@V?$_Tree_val@U?$_Tree_simple_types@U?$pair@$$CBVCZString@Value@Json@@V23@@std@@@std@@@std@@@1@V?$_Tree_const_iterator@V?$_Tree_val@U?$_Tree_simple_types@U?$pair@$$CBVCZString@Value@Json@@V23@@std@@@std@@@std@@@1@AAU?$pair@$$CBVCZString@Value@Json@@V23@@1@PAU?$_Tree_node@U?$pair@$$CBVCZString@Value@Json@@V23@@std@@PAX@1@@Z ; std::_Tree<std::_Tmap_traits<Json::Value::CZString,Json::Value,std::less<Json::Value::CZString>,std::allocator<std::pair<Json::Value::CZString const ,Json::Value> >,0> >::_Insert_hint<std::pair<Json::Value::CZString const ,Json::Value> &,std::_Tree_node<std::pair<Json::Value::CZString const ,Json::Value>,void *> *>
PUBLIC	??$construct@PBVPathArgument@Json@@PBV12@@?$allocator_traits@V?$allocator@PBVPathArgument@Json@@@std@@@std@@SAXAAV?$allocator@PBVPathArgument@Json@@@1@PAPBVPathArgument@Json@@$$QAPBV34@@Z ; std::allocator_traits<std::allocator<Json::PathArgument const *> >::construct<Json::PathArgument const *,Json::PathArgument const *>
PUBLIC	??$construct@VPathArgument@Json@@V12@@?$allocator_traits@V?$allocator@VPathArgument@Json@@@std@@@std@@SAXAAV?$allocator@VPathArgument@Json@@@1@PAVPathArgument@Json@@$$QAV34@@Z ; std::allocator_traits<std::allocator<Json::PathArgument> >::construct<Json::PathArgument,Json::PathArgument>
PUBLIC	??$forward@AAVPathArgument@Json@@@std@@YAAAVPathArgument@Json@@AAV12@@Z ; std::forward<Json::PathArgument &>
PUBLIC	??$construct@VPathArgument@Json@@AAV12@@?$allocator_traits@V?$allocator@VPathArgument@Json@@@std@@@std@@SAXAAV?$allocator@VPathArgument@Json@@@1@PAVPathArgument@Json@@AAV34@@Z ; std::allocator_traits<std::allocator<Json::PathArgument> >::construct<Json::PathArgument,Json::PathArgument &>
PUBLIC	??$forward@ABVPathArgument@Json@@@std@@YAABVPathArgument@Json@@ABV12@@Z ; std::forward<Json::PathArgument const &>
PUBLIC	??$construct@VPathArgument@Json@@ABV12@@?$allocator_traits@V?$allocator@VPathArgument@Json@@@std@@@std@@SAXAAV?$allocator@VPathArgument@Json@@@1@PAVPathArgument@Json@@ABV34@@Z ; std::allocator_traits<std::allocator<Json::PathArgument> >::construct<Json::PathArgument,Json::PathArgument const &>
PUBLIC	??$_Move@AAD@std@@YA$$QADAAD@Z			; std::_Move<char &>
PUBLIC	??$destroy@U?$pair@$$CBVCZString@Value@Json@@V23@@std@@@?$allocator_traits@V?$allocator@U?$_Tree_node@U?$pair@$$CBVCZString@Value@Json@@V23@@std@@PAX@std@@@std@@@std@@SAXAAV?$allocator@U?$_Tree_node@U?$pair@$$CBVCZString@Value@Json@@V23@@std@@PAX@std@@@1@PAU?$pair@$$CBVCZString@Value@Json@@V23@@1@@Z ; std::allocator_traits<std::allocator<std::_Tree_node<std::pair<Json::Value::CZString const ,Json::Value>,void *> > >::destroy<std::pair<Json::Value::CZString const ,Json::Value> >
PUBLIC	??$_Iter_cat@V?$_Tree_iterator@V?$_Tree_val@U?$_Tree_simple_types@U?$pair@$$CBVCZString@Value@Json@@V23@@std@@@std@@@std@@@std@@@std@@YA?AUbidirectional_iterator_tag@0@ABV?$_Tree_iterator@V?$_Tree_val@U?$_Tree_simple_types@U?$pair@$$CBVCZString@Value@Json@@V23@@std@@@std@@@std@@@0@@Z ; std::_Iter_cat<std::_Tree_iterator<std::_Tree_val<std::_Tree_simple_types<std::pair<Json::Value::CZString const ,Json::Value> > > > >
PUBLIC	??$_Distance2@V?$_Tree_iterator@V?$_Tree_val@U?$_Tree_simple_types@U?$pair@$$CBVCZString@Value@Json@@V23@@std@@@std@@@std@@@std@@I@std@@YAXV?$_Tree_iterator@V?$_Tree_val@U?$_Tree_simple_types@U?$pair@$$CBVCZString@Value@Json@@V23@@std@@@std@@@std@@@0@0AAIUbidirectional_iterator_tag@0@@Z ; std::_Distance2<std::_Tree_iterator<std::_Tree_val<std::_Tree_simple_types<std::pair<Json::Value::CZString const ,Json::Value> > > >,unsigned int>
PUBLIC	??$construct@V?$basic_string@DU?$char_traits@D@std@@V?$allocator@D@2@@std@@V12@@?$allocator_traits@V?$allocator@V?$basic_string@DU?$char_traits@D@std@@V?$allocator@D@2@@std@@@std@@@std@@SAXAAV?$allocator@V?$basic_string@DU?$char_traits@D@std@@V?$allocator@D@2@@std@@@1@PAV?$basic_string@DU?$char_traits@D@std@@V?$allocator@D@2@@1@$$QAV31@@Z ; std::allocator_traits<std::allocator<std::basic_string<char,std::char_traits<char>,std::allocator<char> > > >::construct<std::basic_string<char,std::char_traits<char>,std::allocator<char> >,std::basic_string<char,std::char_traits<char>,std::allocator<char> > >
PUBLIC	??$forward@AAPAD@std@@YAAAPADAAPAD@Z		; std::forward<char * &>
PUBLIC	??$construct@PADAAPAD@?$allocator_traits@V?$allocator@D@std@@@std@@SAXAAV?$allocator@D@1@PAPADAAPAD@Z ; std::allocator_traits<std::allocator<char> >::construct<char *,char * &>
PUBLIC	??$destroy@PAD@?$allocator_traits@V?$allocator@D@std@@@std@@SAXAAV?$allocator@D@1@PAPAD@Z ; std::allocator_traits<std::allocator<char> >::destroy<char *>
PUBLIC	??$_Copy_nodes@U?$integral_constant@_N$0A@@std@@@?$_Tree@V?$_Tmap_traits@VCZString@Value@Json@@V23@U?$less@VCZString@Value@Json@@@std@@V?$allocator@U?$pair@$$CBVCZString@Value@Json@@V23@@std@@@5@$0A@@std@@@std@@IAEPAU?$_Tree_node@U?$pair@$$CBVCZString@Value@Json@@V23@@std@@PAX@1@PAU21@0U?$integral_constant@_N$0A@@1@@Z ; std::_Tree<std::_Tmap_traits<Json::Value::CZString,Json::Value,std::less<Json::Value::CZString>,std::allocator<std::pair<Json::Value::CZString const ,Json::Value> >,0> >::_Copy_nodes<std::integral_constant<bool,0> >
PUBLIC	??$_Uninitialized_move@PAV?$basic_string@DU?$char_traits@D@std@@V?$allocator@D@2@@std@@PAV12@U?$_Wrap_alloc@V?$allocator@V?$basic_string@DU?$char_traits@D@std@@V?$allocator@D@2@@std@@@std@@@2@@std@@YAPAV?$basic_string@DU?$char_traits@D@std@@V?$allocator@D@2@@0@PAV10@00AAU?$_Wrap_alloc@V?$allocator@V?$basic_string@DU?$char_traits@D@std@@V?$allocator@D@2@@std@@@std@@@0@@Z ; std::_Uninitialized_move<std::basic_string<char,std::char_traits<char>,std::allocator<char> > *,std::basic_string<char,std::char_traits<char>,std::allocator<char> > *,std::_Wrap_alloc<std::allocator<std::basic_string<char,std::char_traits<char>,std::allocator<char> > > > >
PUBLIC	??$_Ptr_cat@PBVPathArgument@Json@@PBV12@@std@@YA?AU_Scalar_ptr_iterator_tag@0@PAPBVPathArgument@Json@@0@Z ; std::_Ptr_cat<Json::PathArgument const *,Json::PathArgument const *>
PUBLIC	??$_Destroy_range@U?$_Wrap_alloc@V?$allocator@PBVPathArgument@Json@@@std@@@std@@@std@@YAXPAPBVPathArgument@Json@@0AAU?$_Wrap_alloc@V?$allocator@PBVPathArgument@Json@@@std@@@0@U_Scalar_ptr_iterator_tag@0@@Z ; std::_Destroy_range<std::_Wrap_alloc<std::allocator<Json::PathArgument const *> > >
PUBLIC	??$_Uninitialized_move@PAPBVPathArgument@Json@@PAPBV12@U?$_Wrap_alloc@V?$allocator@PBVPathArgument@Json@@@std@@@std@@@std@@YAPAPBVPathArgument@Json@@PAPBV12@00AAU?$_Wrap_alloc@V?$allocator@PBVPathArgument@Json@@@std@@@0@@Z ; std::_Uninitialized_move<Json::PathArgument const * *,Json::PathArgument const * *,std::_Wrap_alloc<std::allocator<Json::PathArgument const *> > >
PUBLIC	??$_Ptr_cat@VPathArgument@Json@@V12@@std@@YA?AU_Nonscalar_ptr_iterator_tag@0@PAVPathArgument@Json@@0@Z ; std::_Ptr_cat<Json::PathArgument,Json::PathArgument>
PUBLIC	??$_Destroy_range@U?$_Wrap_alloc@V?$allocator@VPathArgument@Json@@@std@@@std@@@std@@YAXPAVPathArgument@Json@@0AAU?$_Wrap_alloc@V?$allocator@VPathArgument@Json@@@std@@@0@U_Nonscalar_ptr_iterator_tag@0@@Z ; std::_Destroy_range<std::_Wrap_alloc<std::allocator<Json::PathArgument> > >
PUBLIC	??$_Uninitialized_move@PAVPathArgument@Json@@PAV12@U?$_Wrap_alloc@V?$allocator@VPathArgument@Json@@@std@@@std@@@std@@YAPAVPathArgument@Json@@PAV12@00AAU?$_Wrap_alloc@V?$allocator@VPathArgument@Json@@@std@@@0@@Z ; std::_Uninitialized_move<Json::PathArgument *,Json::PathArgument *,std::_Wrap_alloc<std::allocator<Json::PathArgument> > >
PUBLIC	??$forward@AAV?$_Tree_iterator@V?$_Tree_val@U?$_Tree_simple_types@U?$pair@$$CBVCZString@Value@Json@@V23@@std@@@std@@@std@@@std@@@std@@YAAAV?$_Tree_iterator@V?$_Tree_val@U?$_Tree_simple_types@U?$pair@$$CBVCZString@Value@Json@@V23@@std@@@std@@@std@@@0@AAV10@@Z ; std::forward<std::_Tree_iterator<std::_Tree_val<std::_Tree_simple_types<std::pair<Json::Value::CZString const ,Json::Value> > > > &>
PUBLIC	??$destroy@PAU?$_Tree_node@U?$pair@$$CBVCZString@Value@Json@@V23@@std@@PAX@std@@@?$allocator_traits@V?$allocator@U?$_Tree_node@U?$pair@$$CBVCZString@Value@Json@@V23@@std@@PAX@std@@@std@@@std@@SAXAAV?$allocator@U?$_Tree_node@U?$pair@$$CBVCZString@Value@Json@@V23@@std@@PAX@std@@@1@PAPAU?$_Tree_node@U?$pair@$$CBVCZString@Value@Json@@V23@@std@@PAX@1@@Z ; std::allocator_traits<std::allocator<std::_Tree_node<std::pair<Json::Value::CZString const ,Json::Value>,void *> > >::destroy<std::_Tree_node<std::pair<Json::Value::CZString const ,Json::Value>,void *> *>
PUBLIC	??$_Ptr_cat@V?$basic_string@DU?$char_traits@D@std@@V?$allocator@D@2@@std@@V12@@std@@YA?AU_Nonscalar_ptr_iterator_tag@0@PAV?$basic_string@DU?$char_traits@D@std@@V?$allocator@D@2@@0@0@Z ; std::_Ptr_cat<std::basic_string<char,std::char_traits<char>,std::allocator<char> >,std::basic_string<char,std::char_traits<char>,std::allocator<char> > >
PUBLIC	??$_Destroy_range@U?$_Wrap_alloc@V?$allocator@V?$basic_string@DU?$char_traits@D@std@@V?$allocator@D@2@@std@@@std@@@std@@@std@@YAXPAV?$basic_string@DU?$char_traits@D@std@@V?$allocator@D@2@@0@0AAU?$_Wrap_alloc@V?$allocator@V?$basic_string@DU?$char_traits@D@std@@V?$allocator@D@2@@std@@@std@@@0@U_Nonscalar_ptr_iterator_tag@0@@Z ; std::_Destroy_range<std::_Wrap_alloc<std::allocator<std::basic_string<char,std::char_traits<char>,std::allocator<char> > > > >
PUBLIC	??$forward@AAPAU?$_Tree_node@U?$pair@$$CBVCZString@Value@Json@@V23@@std@@PAX@std@@@std@@YAAAPAU?$_Tree_node@U?$pair@$$CBVCZString@Value@Json@@V23@@std@@PAX@0@AAPAU10@@Z ; std::forward<std::_Tree_node<std::pair<Json::Value::CZString const ,Json::Value>,void *> * &>
PUBLIC	??$construct@PAU?$_Tree_node@U?$pair@$$CBVCZString@Value@Json@@V23@@std@@PAX@std@@AAPAU12@@?$allocator_traits@V?$allocator@U?$_Tree_node@U?$pair@$$CBVCZString@Value@Json@@V23@@std@@PAX@std@@@std@@@std@@SAXAAV?$allocator@U?$_Tree_node@U?$pair@$$CBVCZString@Value@Json@@V23@@std@@PAX@std@@@1@PAPAU?$_Tree_node@U?$pair@$$CBVCZString@Value@Json@@V23@@std@@PAX@1@AAPAU31@@Z ; std::allocator_traits<std::allocator<std::_Tree_node<std::pair<Json::Value::CZString const ,Json::Value>,void *> > >::construct<std::_Tree_node<std::pair<Json::Value::CZString const ,Json::Value>,void *> *,std::_Tree_node<std::pair<Json::Value::CZString const ,Json::Value>,void *> * &>
PUBLIC	??$_Unchecked@V?$_Tree_val@U?$_Tree_simple_types@U?$pair@$$CBVCZString@Value@Json@@V23@@std@@@std@@@std@@@std@@YA?AV?$_Tree_unchecked_const_iterator@V?$_Tree_val@U?$_Tree_simple_types@U?$pair@$$CBVCZString@Value@Json@@V23@@std@@@std@@@std@@U_Iterator_base0@2@@0@V?$_Tree_const_iterator@V?$_Tree_val@U?$_Tree_simple_types@U?$pair@$$CBVCZString@Value@Json@@V23@@std@@@std@@@std@@@0@@Z ; std::_Unchecked<std::_Tree_val<std::_Tree_simple_types<std::pair<Json::Value::CZString const ,Json::Value> > > >
PUBLIC	??$_Lexicographical_compare@V?$_Tree_unchecked_const_iterator@V?$_Tree_val@U?$_Tree_simple_types@U?$pair@$$CBVCZString@Value@Json@@V23@@std@@@std@@@std@@U_Iterator_base0@2@@std@@V12@@std@@YA_NV?$_Tree_unchecked_const_iterator@V?$_Tree_val@U?$_Tree_simple_types@U?$pair@$$CBVCZString@Value@Json@@V23@@std@@@std@@@std@@U_Iterator_base0@2@@0@000@Z ; std::_Lexicographical_compare<std::_Tree_unchecked_const_iterator<std::_Tree_val<std::_Tree_simple_types<std::pair<Json::Value::CZString const ,Json::Value> > >,std::_Iterator_base0>,std::_Tree_unchecked_const_iterator<std::_Tree_val<std::_Tree_simple_types<std::pair<Json::Value::CZString const ,Json::Value> > >,std::_Iterator_base0> >
PUBLIC	??$_Equal@V?$_Tree_unchecked_const_iterator@V?$_Tree_val@U?$_Tree_simple_types@U?$pair@$$CBVCZString@Value@Json@@V23@@std@@@std@@@std@@U_Iterator_base0@2@@std@@V12@@std@@YA_NV?$_Tree_unchecked_const_iterator@V?$_Tree_val@U?$_Tree_simple_types@U?$pair@$$CBVCZString@Value@Json@@V23@@std@@@std@@@std@@U_Iterator_base0@2@@0@00@Z ; std::_Equal<std::_Tree_unchecked_const_iterator<std::_Tree_val<std::_Tree_simple_types<std::pair<Json::Value::CZString const ,Json::Value> > >,std::_Iterator_base0>,std::_Tree_unchecked_const_iterator<std::_Tree_val<std::_Tree_simple_types<std::pair<Json::Value::CZString const ,Json::Value> > >,std::_Iterator_base0> >
PUBLIC	??$construct@U?$pair@$$CBVCZString@Value@Json@@V23@@std@@AAU12@@?$_Wrap_alloc@V?$allocator@U?$_Tree_node@U?$pair@$$CBVCZString@Value@Json@@V23@@std@@PAX@std@@@std@@@std@@QAEXPAU?$pair@$$CBVCZString@Value@Json@@V23@@1@AAU21@@Z ; std::_Wrap_alloc<std::allocator<std::_Tree_node<std::pair<Json::Value::CZString const ,Json::Value>,void *> > >::construct<std::pair<Json::Value::CZString const ,Json::Value>,std::pair<Json::Value::CZString const ,Json::Value> &>
PUBLIC	??$_Insert_at@AAU?$pair@$$CBVCZString@Value@Json@@V23@@std@@PAU?$_Tree_node@U?$pair@$$CBVCZString@Value@Json@@V23@@std@@PAX@2@@?$_Tree@V?$_Tmap_traits@VCZString@Value@Json@@V23@U?$less@VCZString@Value@Json@@@std@@V?$allocator@U?$pair@$$CBVCZString@Value@Json@@V23@@std@@@5@$0A@@std@@@std@@IAE?AV?$_Tree_iterator@V?$_Tree_val@U?$_Tree_simple_types@U?$pair@$$CBVCZString@Value@Json@@V23@@std@@@std@@@std@@@1@_NPAU?$_Tree_node@U?$pair@$$CBVCZString@Value@Json@@V23@@std@@PAX@1@AAU?$pair@$$CBVCZString@Value@Json@@V23@@1@1@Z ; std::_Tree<std::_Tmap_traits<Json::Value::CZString,Json::Value,std::less<Json::Value::CZString>,std::allocator<std::pair<Json::Value::CZString const ,Json::Value> >,0> >::_Insert_at<std::pair<Json::Value::CZString const ,Json::Value> &,std::_Tree_node<std::pair<Json::Value::CZString const ,Json::Value>,void *> *>
PUBLIC	??$_Insert_nohint@AAU?$pair@$$CBVCZString@Value@Json@@V23@@std@@PAU?$_Tree_node@U?$pair@$$CBVCZString@Value@Json@@V23@@std@@PAX@2@@?$_Tree@V?$_Tmap_traits@VCZString@Value@Json@@V23@U?$less@VCZString@Value@Json@@@std@@V?$allocator@U?$pair@$$CBVCZString@Value@Json@@V23@@std@@@5@$0A@@std@@@std@@IAE?AU?$pair@V?$_Tree_iterator@V?$_Tree_val@U?$_Tree_simple_types@U?$pair@$$CBVCZString@Value@Json@@V23@@std@@@std@@@std@@@std@@_N@1@_NAAU?$pair@$$CBVCZString@Value@Json@@V23@@1@PAU?$_Tree_node@U?$pair@$$CBVCZString@Value@Json@@V23@@std@@PAX@1@@Z ; std::_Tree<std::_Tmap_traits<Json::Value::CZString,Json::Value,std::less<Json::Value::CZString>,std::allocator<std::pair<Json::Value::CZString const ,Json::Value> >,0> >::_Insert_nohint<std::pair<Json::Value::CZString const ,Json::Value> &,std::_Tree_node<std::pair<Json::Value::CZString const ,Json::Value>,void *> *>
PUBLIC	??$construct@PBVPathArgument@Json@@PBV12@@?$allocator@PBVPathArgument@Json@@@std@@QAEXPAPBVPathArgument@Json@@$$QAPBV23@@Z ; std::allocator<Json::PathArgument const *>::construct<Json::PathArgument const *,Json::PathArgument const *>
PUBLIC	??$construct@VPathArgument@Json@@V12@@?$allocator@VPathArgument@Json@@@std@@QAEXPAVPathArgument@Json@@$$QAV23@@Z ; std::allocator<Json::PathArgument>::construct<Json::PathArgument,Json::PathArgument>
PUBLIC	??$construct@VPathArgument@Json@@AAV12@@?$allocator@VPathArgument@Json@@@std@@QAEXPAVPathArgument@Json@@AAV23@@Z ; std::allocator<Json::PathArgument>::construct<Json::PathArgument,Json::PathArgument &>
PUBLIC	??$destroy@U?$pair@$$CBVCZString@Value@Json@@V23@@std@@@?$allocator@U?$_Tree_node@U?$pair@$$CBVCZString@Value@Json@@V23@@std@@PAX@std@@@std@@QAEXPAU?$pair@$$CBVCZString@Value@Json@@V23@@1@@Z ; std::allocator<std::_Tree_node<std::pair<Json::Value::CZString const ,Json::Value>,void *> >::destroy<std::pair<Json::Value::CZString const ,Json::Value> >
PUBLIC	??$construct@V?$basic_string@DU?$char_traits@D@std@@V?$allocator@D@2@@std@@V12@@?$allocator@V?$basic_string@DU?$char_traits@D@std@@V?$allocator@D@2@@std@@@std@@QAEXPAV?$basic_string@DU?$char_traits@D@std@@V?$allocator@D@2@@1@$$QAV21@@Z ; std::allocator<std::basic_string<char,std::char_traits<char>,std::allocator<char> > >::construct<std::basic_string<char,std::char_traits<char>,std::allocator<char> >,std::basic_string<char,std::char_traits<char>,std::allocator<char> > >
PUBLIC	??$construct@PADAAPAD@?$allocator@D@std@@QAEXPAPADAAPAD@Z ; std::allocator<char>::construct<char *,char * &>
PUBLIC	??$destroy@PAD@?$allocator@D@std@@QAEXPAPAD@Z	; std::allocator<char>::destroy<char *>
PUBLIC	??$_Copy_or_move@U?$integral_constant@_N$0A@@std@@U?$integral_constant@_N$00@2@U12@H@?$_Tree@V?$_Tmap_traits@VCZString@Value@Json@@V23@U?$less@VCZString@Value@Json@@@std@@V?$allocator@U?$pair@$$CBVCZString@Value@Json@@V23@@std@@@5@$0A@@std@@@std@@IAEPAU?$_Tree_node@U?$pair@$$CBVCZString@Value@Json@@V23@@std@@PAX@1@PAU21@U?$integral_constant@_N$0A@@1@U?$integral_constant@_N$00@1@1H@Z ; std::_Tree<std::_Tmap_traits<Json::Value::CZString,Json::Value,std::less<Json::Value::CZString>,std::allocator<std::pair<Json::Value::CZString const ,Json::Value> >,0> >::_Copy_or_move<std::integral_constant<bool,0>,std::integral_constant<bool,1>,std::integral_constant<bool,0>,int>
PUBLIC	??$_Unchecked@PAV?$basic_string@DU?$char_traits@D@std@@V?$allocator@D@2@@std@@@std@@YAPAV?$basic_string@DU?$char_traits@D@std@@V?$allocator@D@2@@0@PAV10@@Z ; std::_Unchecked<std::basic_string<char,std::char_traits<char>,std::allocator<char> > *>
PUBLIC	??$_Uninit_move@PAV?$basic_string@DU?$char_traits@D@std@@V?$allocator@D@2@@std@@PAV12@U?$_Wrap_alloc@V?$allocator@V?$basic_string@DU?$char_traits@D@std@@V?$allocator@D@2@@std@@@std@@@2@@std@@YAPAV?$basic_string@DU?$char_traits@D@std@@V?$allocator@D@2@@0@PAV10@00AAU?$_Wrap_alloc@V?$allocator@V?$basic_string@DU?$char_traits@D@std@@V?$allocator@D@2@@std@@@std@@@0@@Z ; std::_Uninit_move<std::basic_string<char,std::char_traits<char>,std::allocator<char> > *,std::basic_string<char,std::char_traits<char>,std::allocator<char> > *,std::_Wrap_alloc<std::allocator<std::basic_string<char,std::char_traits<char>,std::allocator<char> > > > >
PUBLIC	??$_Rechecked@PAV?$basic_string@DU?$char_traits@D@std@@V?$allocator@D@2@@std@@PAV12@@std@@YAAAPAV?$basic_string@DU?$char_traits@D@std@@V?$allocator@D@2@@0@AAPAV10@PAV10@@Z ; std::_Rechecked<std::basic_string<char,std::char_traits<char>,std::allocator<char> > *,std::basic_string<char,std::char_traits<char>,std::allocator<char> > *>
PUBLIC	??$_Unchecked@PAPBVPathArgument@Json@@@std@@YAPAPBVPathArgument@Json@@PAPBV12@@Z ; std::_Unchecked<Json::PathArgument const * *>
PUBLIC	??$_Uninit_move@PAPBVPathArgument@Json@@PAPBV12@U?$_Wrap_alloc@V?$allocator@PBVPathArgument@Json@@@std@@@std@@@std@@YAPAPBVPathArgument@Json@@PAPBV12@00AAU?$_Wrap_alloc@V?$allocator@PBVPathArgument@Json@@@std@@@0@@Z ; std::_Uninit_move<Json::PathArgument const * *,Json::PathArgument const * *,std::_Wrap_alloc<std::allocator<Json::PathArgument const *> > >
PUBLIC	??$_Rechecked@PAPBVPathArgument@Json@@PAPBV12@@std@@YAAAPAPBVPathArgument@Json@@AAPAPBV12@PAPBV12@@Z ; std::_Rechecked<Json::PathArgument const * *,Json::PathArgument const * *>
PUBLIC	??$destroy@VPathArgument@Json@@@?$_Wrap_alloc@V?$allocator@VPathArgument@Json@@@std@@@std@@QAEXPAVPathArgument@Json@@@Z ; std::_Wrap_alloc<std::allocator<Json::PathArgument> >::destroy<Json::PathArgument>
PUBLIC	??$_Unchecked@PAVPathArgument@Json@@@std@@YAPAVPathArgument@Json@@PAV12@@Z ; std::_Unchecked<Json::PathArgument *>
PUBLIC	??$_Uninit_move@PAVPathArgument@Json@@PAV12@U?$_Wrap_alloc@V?$allocator@VPathArgument@Json@@@std@@@std@@@std@@YAPAVPathArgument@Json@@PAV12@00AAU?$_Wrap_alloc@V?$allocator@VPathArgument@Json@@@std@@@0@@Z ; std::_Uninit_move<Json::PathArgument *,Json::PathArgument *,std::_Wrap_alloc<std::allocator<Json::PathArgument> > >
PUBLIC	??$_Rechecked@PAVPathArgument@Json@@PAV12@@std@@YAAAPAVPathArgument@Json@@AAPAV12@PAV12@@Z ; std::_Rechecked<Json::PathArgument *,Json::PathArgument *>
PUBLIC	??$destroy@PAU?$_Tree_node@U?$pair@$$CBVCZString@Value@Json@@V23@@std@@PAX@std@@@?$allocator@U?$_Tree_node@U?$pair@$$CBVCZString@Value@Json@@V23@@std@@PAX@std@@@std@@QAEXPAPAU?$_Tree_node@U?$pair@$$CBVCZString@Value@Json@@V23@@std@@PAX@1@@Z ; std::allocator<std::_Tree_node<std::pair<Json::Value::CZString const ,Json::Value>,void *> >::destroy<std::_Tree_node<std::pair<Json::Value::CZString const ,Json::Value>,void *> *>
PUBLIC	??$destroy@V?$basic_string@DU?$char_traits@D@std@@V?$allocator@D@2@@std@@@?$_Wrap_alloc@V?$allocator@V?$basic_string@DU?$char_traits@D@std@@V?$allocator@D@2@@std@@@std@@@std@@QAEXPAV?$basic_string@DU?$char_traits@D@std@@V?$allocator@D@2@@1@@Z ; std::_Wrap_alloc<std::allocator<std::basic_string<char,std::char_traits<char>,std::allocator<char> > > >::destroy<std::basic_string<char,std::char_traits<char>,std::allocator<char> > >
PUBLIC	??$construct@PAU?$_Tree_node@U?$pair@$$CBVCZString@Value@Json@@V23@@std@@PAX@std@@AAPAU12@@?$allocator@U?$_Tree_node@U?$pair@$$CBVCZString@Value@Json@@V23@@std@@PAX@std@@@std@@QAEXPAPAU?$_Tree_node@U?$pair@$$CBVCZString@Value@Json@@V23@@std@@PAX@1@AAPAU21@@Z ; std::allocator<std::_Tree_node<std::pair<Json::Value::CZString const ,Json::Value>,void *> >::construct<std::_Tree_node<std::pair<Json::Value::CZString const ,Json::Value>,void *> *,std::_Tree_node<std::pair<Json::Value::CZString const ,Json::Value>,void *> * &>
PUBLIC	??$?M$$CBVCZString@Value@Json@@V12@@std@@YA_NABU?$pair@$$CBVCZString@Value@Json@@V23@@0@0@Z ; std::operator<<Json::Value::CZString const ,Json::Value>
PUBLIC	??$?8$$CBVCZString@Value@Json@@V12@@std@@YA_NABU?$pair@$$CBVCZString@Value@Json@@V23@@0@0@Z ; std::operator==<Json::Value::CZString const ,Json::Value>
PUBLIC	??$construct@U?$pair@$$CBVCZString@Value@Json@@V23@@std@@AAU12@@?$allocator_traits@V?$allocator@U?$_Tree_node@U?$pair@$$CBVCZString@Value@Json@@V23@@std@@PAX@std@@@std@@@std@@SAXAAV?$allocator@U?$_Tree_node@U?$pair@$$CBVCZString@Value@Json@@V23@@std@@PAX@std@@@1@PAU?$pair@$$CBVCZString@Value@Json@@V23@@1@AAU31@@Z ; std::allocator_traits<std::allocator<std::_Tree_node<std::pair<Json::Value::CZString const ,Json::Value>,void *> > >::construct<std::pair<Json::Value::CZString const ,Json::Value>,std::pair<Json::Value::CZString const ,Json::Value> &>
PUBLIC	??$_Buynode_if_nil@AAU?$pair@$$CBVCZString@Value@Json@@V23@@std@@@?$_Tree@V?$_Tmap_traits@VCZString@Value@Json@@V23@U?$less@VCZString@Value@Json@@@std@@V?$allocator@U?$pair@$$CBVCZString@Value@Json@@V23@@std@@@5@$0A@@std@@@std@@IAEPAU?$_Tree_node@U?$pair@$$CBVCZString@Value@Json@@V23@@std@@PAX@1@PAU21@AAU?$pair@$$CBVCZString@Value@Json@@V23@@1@@Z ; std::_Tree<std::_Tmap_traits<Json::Value::CZString,Json::Value,std::less<Json::Value::CZString>,std::allocator<std::pair<Json::Value::CZString const ,Json::Value> >,0> >::_Buynode_if_nil<std::pair<Json::Value::CZString const ,Json::Value> &>
PUBLIC	??$?0V?$_Tree_iterator@V?$_Tree_val@U?$_Tree_simple_types@U?$pair@$$CBVCZString@Value@Json@@V23@@std@@@std@@@std@@@std@@_NX@?$pair@V?$_Tree_iterator@V?$_Tree_val@U?$_Tree_simple_types@U?$pair@$$CBVCZString@Value@Json@@V23@@std@@@std@@@std@@@std@@_N@std@@QAE@$$QAV?$_Tree_iterator@V?$_Tree_val@U?$_Tree_simple_types@U?$pair@$$CBVCZString@Value@Json@@V23@@std@@@std@@@std@@@1@$$QA_N@Z ; std::pair<std::_Tree_iterator<std::_Tree_val<std::_Tree_simple_types<std::pair<Json::Value::CZString const ,Json::Value> > > >,bool>::pair<std::_Tree_iterator<std::_Tree_val<std::_Tree_simple_types<std::pair<Json::Value::CZString const ,Json::Value> > > >,bool><std::_Tree_iterator<std::_Tree_val<std::_Tree_simple_types<std::pair<Json::Value::CZString const ,Json::Value> > > >,bool,void>
PUBLIC	??$?0AAV?$_Tree_iterator@V?$_Tree_val@U?$_Tree_simple_types@U?$pair@$$CBVCZString@Value@Json@@V23@@std@@@std@@@std@@@std@@_NX@?$pair@V?$_Tree_iterator@V?$_Tree_val@U?$_Tree_simple_types@U?$pair@$$CBVCZString@Value@Json@@V23@@std@@@std@@@std@@@std@@_N@std@@QAE@AAV?$_Tree_iterator@V?$_Tree_val@U?$_Tree_simple_types@U?$pair@$$CBVCZString@Value@Json@@V23@@std@@@std@@@std@@@1@$$QA_N@Z ; std::pair<std::_Tree_iterator<std::_Tree_val<std::_Tree_simple_types<std::pair<Json::Value::CZString const ,Json::Value> > > >,bool>::pair<std::_Tree_iterator<std::_Tree_val<std::_Tree_simple_types<std::pair<Json::Value::CZString const ,Json::Value> > > >,bool><std::_Tree_iterator<std::_Tree_val<std::_Tree_simple_types<std::pair<Json::Value::CZString const ,Json::Value> > > > &,bool,void>
PUBLIC	??$_Val_type@PAV?$basic_string@DU?$char_traits@D@std@@V?$allocator@D@2@@std@@@std@@YAPAV?$basic_string@DU?$char_traits@D@std@@V?$allocator@D@2@@0@PAV10@@Z ; std::_Val_type<std::basic_string<char,std::char_traits<char>,std::allocator<char> > *>
PUBLIC	??$_Uninit_move@PAV?$basic_string@DU?$char_traits@D@std@@V?$allocator@D@2@@std@@PAV12@V?$allocator@V?$basic_string@DU?$char_traits@D@std@@V?$allocator@D@2@@std@@@2@V12@@std@@YAPAV?$basic_string@DU?$char_traits@D@std@@V?$allocator@D@2@@0@PAV10@00AAU?$_Wrap_alloc@V?$allocator@V?$basic_string@DU?$char_traits@D@std@@V?$allocator@D@2@@std@@@std@@@0@0U_Nonscalar_ptr_iterator_tag@0@@Z ; std::_Uninit_move<std::basic_string<char,std::char_traits<char>,std::allocator<char> > *,std::basic_string<char,std::char_traits<char>,std::allocator<char> > *,std::allocator<std::basic_string<char,std::char_traits<char>,std::allocator<char> > >,std::basic_string<char,std::char_traits<char>,std::allocator<char> > >
PUBLIC	??$_Val_type@PAPBVPathArgument@Json@@@std@@YAPAPBVPathArgument@Json@@PAPBV12@@Z ; std::_Val_type<Json::PathArgument const * *>
PUBLIC	??$_Uninit_move@PBVPathArgument@Json@@PBV12@PBV12@@std@@YAPAPBVPathArgument@Json@@PAPBV12@00AAU?$_Wrap_alloc@V?$allocator@PBVPathArgument@Json@@@std@@@0@0U_Scalar_ptr_iterator_tag@0@@Z ; std::_Uninit_move<Json::PathArgument const *,Json::PathArgument const *,Json::PathArgument const *>
PUBLIC	??$destroy@VPathArgument@Json@@@?$allocator_traits@V?$allocator@VPathArgument@Json@@@std@@@std@@SAXAAV?$allocator@VPathArgument@Json@@@1@PAVPathArgument@Json@@@Z ; std::allocator_traits<std::allocator<Json::PathArgument> >::destroy<Json::PathArgument>
PUBLIC	??$_Val_type@PAVPathArgument@Json@@@std@@YAPAVPathArgument@Json@@PAV12@@Z ; std::_Val_type<Json::PathArgument *>
PUBLIC	??$_Uninit_move@PAVPathArgument@Json@@PAV12@V?$allocator@VPathArgument@Json@@@std@@V12@@std@@YAPAVPathArgument@Json@@PAV12@00AAU?$_Wrap_alloc@V?$allocator@VPathArgument@Json@@@std@@@0@0U_Nonscalar_ptr_iterator_tag@0@@Z ; std::_Uninit_move<Json::PathArgument *,Json::PathArgument *,std::allocator<Json::PathArgument>,Json::PathArgument>
PUBLIC	??$destroy@V?$basic_string@DU?$char_traits@D@std@@V?$allocator@D@2@@std@@@?$allocator_traits@V?$allocator@V?$basic_string@DU?$char_traits@D@std@@V?$allocator@D@2@@std@@@std@@@std@@SAXAAV?$allocator@V?$basic_string@DU?$char_traits@D@std@@V?$allocator@D@2@@std@@@1@PAV?$basic_string@DU?$char_traits@D@std@@V?$allocator@D@2@@1@@Z ; std::allocator_traits<std::allocator<std::basic_string<char,std::char_traits<char>,std::allocator<char> > > >::destroy<std::basic_string<char,std::char_traits<char>,std::allocator<char> > >
PUBLIC	??$construct@U?$pair@$$CBVCZString@Value@Json@@V23@@std@@AAU12@@?$allocator@U?$_Tree_node@U?$pair@$$CBVCZString@Value@Json@@V23@@std@@PAX@std@@@std@@QAEXPAU?$pair@$$CBVCZString@Value@Json@@V23@@1@AAU21@@Z ; std::allocator<std::_Tree_node<std::pair<Json::Value::CZString const ,Json::Value>,void *> >::construct<std::pair<Json::Value::CZString const ,Json::Value>,std::pair<Json::Value::CZString const ,Json::Value> &>
PUBLIC	??$forward@V?$_Tree_iterator@V?$_Tree_val@U?$_Tree_simple_types@U?$pair@$$CBVCZString@Value@Json@@V23@@std@@@std@@@std@@@std@@@std@@YA$$QAV?$_Tree_iterator@V?$_Tree_val@U?$_Tree_simple_types@U?$pair@$$CBVCZString@Value@Json@@V23@@std@@@std@@@std@@@0@AAV10@@Z ; std::forward<std::_Tree_iterator<std::_Tree_val<std::_Tree_simple_types<std::pair<Json::Value::CZString const ,Json::Value> > > > >
PUBLIC	??$forward@_N@std@@YA$$QA_NAA_N@Z		; std::forward<bool>
PUBLIC	??$destroy@VPathArgument@Json@@@?$allocator@VPathArgument@Json@@@std@@QAEXPAVPathArgument@Json@@@Z ; std::allocator<Json::PathArgument>::destroy<Json::PathArgument>
PUBLIC	??$destroy@V?$basic_string@DU?$char_traits@D@std@@V?$allocator@D@2@@std@@@?$allocator@V?$basic_string@DU?$char_traits@D@std@@V?$allocator@D@2@@std@@@std@@QAEXPAV?$basic_string@DU?$char_traits@D@std@@V?$allocator@D@2@@1@@Z ; std::allocator<std::basic_string<char,std::char_traits<char>,std::allocator<char> > >::destroy<std::basic_string<char,std::char_traits<char>,std::allocator<char> > >
PUBLIC	?npos@?$basic_string@DU?$char_traits@D@std@@V?$allocator@D@2@@std@@2IB ; std::basic_string<char,std::char_traits<char>,std::allocator<char> >::npos
PUBLIC	??_7runtime_error@std@@6B@			; std::runtime_error::`vftable'
PUBLIC	__TI2?AVruntime_error@std@@
PUBLIC	__CTA2?AVruntime_error@std@@
PUBLIC	??_R0?AVruntime_error@std@@@8			; std::runtime_error `RTTI Type Descriptor'
PUBLIC	__CT??_R0?AVruntime_error@std@@@8??0runtime_error@std@@QAE@ABV01@@Z12
PUBLIC	??_R0?AVexception@std@@@8			; std::exception `RTTI Type Descriptor'
PUBLIC	__CT??_R0?AVexception@std@@@8??0exception@std@@QAE@ABV01@@Z12
PUBLIC	??_C@_05LAPONLG@false?$AA@			; `string'
PUBLIC	??_C@_04LOAJBDKD@true?$AA@			; `string'
PUBLIC	??_C@_00CNPNBAHC@?$AA@				; `string'
PUBLIC	??_7error_category@std@@6B@			; std::error_category::`vftable'
PUBLIC	??_7_Generic_error_category@std@@6B@		; std::_Generic_error_category::`vftable'
PUBLIC	??_C@_07DCLBNMLN@generic?$AA@			; `string'
PUBLIC	??_C@_0O@BFJCFAAK@unknown?5error?$AA@		; `string'
PUBLIC	??_7_Iostream_error_category@std@@6B@		; std::_Iostream_error_category::`vftable'
PUBLIC	??_C@_08LLGCOLLL@iostream?$AA@			; `string'
PUBLIC	??_C@_0BG@PADBLCHM@iostream?5stream?5error?$AA@	; `string'
PUBLIC	??_7_System_error_category@std@@6B@		; std::_System_error_category::`vftable'
PUBLIC	??_C@_06FHFOAHML@system?$AA@			; `string'
PUBLIC	?_Generic_object@?$_Error_objects@H@std@@2V_Generic_error_category@2@A ; std::_Error_objects<int>::_Generic_object
PUBLIC	?_Iostream_object@?$_Error_objects@H@std@@2V_Iostream_error_category@2@A ; std::_Error_objects<int>::_Iostream_object
PUBLIC	?_System_object@?$_Error_objects@H@std@@2V_System_error_category@2@A ; std::_Error_objects<int>::_System_object
PUBLIC	?id@?$num_put@DV?$back_insert_iterator@V?$basic_string@DU?$char_traits@D@std@@V?$allocator@D@2@@std@@@std@@@std@@2V0locale@2@A ; std::num_put<char,std::back_insert_iterator<std::basic_string<char,std::char_traits<char>,std::allocator<char> > > >::id
PUBLIC	?id@?$num_put@_WV?$back_insert_iterator@V?$basic_string@_WU?$char_traits@_W@std@@V?$allocator@_W@2@@std@@@std@@@std@@2V0locale@2@A ; std::num_put<wchar_t,std::back_insert_iterator<std::basic_string<wchar_t,std::char_traits<wchar_t>,std::allocator<wchar_t> > > >::id
PUBLIC	?null@Value@Json@@2V12@B			; Json::Value::null
PUBLIC	??_7ValueAllocator@Json@@6B@			; Json::ValueAllocator::`vftable'
PUBLIC	??_7StyledWriter@Json@@6B@			; Json::StyledWriter::`vftable'
PUBLIC	??_7DefaultValueAllocator@Json@@6B@		; Json::DefaultValueAllocator::`vftable'
PUBLIC	??_C@_0BL@DKGNIMPN@Comments?5must?5start?5with?5?1?$AA@ ; `string'
PUBLIC	??_C@_0CC@BNBMBIGA@Type?5is?5not?5convertible?5to?5strin@ ; `string'
PUBLIC	??_C@_0CE@MKMAPPKF@integer?5out?5of?5signed?5integer?5ra@ ; `string'
PUBLIC	??_C@_0CB@PBEICPFN@Real?5out?5of?5signed?5integer?5range@ ; `string'
PUBLIC	??_C@_0BP@KDDCHLKA@Type?5is?5not?5convertible?5to?5int?$AA@ ; `string'
PUBLIC	??_C@_0DK@NAHIGMFE@Negative?5integer?5can?5not?5be?5conv@ ; `string'
PUBLIC	??_C@_0CD@PGCLDEBG@Real?5out?5of?5unsigned?5integer?5ran@ ; `string'
PUBLIC	??_C@_0CA@LEFAEJPN@Type?5is?5not?5convertible?5to?5uint?$AA@ ; `string'
PUBLIC	??_C@_0CC@ICOHKFIF@Type?5is?5not?5convertible?5to?5doubl@ ; `string'
PUBLIC	??_C@_02GLFAOOJA@?$FL?4?$AA@			; `string'
PUBLIC	??_C@_0BD@OLBABOEK@vector?$DMT?$DO?5too?5long?$AA@ ; `string'
PUBLIC	??_C@_0BA@JFNIOLAK@string?5too?5long?$AA@	; `string'
PUBLIC	??_C@_0BI@CFPLBAOH@invalid?5string?5position?$AA@ ; `string'
PUBLIC	??_C@_0BE@JONHPENG@map?1set?$DMT?$DO?5too?5long?$AA@ ; `string'
PUBLIC	??_R1A@?0A@EA@exception@std@@8			; std::exception::`RTTI Base Class Descriptor at (0,-1,0,64)'
PUBLIC	??_R3exception@std@@8				; std::exception::`RTTI Class Hierarchy Descriptor'
PUBLIC	??_R2exception@std@@8				; std::exception::`RTTI Base Class Array'
PUBLIC	??_R4runtime_error@std@@6B@			; std::runtime_error::`RTTI Complete Object Locator'
PUBLIC	??_R3runtime_error@std@@8			; std::runtime_error::`RTTI Class Hierarchy Descriptor'
PUBLIC	??_R2runtime_error@std@@8			; std::runtime_error::`RTTI Base Class Array'
PUBLIC	??_R1A@?0A@EA@runtime_error@std@@8		; std::runtime_error::`RTTI Base Class Descriptor at (0,-1,0,64)'
PUBLIC	??_R4error_category@std@@6B@			; std::error_category::`RTTI Complete Object Locator'
PUBLIC	??_R0?AVerror_category@std@@@8			; std::error_category `RTTI Type Descriptor'
PUBLIC	??_R3error_category@std@@8			; std::error_category::`RTTI Class Hierarchy Descriptor'
PUBLIC	??_R2error_category@std@@8			; std::error_category::`RTTI Base Class Array'
PUBLIC	??_R1A@?0A@EA@error_category@std@@8		; std::error_category::`RTTI Base Class Descriptor at (0,-1,0,64)'
PUBLIC	??_R4_Generic_error_category@std@@6B@		; std::_Generic_error_category::`RTTI Complete Object Locator'
PUBLIC	??_R0?AV_Generic_error_category@std@@@8		; std::_Generic_error_category `RTTI Type Descriptor'
PUBLIC	??_R3_Generic_error_category@std@@8		; std::_Generic_error_category::`RTTI Class Hierarchy Descriptor'
PUBLIC	??_R2_Generic_error_category@std@@8		; std::_Generic_error_category::`RTTI Base Class Array'
PUBLIC	??_R1A@?0A@EA@_Generic_error_category@std@@8	; std::_Generic_error_category::`RTTI Base Class Descriptor at (0,-1,0,64)'
PUBLIC	??_R4_Iostream_error_category@std@@6B@		; std::_Iostream_error_category::`RTTI Complete Object Locator'
PUBLIC	??_R0?AV_Iostream_error_category@std@@@8	; std::_Iostream_error_category `RTTI Type Descriptor'
PUBLIC	??_R3_Iostream_error_category@std@@8		; std::_Iostream_error_category::`RTTI Class Hierarchy Descriptor'
PUBLIC	??_R2_Iostream_error_category@std@@8		; std::_Iostream_error_category::`RTTI Base Class Array'
PUBLIC	??_R1A@?0A@EA@_Iostream_error_category@std@@8	; std::_Iostream_error_category::`RTTI Base Class Descriptor at (0,-1,0,64)'
PUBLIC	??_R4_System_error_category@std@@6B@		; std::_System_error_category::`RTTI Complete Object Locator'
PUBLIC	??_R0?AV_System_error_category@std@@@8		; std::_System_error_category `RTTI Type Descriptor'
PUBLIC	??_R3_System_error_category@std@@8		; std::_System_error_category::`RTTI Class Hierarchy Descriptor'
PUBLIC	??_R2_System_error_category@std@@8		; std::_System_error_category::`RTTI Base Class Array'
PUBLIC	??_R1A@?0A@EA@_System_error_category@std@@8	; std::_System_error_category::`RTTI Base Class Descriptor at (0,-1,0,64)'
PUBLIC	??_R1A@?0A@EA@Writer@Json@@8			; Json::Writer::`RTTI Base Class Descriptor at (0,-1,0,64)'
PUBLIC	??_R0?AVWriter@Json@@@8				; Json::Writer `RTTI Type Descriptor'
PUBLIC	??_R3Writer@Json@@8				; Json::Writer::`RTTI Class Hierarchy Descriptor'
PUBLIC	??_R2Writer@Json@@8				; Json::Writer::`RTTI Base Class Array'
PUBLIC	??_R4StyledWriter@Json@@6B@			; Json::StyledWriter::`RTTI Complete Object Locator'
PUBLIC	??_R0?AVStyledWriter@Json@@@8			; Json::StyledWriter `RTTI Type Descriptor'
PUBLIC	??_R3StyledWriter@Json@@8			; Json::StyledWriter::`RTTI Class Hierarchy Descriptor'
PUBLIC	??_R2StyledWriter@Json@@8			; Json::StyledWriter::`RTTI Base Class Array'
PUBLIC	??_R1A@?0A@EA@StyledWriter@Json@@8		; Json::StyledWriter::`RTTI Base Class Descriptor at (0,-1,0,64)'
PUBLIC	??_R4ValueAllocator@Json@@6B@			; Json::ValueAllocator::`RTTI Complete Object Locator'
PUBLIC	??_R0?AVValueAllocator@Json@@@8			; Json::ValueAllocator `RTTI Type Descriptor'
PUBLIC	??_R3ValueAllocator@Json@@8			; Json::ValueAllocator::`RTTI Class Hierarchy Descriptor'
PUBLIC	??_R2ValueAllocator@Json@@8			; Json::ValueAllocator::`RTTI Base Class Array'
PUBLIC	??_R1A@?0A@EA@ValueAllocator@Json@@8		; Json::ValueAllocator::`RTTI Base Class Descriptor at (0,-1,0,64)'
PUBLIC	??_R4DefaultValueAllocator@Json@@6B@		; Json::DefaultValueAllocator::`RTTI Complete Object Locator'
PUBLIC	??_R0?AVDefaultValueAllocator@Json@@@8		; Json::DefaultValueAllocator `RTTI Type Descriptor'
PUBLIC	??_R3DefaultValueAllocator@Json@@8		; Json::DefaultValueAllocator::`RTTI Class Hierarchy Descriptor'
PUBLIC	??_R2DefaultValueAllocator@Json@@8		; Json::DefaultValueAllocator::`RTTI Base Class Array'
PUBLIC	??_R1A@?0A@EA@DefaultValueAllocator@Json@@8	; Json::DefaultValueAllocator::`RTTI Base Class Descriptor at (0,-1,0,64)'
PUBLIC	__real@0000000000000000
PUBLIC	__real@3ff0000000000000
PUBLIC	__real@41dfffffffc00000
PUBLIC	__real@41efffffffe00000
PUBLIC	__real@c1e0000000000000
PUBLIC	__xmm@41f00000000000000000000000000000
EXTRN	??_L@YGXPAXIHP6EX0@Z1@Z:PROC			; `eh vector constructor iterator'
EXTRN	??_M@YGXPAXIHP6EX0@Z@Z:PROC			; `eh vector destructor iterator'
EXTRN	__purecall:PROC
EXTRN	??2@YAPAXI@Z:PROC				; operator new
EXTRN	??3@YAXPAX@Z:PROC				; operator delete
EXTRN	??_U@YAPAXI@Z:PROC				; operator new[]
EXTRN	??_V@YAXPAX@Z:PROC				; operator delete[]
EXTRN	_atexit:PROC
EXTRN	__imp___hypot:PROC
EXTRN	__imp__free:PROC
EXTRN	__imp__malloc:PROC
EXTRN	__imp__memmove:PROC
EXTRN	__imp__strchr:PROC
EXTRN	__imp_??0exception@std@@QAE@ABQBD@Z:PROC
EXTRN	__imp_??0exception@std@@QAE@ABV01@@Z:PROC
EXTRN	__imp_??1exception@std@@UAE@XZ:PROC
EXTRN	__imp_?_Orphan_all@_Container_base0@std@@QAEXXZ:PROC
EXTRN	__imp_?_Swap_all@_Container_base0@std@@QAEXAAU12@@Z:PROC
EXTRN	__imp_?_Xbad_alloc@std@@YAXXZ:PROC
EXTRN	__imp_?_Xlength_error@std@@YAXPBD@Z:PROC
EXTRN	__imp_?_Xout_of_range@std@@YAXPBD@Z:PROC
EXTRN	??_Eruntime_error@std@@UAEPAXI@Z:PROC		; std::runtime_error::`vector deleting destructor'
EXTRN	__imp_??0id@locale@std@@QAE@I@Z:PROC
EXTRN	??_Eerror_category@std@@UAEPAXI@Z:PROC		; std::error_category::`vector deleting destructor'
EXTRN	__imp_?_Syserror_map@std@@YAPBDH@Z:PROC
EXTRN	__imp_?_Winerror_map@std@@YAPBDH@Z:PROC
EXTRN	??_E_Generic_error_category@std@@UAEPAXI@Z:PROC	; std::_Generic_error_category::`vector deleting destructor'
EXTRN	??_E_Iostream_error_category@std@@UAEPAXI@Z:PROC ; std::_Iostream_error_category::`vector deleting destructor'
EXTRN	??_E_System_error_category@std@@UAEPAXI@Z:PROC	; std::_System_error_category::`vector deleting destructor'
EXTRN	??_EValueAllocator@Json@@UAEPAXI@Z:PROC		; Json::ValueAllocator::`vector deleting destructor'
EXTRN	??1Writer@Json@@UAE@XZ:PROC			; Json::Writer::~Writer
EXTRN	??0StyledWriter@Json@@QAE@XZ:PROC		; Json::StyledWriter::StyledWriter
EXTRN	?write@StyledWriter@Json@@UAE?AV?$basic_string@DU?$char_traits@D@std@@V?$allocator@D@2@@std@@ABVValue@2@@Z:PROC ; Json::StyledWriter::write
EXTRN	??_EStyledWriter@Json@@UAEPAXI@Z:PROC		; Json::StyledWriter::`vector deleting destructor'
EXTRN	??_EDefaultValueAllocator@Json@@UAEPAXI@Z:PROC	; Json::DefaultValueAllocator::`vector deleting destructor'
EXTRN	??0exception@std@@QAE@ABV01@@Z:PROC		; std::exception::exception
EXTRN	?what@exception@std@@UBEPBDXZ:PROC		; std::exception::what
EXTRN	@__security_check_cookie@4:PROC
EXTRN	__CxxThrowException@8:PROC
EXTRN	___CxxFrameHandler3:PROC
EXTRN	__dtoui3:PROC
EXTRN	_memcpy:PROC
EXTRN	??_7type_info@@6B@:QWORD			; type_info::`vftable'
EXTRN	___security_cookie:DWORD
EXTRN	__fltused:DWORD
_BSS	SEGMENT
_piecewise_construct DB 01H DUP (?)
	ALIGN	4

_allocator_arg DB 01H DUP (?)
_BSS	ENDS
;	COMDAT ?_Generic_object@?$_Error_objects@H@std@@2V_Generic_error_category@2@A
_BSS	SEGMENT
?_Generic_object@?$_Error_objects@H@std@@2V_Generic_error_category@2@A DD 01H DUP (?) ; std::_Error_objects<int>::_Generic_object
_BSS	ENDS
;	COMDAT ?_Iostream_object@?$_Error_objects@H@std@@2V_Iostream_error_category@2@A
_BSS	SEGMENT
?_Iostream_object@?$_Error_objects@H@std@@2V_Iostream_error_category@2@A DD 01H DUP (?) ; std::_Error_objects<int>::_Iostream_object
_BSS	ENDS
;	COMDAT ?_System_object@?$_Error_objects@H@std@@2V_System_error_category@2@A
_BSS	SEGMENT
?_System_object@?$_Error_objects@H@std@@2V_System_error_category@2@A DD 01H DUP (?) ; std::_Error_objects<int>::_System_object
_BSS	ENDS
;	COMDAT ?id@?$num_put@DV?$back_insert_iterator@V?$basic_string@DU?$char_traits@D@std@@V?$allocator@D@2@@std@@@std@@@std@@2V0locale@2@A
_BSS	SEGMENT
?id@?$num_put@DV?$back_insert_iterator@V?$basic_string@DU?$char_traits@D@std@@V?$allocator@D@2@@std@@@std@@@std@@2V0locale@2@A DD 01H DUP (?) ; std::num_put<char,std::back_insert_iterator<std::basic_string<char,std::char_traits<char>,std::allocator<char> > > >::id
_BSS	ENDS
;	COMDAT ?id@?$num_put@_WV?$back_insert_iterator@V?$basic_string@_WU?$char_traits@_W@std@@V?$allocator@_W@2@@std@@@std@@@std@@2V0locale@2@A
_BSS	SEGMENT
?id@?$num_put@_WV?$back_insert_iterator@V?$basic_string@_WU?$char_traits@_W@std@@V?$allocator@_W@2@@std@@@std@@@std@@2V0locale@2@A DD 01H DUP (?) ; std::num_put<wchar_t,std::back_insert_iterator<std::basic_string<wchar_t,std::char_traits<wchar_t>,std::allocator<wchar_t> > > >::id
_BSS	ENDS
_BSS	SEGMENT
	ALIGN	4

_ignore	DB	01H DUP (?)
	ALIGN	4

__Tuple_alloc DB 01H DUP (?)
	ALIGN	4

?null@Value@Json@@2V12@B DB 010H DUP (?)		; Json::Value::null
_BSS	ENDS
;	COMDAT ?defaultAllocator@?1??valueAllocator@Json@@YAAAPAVValueAllocator@2@XZ@4VDefaultValueAllocator@2@A
_BSS	SEGMENT
?defaultAllocator@?1??valueAllocator@Json@@YAAAPAVValueAllocator@2@XZ@4VDefaultValueAllocator@2@A DD 01H DUP (?) ; `Json::valueAllocator'::`2'::defaultAllocator
_BSS	ENDS
;	COMDAT ?$S1@?1??valueAllocator@Json@@YAAAPAVValueAllocator@2@XZ@4IA
_BSS	SEGMENT
?$S1@?1??valueAllocator@Json@@YAAAPAVValueAllocator@2@XZ@4IA DD 01H DUP (?) ; `Json::valueAllocator'::`2'::$S1
_BSS	ENDS
_BSS	SEGMENT
_dummyValueAllocatorInitializer DB 01H DUP (?)
_BSS	ENDS
CRT$XCU	SEGMENT
_piecewise_construct$initializer$ DD FLAT:??__Epiecewise_construct@std@@YAXXZ
CRT$XCU	ENDS
;	COMDAT __xmm@41f00000000000000000000000000000
CONST	SEGMENT
__xmm@41f00000000000000000000000000000 DB 00H, 00H, 00H, 00H, 00H, 00H, 00H
	DB	00H, 00H, 00H, 00H, 00H, 00H, 00H, 0f0H, 'A'
CONST	ENDS
;	COMDAT __real@c1e0000000000000
CONST	SEGMENT
__real@c1e0000000000000 DQ 0c1e0000000000000r	; -2.14748e+009
CONST	ENDS
;	COMDAT __real@41efffffffe00000
CONST	SEGMENT
__real@41efffffffe00000 DQ 041efffffffe00000r	; 4.29497e+009
CONST	ENDS
;	COMDAT __real@41dfffffffc00000
CONST	SEGMENT
__real@41dfffffffc00000 DQ 041dfffffffc00000r	; 2.14748e+009
CONST	ENDS
;	COMDAT __real@3ff0000000000000
CONST	SEGMENT
__real@3ff0000000000000 DQ 03ff0000000000000r	; 1
CONST	ENDS
;	COMDAT __real@0000000000000000
CONST	SEGMENT
__real@0000000000000000 DQ 00000000000000000r	; 0
CONST	ENDS
;	COMDAT ??_R1A@?0A@EA@DefaultValueAllocator@Json@@8
rdata$r	SEGMENT
??_R1A@?0A@EA@DefaultValueAllocator@Json@@8 DD FLAT:??_R0?AVDefaultValueAllocator@Json@@@8 ; Json::DefaultValueAllocator::`RTTI Base Class Descriptor at (0,-1,0,64)'
	DD	01H
	DD	00H
	DD	0ffffffffH
	DD	00H
	DD	040H
	DD	FLAT:??_R3DefaultValueAllocator@Json@@8
rdata$r	ENDS
;	COMDAT ??_R2DefaultValueAllocator@Json@@8
rdata$r	SEGMENT
??_R2DefaultValueAllocator@Json@@8 DD FLAT:??_R1A@?0A@EA@DefaultValueAllocator@Json@@8 ; Json::DefaultValueAllocator::`RTTI Base Class Array'
	DD	FLAT:??_R1A@?0A@EA@ValueAllocator@Json@@8
rdata$r	ENDS
;	COMDAT ??_R3DefaultValueAllocator@Json@@8
rdata$r	SEGMENT
??_R3DefaultValueAllocator@Json@@8 DD 00H		; Json::DefaultValueAllocator::`RTTI Class Hierarchy Descriptor'
	DD	00H
	DD	02H
	DD	FLAT:??_R2DefaultValueAllocator@Json@@8
rdata$r	ENDS
;	COMDAT ??_R0?AVDefaultValueAllocator@Json@@@8
data$r	SEGMENT
??_R0?AVDefaultValueAllocator@Json@@@8 DD FLAT:??_7type_info@@6B@ ; Json::DefaultValueAllocator `RTTI Type Descriptor'
	DD	00H
	DB	'.?AVDefaultValueAllocator@Json@@', 00H
data$r	ENDS
;	COMDAT ??_R4DefaultValueAllocator@Json@@6B@
rdata$r	SEGMENT
??_R4DefaultValueAllocator@Json@@6B@ DD 00H		; Json::DefaultValueAllocator::`RTTI Complete Object Locator'
	DD	00H
	DD	00H
	DD	FLAT:??_R0?AVDefaultValueAllocator@Json@@@8
	DD	FLAT:??_R3DefaultValueAllocator@Json@@8
rdata$r	ENDS
;	COMDAT ??_R1A@?0A@EA@ValueAllocator@Json@@8
rdata$r	SEGMENT
??_R1A@?0A@EA@ValueAllocator@Json@@8 DD FLAT:??_R0?AVValueAllocator@Json@@@8 ; Json::ValueAllocator::`RTTI Base Class Descriptor at (0,-1,0,64)'
	DD	00H
	DD	00H
	DD	0ffffffffH
	DD	00H
	DD	040H
	DD	FLAT:??_R3ValueAllocator@Json@@8
rdata$r	ENDS
;	COMDAT ??_R2ValueAllocator@Json@@8
rdata$r	SEGMENT
??_R2ValueAllocator@Json@@8 DD FLAT:??_R1A@?0A@EA@ValueAllocator@Json@@8 ; Json::ValueAllocator::`RTTI Base Class Array'
rdata$r	ENDS
;	COMDAT ??_R3ValueAllocator@Json@@8
rdata$r	SEGMENT
??_R3ValueAllocator@Json@@8 DD 00H			; Json::ValueAllocator::`RTTI Class Hierarchy Descriptor'
	DD	00H
	DD	01H
	DD	FLAT:??_R2ValueAllocator@Json@@8
rdata$r	ENDS
;	COMDAT ??_R0?AVValueAllocator@Json@@@8
data$r	SEGMENT
??_R0?AVValueAllocator@Json@@@8 DD FLAT:??_7type_info@@6B@ ; Json::ValueAllocator `RTTI Type Descriptor'
	DD	00H
	DB	'.?AVValueAllocator@Json@@', 00H
data$r	ENDS
;	COMDAT ??_R4ValueAllocator@Json@@6B@
rdata$r	SEGMENT
??_R4ValueAllocator@Json@@6B@ DD 00H			; Json::ValueAllocator::`RTTI Complete Object Locator'
	DD	00H
	DD	00H
	DD	FLAT:??_R0?AVValueAllocator@Json@@@8
	DD	FLAT:??_R3ValueAllocator@Json@@8
rdata$r	ENDS
;	COMDAT ??_R1A@?0A@EA@StyledWriter@Json@@8
rdata$r	SEGMENT
??_R1A@?0A@EA@StyledWriter@Json@@8 DD FLAT:??_R0?AVStyledWriter@Json@@@8 ; Json::StyledWriter::`RTTI Base Class Descriptor at (0,-1,0,64)'
	DD	01H
	DD	00H
	DD	0ffffffffH
	DD	00H
	DD	040H
	DD	FLAT:??_R3StyledWriter@Json@@8
rdata$r	ENDS
;	COMDAT ??_R2StyledWriter@Json@@8
rdata$r	SEGMENT
??_R2StyledWriter@Json@@8 DD FLAT:??_R1A@?0A@EA@StyledWriter@Json@@8 ; Json::StyledWriter::`RTTI Base Class Array'
	DD	FLAT:??_R1A@?0A@EA@Writer@Json@@8
rdata$r	ENDS
;	COMDAT ??_R3StyledWriter@Json@@8
rdata$r	SEGMENT
??_R3StyledWriter@Json@@8 DD 00H			; Json::StyledWriter::`RTTI Class Hierarchy Descriptor'
	DD	00H
	DD	02H
	DD	FLAT:??_R2StyledWriter@Json@@8
rdata$r	ENDS
;	COMDAT ??_R0?AVStyledWriter@Json@@@8
data$r	SEGMENT
??_R0?AVStyledWriter@Json@@@8 DD FLAT:??_7type_info@@6B@ ; Json::StyledWriter `RTTI Type Descriptor'
	DD	00H
	DB	'.?AVStyledWriter@Json@@', 00H
data$r	ENDS
;	COMDAT ??_R4StyledWriter@Json@@6B@
rdata$r	SEGMENT
??_R4StyledWriter@Json@@6B@ DD 00H			; Json::StyledWriter::`RTTI Complete Object Locator'
	DD	00H
	DD	00H
	DD	FLAT:??_R0?AVStyledWriter@Json@@@8
	DD	FLAT:??_R3StyledWriter@Json@@8
rdata$r	ENDS
;	COMDAT ??_R2Writer@Json@@8
rdata$r	SEGMENT
??_R2Writer@Json@@8 DD FLAT:??_R1A@?0A@EA@Writer@Json@@8 ; Json::Writer::`RTTI Base Class Array'
rdata$r	ENDS
;	COMDAT ??_R3Writer@Json@@8
rdata$r	SEGMENT
??_R3Writer@Json@@8 DD 00H				; Json::Writer::`RTTI Class Hierarchy Descriptor'
	DD	00H
	DD	01H
	DD	FLAT:??_R2Writer@Json@@8
rdata$r	ENDS
;	COMDAT ??_R0?AVWriter@Json@@@8
data$r	SEGMENT
??_R0?AVWriter@Json@@@8 DD FLAT:??_7type_info@@6B@	; Json::Writer `RTTI Type Descriptor'
	DD	00H
	DB	'.?AVWriter@Json@@', 00H
data$r	ENDS
;	COMDAT ??_R1A@?0A@EA@Writer@Json@@8
rdata$r	SEGMENT
??_R1A@?0A@EA@Writer@Json@@8 DD FLAT:??_R0?AVWriter@Json@@@8 ; Json::Writer::`RTTI Base Class Descriptor at (0,-1,0,64)'
	DD	00H
	DD	00H
	DD	0ffffffffH
	DD	00H
	DD	040H
	DD	FLAT:??_R3Writer@Json@@8
rdata$r	ENDS
;	COMDAT ??_R1A@?0A@EA@_System_error_category@std@@8
rdata$r	SEGMENT
??_R1A@?0A@EA@_System_error_category@std@@8 DD FLAT:??_R0?AV_System_error_category@std@@@8 ; std::_System_error_category::`RTTI Base Class Descriptor at (0,-1,0,64)'
	DD	02H
	DD	00H
	DD	0ffffffffH
	DD	00H
	DD	040H
	DD	FLAT:??_R3_System_error_category@std@@8
rdata$r	ENDS
;	COMDAT ??_R2_System_error_category@std@@8
rdata$r	SEGMENT
??_R2_System_error_category@std@@8 DD FLAT:??_R1A@?0A@EA@_System_error_category@std@@8 ; std::_System_error_category::`RTTI Base Class Array'
	DD	FLAT:??_R1A@?0A@EA@_Generic_error_category@std@@8
	DD	FLAT:??_R1A@?0A@EA@error_category@std@@8
rdata$r	ENDS
;	COMDAT ??_R3_System_error_category@std@@8
rdata$r	SEGMENT
??_R3_System_error_category@std@@8 DD 00H		; std::_System_error_category::`RTTI Class Hierarchy Descriptor'
	DD	00H
	DD	03H
	DD	FLAT:??_R2_System_error_category@std@@8
rdata$r	ENDS
;	COMDAT ??_R0?AV_System_error_category@std@@@8
data$r	SEGMENT
??_R0?AV_System_error_category@std@@@8 DD FLAT:??_7type_info@@6B@ ; std::_System_error_category `RTTI Type Descriptor'
	DD	00H
	DB	'.?AV_System_error_category@std@@', 00H
data$r	ENDS
;	COMDAT ??_R4_System_error_category@std@@6B@
rdata$r	SEGMENT
??_R4_System_error_category@std@@6B@ DD 00H		; std::_System_error_category::`RTTI Complete Object Locator'
	DD	00H
	DD	00H
	DD	FLAT:??_R0?AV_System_error_category@std@@@8
	DD	FLAT:??_R3_System_error_category@std@@8
rdata$r	ENDS
;	COMDAT ??_R1A@?0A@EA@_Iostream_error_category@std@@8
rdata$r	SEGMENT
??_R1A@?0A@EA@_Iostream_error_category@std@@8 DD FLAT:??_R0?AV_Iostream_error_category@std@@@8 ; std::_Iostream_error_category::`RTTI Base Class Descriptor at (0,-1,0,64)'
	DD	02H
	DD	00H
	DD	0ffffffffH
	DD	00H
	DD	040H
	DD	FLAT:??_R3_Iostream_error_category@std@@8
rdata$r	ENDS
;	COMDAT ??_R2_Iostream_error_category@std@@8
rdata$r	SEGMENT
??_R2_Iostream_error_category@std@@8 DD FLAT:??_R1A@?0A@EA@_Iostream_error_category@std@@8 ; std::_Iostream_error_category::`RTTI Base Class Array'
	DD	FLAT:??_R1A@?0A@EA@_Generic_error_category@std@@8
	DD	FLAT:??_R1A@?0A@EA@error_category@std@@8
rdata$r	ENDS
;	COMDAT ??_R3_Iostream_error_category@std@@8
rdata$r	SEGMENT
??_R3_Iostream_error_category@std@@8 DD 00H		; std::_Iostream_error_category::`RTTI Class Hierarchy Descriptor'
	DD	00H
	DD	03H
	DD	FLAT:??_R2_Iostream_error_category@std@@8
rdata$r	ENDS
;	COMDAT ??_R0?AV_Iostream_error_category@std@@@8
data$r	SEGMENT
??_R0?AV_Iostream_error_category@std@@@8 DD FLAT:??_7type_info@@6B@ ; std::_Iostream_error_category `RTTI Type Descriptor'
	DD	00H
	DB	'.?AV_Iostream_error_category@std@@', 00H
data$r	ENDS
;	COMDAT ??_R4_Iostream_error_category@std@@6B@
rdata$r	SEGMENT
??_R4_Iostream_error_category@std@@6B@ DD 00H		; std::_Iostream_error_category::`RTTI Complete Object Locator'
	DD	00H
	DD	00H
	DD	FLAT:??_R0?AV_Iostream_error_category@std@@@8
	DD	FLAT:??_R3_Iostream_error_category@std@@8
rdata$r	ENDS
;	COMDAT ??_R1A@?0A@EA@_Generic_error_category@std@@8
rdata$r	SEGMENT
??_R1A@?0A@EA@_Generic_error_category@std@@8 DD FLAT:??_R0?AV_Generic_error_category@std@@@8 ; std::_Generic_error_category::`RTTI Base Class Descriptor at (0,-1,0,64)'
	DD	01H
	DD	00H
	DD	0ffffffffH
	DD	00H
	DD	040H
	DD	FLAT:??_R3_Generic_error_category@std@@8
rdata$r	ENDS
;	COMDAT ??_R2_Generic_error_category@std@@8
rdata$r	SEGMENT
??_R2_Generic_error_category@std@@8 DD FLAT:??_R1A@?0A@EA@_Generic_error_category@std@@8 ; std::_Generic_error_category::`RTTI Base Class Array'
	DD	FLAT:??_R1A@?0A@EA@error_category@std@@8
rdata$r	ENDS
;	COMDAT ??_R3_Generic_error_category@std@@8
rdata$r	SEGMENT
??_R3_Generic_error_category@std@@8 DD 00H		; std::_Generic_error_category::`RTTI Class Hierarchy Descriptor'
	DD	00H
	DD	02H
	DD	FLAT:??_R2_Generic_error_category@std@@8
rdata$r	ENDS
;	COMDAT ??_R0?AV_Generic_error_category@std@@@8
data$r	SEGMENT
??_R0?AV_Generic_error_category@std@@@8 DD FLAT:??_7type_info@@6B@ ; std::_Generic_error_category `RTTI Type Descriptor'
	DD	00H
	DB	'.?AV_Generic_error_category@std@@', 00H
data$r	ENDS
;	COMDAT ??_R4_Generic_error_category@std@@6B@
rdata$r	SEGMENT
??_R4_Generic_error_category@std@@6B@ DD 00H		; std::_Generic_error_category::`RTTI Complete Object Locator'
	DD	00H
	DD	00H
	DD	FLAT:??_R0?AV_Generic_error_category@std@@@8
	DD	FLAT:??_R3_Generic_error_category@std@@8
rdata$r	ENDS
;	COMDAT ??_R1A@?0A@EA@error_category@std@@8
rdata$r	SEGMENT
??_R1A@?0A@EA@error_category@std@@8 DD FLAT:??_R0?AVerror_category@std@@@8 ; std::error_category::`RTTI Base Class Descriptor at (0,-1,0,64)'
	DD	00H
	DD	00H
	DD	0ffffffffH
	DD	00H
	DD	040H
	DD	FLAT:??_R3error_category@std@@8
rdata$r	ENDS
;	COMDAT ??_R2error_category@std@@8
rdata$r	SEGMENT
??_R2error_category@std@@8 DD FLAT:??_R1A@?0A@EA@error_category@std@@8 ; std::error_category::`RTTI Base Class Array'
rdata$r	ENDS
;	COMDAT ??_R3error_category@std@@8
rdata$r	SEGMENT
??_R3error_category@std@@8 DD 00H			; std::error_category::`RTTI Class Hierarchy Descriptor'
	DD	00H
	DD	01H
	DD	FLAT:??_R2error_category@std@@8
rdata$r	ENDS
;	COMDAT ??_R0?AVerror_category@std@@@8
data$r	SEGMENT
??_R0?AVerror_category@std@@@8 DD FLAT:??_7type_info@@6B@ ; std::error_category `RTTI Type Descriptor'
	DD	00H
	DB	'.?AVerror_category@std@@', 00H
data$r	ENDS
;	COMDAT ??_R4error_category@std@@6B@
rdata$r	SEGMENT
??_R4error_category@std@@6B@ DD 00H			; std::error_category::`RTTI Complete Object Locator'
	DD	00H
	DD	00H
	DD	FLAT:??_R0?AVerror_category@std@@@8
	DD	FLAT:??_R3error_category@std@@8
rdata$r	ENDS
;	COMDAT ??_R1A@?0A@EA@runtime_error@std@@8
rdata$r	SEGMENT
??_R1A@?0A@EA@runtime_error@std@@8 DD FLAT:??_R0?AVruntime_error@std@@@8 ; std::runtime_error::`RTTI Base Class Descriptor at (0,-1,0,64)'
	DD	01H
	DD	00H
	DD	0ffffffffH
	DD	00H
	DD	040H
	DD	FLAT:??_R3runtime_error@std@@8
rdata$r	ENDS
;	COMDAT ??_R2runtime_error@std@@8
rdata$r	SEGMENT
??_R2runtime_error@std@@8 DD FLAT:??_R1A@?0A@EA@runtime_error@std@@8 ; std::runtime_error::`RTTI Base Class Array'
	DD	FLAT:??_R1A@?0A@EA@exception@std@@8
rdata$r	ENDS
;	COMDAT ??_R3runtime_error@std@@8
rdata$r	SEGMENT
??_R3runtime_error@std@@8 DD 00H			; std::runtime_error::`RTTI Class Hierarchy Descriptor'
	DD	00H
	DD	02H
	DD	FLAT:??_R2runtime_error@std@@8
rdata$r	ENDS
;	COMDAT ??_R4runtime_error@std@@6B@
rdata$r	SEGMENT
??_R4runtime_error@std@@6B@ DD 00H			; std::runtime_error::`RTTI Complete Object Locator'
	DD	00H
	DD	00H
	DD	FLAT:??_R0?AVruntime_error@std@@@8
	DD	FLAT:??_R3runtime_error@std@@8
rdata$r	ENDS
;	COMDAT ??_R2exception@std@@8
rdata$r	SEGMENT
??_R2exception@std@@8 DD FLAT:??_R1A@?0A@EA@exception@std@@8 ; std::exception::`RTTI Base Class Array'
rdata$r	ENDS
;	COMDAT ??_R3exception@std@@8
rdata$r	SEGMENT
??_R3exception@std@@8 DD 00H				; std::exception::`RTTI Class Hierarchy Descriptor'
	DD	00H
	DD	01H
	DD	FLAT:??_R2exception@std@@8
rdata$r	ENDS
;	COMDAT ??_R1A@?0A@EA@exception@std@@8
rdata$r	SEGMENT
??_R1A@?0A@EA@exception@std@@8 DD FLAT:??_R0?AVexception@std@@@8 ; std::exception::`RTTI Base Class Descriptor at (0,-1,0,64)'
	DD	00H
	DD	00H
	DD	0ffffffffH
	DD	00H
	DD	040H
	DD	FLAT:??_R3exception@std@@8
rdata$r	ENDS
;	COMDAT ??_C@_0BE@JONHPENG@map?1set?$DMT?$DO?5too?5long?$AA@
CONST	SEGMENT
??_C@_0BE@JONHPENG@map?1set?$DMT?$DO?5too?5long?$AA@ DB 'map/set<T> too l'
	DB	'ong', 00H					; `string'
CONST	ENDS
;	COMDAT ??_C@_0BI@CFPLBAOH@invalid?5string?5position?$AA@
CONST	SEGMENT
??_C@_0BI@CFPLBAOH@invalid?5string?5position?$AA@ DB 'invalid string posi'
	DB	'tion', 00H					; `string'
CONST	ENDS
;	COMDAT ??_C@_0BA@JFNIOLAK@string?5too?5long?$AA@
CONST	SEGMENT
??_C@_0BA@JFNIOLAK@string?5too?5long?$AA@ DB 'string too long', 00H ; `string'
CONST	ENDS
;	COMDAT ??_C@_0BD@OLBABOEK@vector?$DMT?$DO?5too?5long?$AA@
CONST	SEGMENT
??_C@_0BD@OLBABOEK@vector?$DMT?$DO?5too?5long?$AA@ DB 'vector<T> too long'
	DB	00H						; `string'
CONST	ENDS
;	COMDAT ??_C@_02GLFAOOJA@?$FL?4?$AA@
CONST	SEGMENT
??_C@_02GLFAOOJA@?$FL?4?$AA@ DB '[.', 00H		; `string'
CONST	ENDS
;	COMDAT ??_C@_0CC@ICOHKFIF@Type?5is?5not?5convertible?5to?5doubl@
CONST	SEGMENT
??_C@_0CC@ICOHKFIF@Type?5is?5not?5convertible?5to?5doubl@ DB 'Type is not'
	DB	' convertible to double', 00H		; `string'
CONST	ENDS
;	COMDAT ??_C@_0CA@LEFAEJPN@Type?5is?5not?5convertible?5to?5uint?$AA@
CONST	SEGMENT
??_C@_0CA@LEFAEJPN@Type?5is?5not?5convertible?5to?5uint?$AA@ DB 'Type is '
	DB	'not convertible to uint', 00H		; `string'
CONST	ENDS
;	COMDAT ??_C@_0CD@PGCLDEBG@Real?5out?5of?5unsigned?5integer?5ran@
CONST	SEGMENT
??_C@_0CD@PGCLDEBG@Real?5out?5of?5unsigned?5integer?5ran@ DB 'Real out of'
	DB	' unsigned integer range', 00H		; `string'
CONST	ENDS
;	COMDAT ??_C@_0DK@NAHIGMFE@Negative?5integer?5can?5not?5be?5conv@
CONST	SEGMENT
??_C@_0DK@NAHIGMFE@Negative?5integer?5can?5not?5be?5conv@ DB 'Negative in'
	DB	'teger can not be converted to unsigned integer', 00H ; `string'
CONST	ENDS
;	COMDAT ??_C@_0BP@KDDCHLKA@Type?5is?5not?5convertible?5to?5int?$AA@
CONST	SEGMENT
??_C@_0BP@KDDCHLKA@Type?5is?5not?5convertible?5to?5int?$AA@ DB 'Type is n'
	DB	'ot convertible to int', 00H			; `string'
CONST	ENDS
;	COMDAT ??_C@_0CB@PBEICPFN@Real?5out?5of?5signed?5integer?5range@
CONST	SEGMENT
??_C@_0CB@PBEICPFN@Real?5out?5of?5signed?5integer?5range@ DB 'Real out of'
	DB	' signed integer range', 00H			; `string'
CONST	ENDS
;	COMDAT ??_C@_0CE@MKMAPPKF@integer?5out?5of?5signed?5integer?5ra@
CONST	SEGMENT
??_C@_0CE@MKMAPPKF@integer?5out?5of?5signed?5integer?5ra@ DB 'integer out'
	DB	' of signed integer range', 00H		; `string'
CONST	ENDS
;	COMDAT ??_C@_0CC@BNBMBIGA@Type?5is?5not?5convertible?5to?5strin@
CONST	SEGMENT
??_C@_0CC@BNBMBIGA@Type?5is?5not?5convertible?5to?5strin@ DB 'Type is not'
	DB	' convertible to string', 00H		; `string'
CONST	ENDS
;	COMDAT ??_C@_0BL@DKGNIMPN@Comments?5must?5start?5with?5?1?$AA@
CONST	SEGMENT
??_C@_0BL@DKGNIMPN@Comments?5must?5start?5with?5?1?$AA@ DB 'Comments must'
	DB	' start with /', 00H				; `string'
CONST	ENDS
;	COMDAT ?valueAllocator@?1??0Json@@YAAAPAVValueAllocator@1@XZ@4PAV21@A
_DATA	SEGMENT
?valueAllocator@?1??0Json@@YAAAPAVValueAllocator@1@XZ@4PAV21@A DD FLAT:?defaultAllocator@?1??valueAllocator@Json@@YAAAPAVValueAllocator@2@XZ@4VDefaultValueAllocator@2@A ; `Json::valueAllocator'::`2'::valueAllocator
_DATA	ENDS
;	COMDAT ??_7DefaultValueAllocator@Json@@6B@
CONST	SEGMENT
??_7DefaultValueAllocator@Json@@6B@ DD FLAT:??_R4DefaultValueAllocator@Json@@6B@ ; Json::DefaultValueAllocator::`vftable'
	DD	FLAT:??_EDefaultValueAllocator@Json@@UAEPAXI@Z
	DD	FLAT:?makeMemberName@DefaultValueAllocator@Json@@UAEPADPBD@Z
	DD	FLAT:?releaseMemberName@DefaultValueAllocator@Json@@UAEXPAD@Z
	DD	FLAT:?duplicateStringValue@DefaultValueAllocator@Json@@UAEPADPBDI@Z
	DD	FLAT:?releaseStringValue@DefaultValueAllocator@Json@@UAEXPAD@Z
CONST	ENDS
;	COMDAT ??_7StyledWriter@Json@@6B@
CONST	SEGMENT
??_7StyledWriter@Json@@6B@ DD FLAT:??_R4StyledWriter@Json@@6B@ ; Json::StyledWriter::`vftable'
	DD	FLAT:??_EStyledWriter@Json@@UAEPAXI@Z
	DD	FLAT:?write@StyledWriter@Json@@UAE?AV?$basic_string@DU?$char_traits@D@std@@V?$allocator@D@2@@std@@ABVValue@2@@Z
CONST	ENDS
;	COMDAT ??_7ValueAllocator@Json@@6B@
CONST	SEGMENT
??_7ValueAllocator@Json@@6B@ DD FLAT:??_R4ValueAllocator@Json@@6B@ ; Json::ValueAllocator::`vftable'
	DD	FLAT:??_EValueAllocator@Json@@UAEPAXI@Z
	DD	FLAT:__purecall
	DD	FLAT:__purecall
	DD	FLAT:__purecall
	DD	FLAT:__purecall
CONST	ENDS
;	COMDAT ??_C@_06FHFOAHML@system?$AA@
CONST	SEGMENT
??_C@_06FHFOAHML@system?$AA@ DB 'system', 00H		; `string'
CONST	ENDS
;	COMDAT ??_7_System_error_category@std@@6B@
CONST	SEGMENT
??_7_System_error_category@std@@6B@ DD FLAT:??_R4_System_error_category@std@@6B@ ; std::_System_error_category::`vftable'
	DD	FLAT:??_E_System_error_category@std@@UAEPAXI@Z
	DD	FLAT:?name@_System_error_category@std@@UBEPBDXZ
	DD	FLAT:?message@_System_error_category@std@@UBE?AV?$basic_string@DU?$char_traits@D@std@@V?$allocator@D@2@@2@H@Z
	DD	FLAT:?default_error_condition@_System_error_category@std@@UBE?AVerror_condition@2@H@Z
	DD	FLAT:?equivalent@error_category@std@@UBE_NABVerror_code@2@H@Z
	DD	FLAT:?equivalent@error_category@std@@UBE_NHABVerror_condition@2@@Z
CONST	ENDS
;	COMDAT ??_C@_0BG@PADBLCHM@iostream?5stream?5error?$AA@
CONST	SEGMENT
??_C@_0BG@PADBLCHM@iostream?5stream?5error?$AA@ DB 'iostream stream error'
	DB	00H						; `string'
CONST	ENDS
;	COMDAT ??_C@_08LLGCOLLL@iostream?$AA@
CONST	SEGMENT
??_C@_08LLGCOLLL@iostream?$AA@ DB 'iostream', 00H	; `string'
CONST	ENDS
;	COMDAT ??_7_Iostream_error_category@std@@6B@
CONST	SEGMENT
??_7_Iostream_error_category@std@@6B@ DD FLAT:??_R4_Iostream_error_category@std@@6B@ ; std::_Iostream_error_category::`vftable'
	DD	FLAT:??_E_Iostream_error_category@std@@UAEPAXI@Z
	DD	FLAT:?name@_Iostream_error_category@std@@UBEPBDXZ
	DD	FLAT:?message@_Iostream_error_category@std@@UBE?AV?$basic_string@DU?$char_traits@D@std@@V?$allocator@D@2@@2@H@Z
	DD	FLAT:?default_error_condition@error_category@std@@UBE?AVerror_condition@2@H@Z
	DD	FLAT:?equivalent@error_category@std@@UBE_NABVerror_code@2@H@Z
	DD	FLAT:?equivalent@error_category@std@@UBE_NHABVerror_condition@2@@Z
CONST	ENDS
;	COMDAT ??_C@_0O@BFJCFAAK@unknown?5error?$AA@
CONST	SEGMENT
??_C@_0O@BFJCFAAK@unknown?5error?$AA@ DB 'unknown error', 00H ; `string'
CONST	ENDS
;	COMDAT ??_C@_07DCLBNMLN@generic?$AA@
CONST	SEGMENT
??_C@_07DCLBNMLN@generic?$AA@ DB 'generic', 00H		; `string'
CONST	ENDS
;	COMDAT ??_7_Generic_error_category@std@@6B@
CONST	SEGMENT
??_7_Generic_error_category@std@@6B@ DD FLAT:??_R4_Generic_error_category@std@@6B@ ; std::_Generic_error_category::`vftable'
	DD	FLAT:??_E_Generic_error_category@std@@UAEPAXI@Z
	DD	FLAT:?name@_Generic_error_category@std@@UBEPBDXZ
	DD	FLAT:?message@_Generic_error_category@std@@UBE?AV?$basic_string@DU?$char_traits@D@std@@V?$allocator@D@2@@2@H@Z
	DD	FLAT:?default_error_condition@error_category@std@@UBE?AVerror_condition@2@H@Z
	DD	FLAT:?equivalent@error_category@std@@UBE_NABVerror_code@2@H@Z
	DD	FLAT:?equivalent@error_category@std@@UBE_NHABVerror_condition@2@@Z
CONST	ENDS
;	COMDAT ??_7error_category@std@@6B@
CONST	SEGMENT
??_7error_category@std@@6B@ DD FLAT:??_R4error_category@std@@6B@ ; std::error_category::`vftable'
	DD	FLAT:??_Eerror_category@std@@UAEPAXI@Z
	DD	FLAT:__purecall
	DD	FLAT:__purecall
	DD	FLAT:?default_error_condition@error_category@std@@UBE?AVerror_condition@2@H@Z
	DD	FLAT:?equivalent@error_category@std@@UBE_NABVerror_code@2@H@Z
	DD	FLAT:?equivalent@error_category@std@@UBE_NHABVerror_condition@2@@Z
CONST	ENDS
;	COMDAT ??_C@_00CNPNBAHC@?$AA@
CONST	SEGMENT
??_C@_00CNPNBAHC@?$AA@ DB 00H				; `string'
CONST	ENDS
;	COMDAT ??_C@_04LOAJBDKD@true?$AA@
CONST	SEGMENT
??_C@_04LOAJBDKD@true?$AA@ DB 'true', 00H		; `string'
CONST	ENDS
;	COMDAT ??_C@_05LAPONLG@false?$AA@
CONST	SEGMENT
??_C@_05LAPONLG@false?$AA@ DB 'false', 00H		; `string'
CONST	ENDS
;	COMDAT __CT??_R0?AVexception@std@@@8??0exception@std@@QAE@ABV01@@Z12
xdata$x	SEGMENT
__CT??_R0?AVexception@std@@@8??0exception@std@@QAE@ABV01@@Z12 DD 00H
	DD	FLAT:??_R0?AVexception@std@@@8
	DD	00H
	DD	0ffffffffH
	ORG $+4
	DD	0cH
	DD	FLAT:??0exception@std@@QAE@ABV01@@Z
xdata$x	ENDS
;	COMDAT ??_R0?AVexception@std@@@8
data$r	SEGMENT
??_R0?AVexception@std@@@8 DD FLAT:??_7type_info@@6B@	; std::exception `RTTI Type Descriptor'
	DD	00H
	DB	'.?AVexception@std@@', 00H
data$r	ENDS
;	COMDAT __CT??_R0?AVruntime_error@std@@@8??0runtime_error@std@@QAE@ABV01@@Z12
xdata$x	SEGMENT
__CT??_R0?AVruntime_error@std@@@8??0runtime_error@std@@QAE@ABV01@@Z12 DD 00H
	DD	FLAT:??_R0?AVruntime_error@std@@@8
	DD	00H
	DD	0ffffffffH
	ORG $+4
	DD	0cH
	DD	FLAT:??0runtime_error@std@@QAE@ABV01@@Z
xdata$x	ENDS
;	COMDAT ??_R0?AVruntime_error@std@@@8
data$r	SEGMENT
??_R0?AVruntime_error@std@@@8 DD FLAT:??_7type_info@@6B@ ; std::runtime_error `RTTI Type Descriptor'
	DD	00H
	DB	'.?AVruntime_error@std@@', 00H
data$r	ENDS
;	COMDAT __CTA2?AVruntime_error@std@@
xdata$x	SEGMENT
__CTA2?AVruntime_error@std@@ DD 02H
	DD	FLAT:__CT??_R0?AVruntime_error@std@@@8??0runtime_error@std@@QAE@ABV01@@Z12
	DD	FLAT:__CT??_R0?AVexception@std@@@8??0exception@std@@QAE@ABV01@@Z12
xdata$x	ENDS
;	COMDAT __TI2?AVruntime_error@std@@
xdata$x	SEGMENT
__TI2?AVruntime_error@std@@ DD 00H
	DD	FLAT:??1runtime_error@std@@UAE@XZ
	DD	00H
	DD	FLAT:__CTA2?AVruntime_error@std@@
xdata$x	ENDS
;	COMDAT ??_7runtime_error@std@@6B@
CONST	SEGMENT
??_7runtime_error@std@@6B@ DD FLAT:??_R4runtime_error@std@@6B@ ; std::runtime_error::`vftable'
	DD	FLAT:??_Eruntime_error@std@@UAEPAXI@Z
	DD	FLAT:?what@exception@std@@UBEPBDXZ
CONST	ENDS
;	COMDAT ?npos@?$basic_string@DU?$char_traits@D@std@@V?$allocator@D@2@@std@@2IB
CONST	SEGMENT
?npos@?$basic_string@DU?$char_traits@D@std@@V?$allocator@D@2@@std@@2IB DD 0ffffffffH ; std::basic_string<char,std::char_traits<char>,std::allocator<char> >::npos
CONST	ENDS
;	COMDAT xdata$x
xdata$x	SEGMENT
__unwindtable$??$construct@U?$pair@$$CBVCZString@Value@Json@@V23@@std@@AAU12@@?$allocator@U?$_Tree_node@U?$pair@$$CBVCZString@Value@Json@@V23@@std@@PAX@std@@@std@@QAEXPAU?$pair@$$CBVCZString@Value@Json@@V23@@1@AAU21@@Z DD 0ffffffffH
	DD	FLAT:__unwindfunclet$??$construct@U?$pair@$$CBVCZString@Value@Json@@V23@@std@@AAU12@@?$allocator@U?$_Tree_node@U?$pair@$$CBVCZString@Value@Json@@V23@@std@@PAX@std@@@std@@QAEXPAU?$pair@$$CBVCZString@Value@Json@@V23@@1@AAU21@@Z$0
__ehfuncinfo$??$construct@U?$pair@$$CBVCZString@Value@Json@@V23@@std@@AAU12@@?$allocator@U?$_Tree_node@U?$pair@$$CBVCZString@Value@Json@@V23@@std@@PAX@std@@@std@@QAEXPAU?$pair@$$CBVCZString@Value@Json@@V23@@1@AAU21@@Z DD 019930522H
	DD	01H
	DD	FLAT:__unwindtable$??$construct@U?$pair@$$CBVCZString@Value@Json@@V23@@std@@AAU12@@?$allocator@U?$_Tree_node@U?$pair@$$CBVCZString@Value@Json@@V23@@std@@PAX@std@@@std@@QAEXPAU?$pair@$$CBVCZString@Value@Json@@V23@@1@AAU21@@Z
	DD	2 DUP(00H)
	DD	2 DUP(00H)
	DD	00H
	DD	01H
xdata$x	ENDS
;	COMDAT xdata$x
xdata$x	SEGMENT
__catchsym$??$_Uninit_move@PAVPathArgument@Json@@PAV12@V?$allocator@VPathArgument@Json@@@std@@V12@@std@@YAPAVPathArgument@Json@@PAV12@00AAU?$_Wrap_alloc@V?$allocator@VPathArgument@Json@@@std@@@0@0U_Nonscalar_ptr_iterator_tag@0@@Z$2 DD 040H
	DD	00H
	DD	00H
	DD	FLAT:__catch$??$_Uninit_move@PAVPathArgument@Json@@PAV12@V?$allocator@VPathArgument@Json@@@std@@V12@@std@@YAPAVPathArgument@Json@@PAV12@00AAU?$_Wrap_alloc@V?$allocator@VPathArgument@Json@@@std@@@0@0U_Nonscalar_ptr_iterator_tag@0@@Z$0
__unwindtable$??$_Uninit_move@PAVPathArgument@Json@@PAV12@V?$allocator@VPathArgument@Json@@@std@@V12@@std@@YAPAVPathArgument@Json@@PAV12@00AAU?$_Wrap_alloc@V?$allocator@VPathArgument@Json@@@std@@@0@0U_Nonscalar_ptr_iterator_tag@0@@Z DD 0ffffffffH
	DD	00H
	DD	0ffffffffH
	DD	00H
__tryblocktable$??$_Uninit_move@PAVPathArgument@Json@@PAV12@V?$allocator@VPathArgument@Json@@@std@@V12@@std@@YAPAVPathArgument@Json@@PAV12@00AAU?$_Wrap_alloc@V?$allocator@VPathArgument@Json@@@std@@@0@0U_Nonscalar_ptr_iterator_tag@0@@Z DD 00H
	DD	00H
	DD	01H
	DD	01H
	DD	FLAT:__catchsym$??$_Uninit_move@PAVPathArgument@Json@@PAV12@V?$allocator@VPathArgument@Json@@@std@@V12@@std@@YAPAVPathArgument@Json@@PAV12@00AAU?$_Wrap_alloc@V?$allocator@VPathArgument@Json@@@std@@@0@0U_Nonscalar_ptr_iterator_tag@0@@Z$2
__ehfuncinfo$??$_Uninit_move@PAVPathArgument@Json@@PAV12@V?$allocator@VPathArgument@Json@@@std@@V12@@std@@YAPAVPathArgument@Json@@PAV12@00AAU?$_Wrap_alloc@V?$allocator@VPathArgument@Json@@@std@@@0@0U_Nonscalar_ptr_iterator_tag@0@@Z DD 019930522H
	DD	02H
	DD	FLAT:__unwindtable$??$_Uninit_move@PAVPathArgument@Json@@PAV12@V?$allocator@VPathArgument@Json@@@std@@V12@@std@@YAPAVPathArgument@Json@@PAV12@00AAU?$_Wrap_alloc@V?$allocator@VPathArgument@Json@@@std@@@0@0U_Nonscalar_ptr_iterator_tag@0@@Z
	DD	01H
	DD	FLAT:__tryblocktable$??$_Uninit_move@PAVPathArgument@Json@@PAV12@V?$allocator@VPathArgument@Json@@@std@@V12@@std@@YAPAVPathArgument@Json@@PAV12@00AAU?$_Wrap_alloc@V?$allocator@VPathArgument@Json@@@std@@@0@0U_Nonscalar_ptr_iterator_tag@0@@Z
	DD	2 DUP(00H)
	DD	00H
	DD	01H
xdata$x	ENDS
;	COMDAT xdata$x
xdata$x	SEGMENT
__catchsym$??$_Uninit_move@PAV?$basic_string@DU?$char_traits@D@std@@V?$allocator@D@2@@std@@PAV12@V?$allocator@V?$basic_string@DU?$char_traits@D@std@@V?$allocator@D@2@@std@@@2@V12@@std@@YAPAV?$basic_string@DU?$char_traits@D@std@@V?$allocator@D@2@@0@PAV10@00AAU?$_Wrap_alloc@V?$allocator@V?$basic_string@DU?$char_traits@D@std@@V?$allocator@D@2@@std@@@std@@@0@0U_Nonscalar_ptr_iterator_tag@0@@Z$2 DD 040H
	DD	00H
	DD	00H
	DD	FLAT:__catch$??$_Uninit_move@PAV?$basic_string@DU?$char_traits@D@std@@V?$allocator@D@2@@std@@PAV12@V?$allocator@V?$basic_string@DU?$char_traits@D@std@@V?$allocator@D@2@@std@@@2@V12@@std@@YAPAV?$basic_string@DU?$char_traits@D@std@@V?$allocator@D@2@@0@PAV10@00AAU?$_Wrap_alloc@V?$allocator@V?$basic_string@DU?$char_traits@D@std@@V?$allocator@D@2@@std@@@std@@@0@0U_Nonscalar_ptr_iterator_tag@0@@Z$0
__unwindtable$??$_Uninit_move@PAV?$basic_string@DU?$char_traits@D@std@@V?$allocator@D@2@@std@@PAV12@V?$allocator@V?$basic_string@DU?$char_traits@D@std@@V?$allocator@D@2@@std@@@2@V12@@std@@YAPAV?$basic_string@DU?$char_traits@D@std@@V?$allocator@D@2@@0@PAV10@00AAU?$_Wrap_alloc@V?$allocator@V?$basic_string@DU?$char_traits@D@std@@V?$allocator@D@2@@std@@@std@@@0@0U_Nonscalar_ptr_iterator_tag@0@@Z DD 0ffffffffH
	DD	00H
	DD	0ffffffffH
	DD	00H
__tryblocktable$??$_Uninit_move@PAV?$basic_string@DU?$char_traits@D@std@@V?$allocator@D@2@@std@@PAV12@V?$allocator@V?$basic_string@DU?$char_traits@D@std@@V?$allocator@D@2@@std@@@2@V12@@std@@YAPAV?$basic_string@DU?$char_traits@D@std@@V?$allocator@D@2@@0@PAV10@00AAU?$_Wrap_alloc@V?$allocator@V?$basic_string@DU?$char_traits@D@std@@V?$allocator@D@2@@std@@@std@@@0@0U_Nonscalar_ptr_iterator_tag@0@@Z DD 00H
	DD	00H
	DD	01H
	DD	01H
	DD	FLAT:__catchsym$??$_Uninit_move@PAV?$basic_string@DU?$char_traits@D@std@@V?$allocator@D@2@@std@@PAV12@V?$allocator@V?$basic_string@DU?$char_traits@D@std@@V?$allocator@D@2@@std@@@2@V12@@std@@YAPAV?$basic_string@DU?$char_traits@D@std@@V?$allocator@D@2@@0@PAV10@00AAU?$_Wrap_alloc@V?$allocator@V?$basic_string@DU?$char_traits@D@std@@V?$allocator@D@2@@std@@@std@@@0@0U_Nonscalar_ptr_iterator_tag@0@@Z$2
__ehfuncinfo$??$_Uninit_move@PAV?$basic_string@DU?$char_traits@D@std@@V?$allocator@D@2@@std@@PAV12@V?$allocator@V?$basic_string@DU?$char_traits@D@std@@V?$allocator@D@2@@std@@@2@V12@@std@@YAPAV?$basic_string@DU?$char_traits@D@std@@V?$allocator@D@2@@0@PAV10@00AAU?$_Wrap_alloc@V?$allocator@V?$basic_string@DU?$char_traits@D@std@@V?$allocator@D@2@@std@@@std@@@0@0U_Nonscalar_ptr_iterator_tag@0@@Z DD 019930522H
	DD	02H
	DD	FLAT:__unwindtable$??$_Uninit_move@PAV?$basic_string@DU?$char_traits@D@std@@V?$allocator@D@2@@std@@PAV12@V?$allocator@V?$basic_string@DU?$char_traits@D@std@@V?$allocator@D@2@@std@@@2@V12@@std@@YAPAV?$basic_string@DU?$char_traits@D@std@@V?$allocator@D@2@@0@PAV10@00AAU?$_Wrap_alloc@V?$allocator@V?$basic_string@DU?$char_traits@D@std@@V?$allocator@D@2@@std@@@std@@@0@0U_Nonscalar_ptr_iterator_tag@0@@Z
	DD	01H
	DD	FLAT:__tryblocktable$??$_Uninit_move@PAV?$basic_string@DU?$char_traits@D@std@@V?$allocator@D@2@@std@@PAV12@V?$allocator@V?$basic_string@DU?$char_traits@D@std@@V?$allocator@D@2@@std@@@2@V12@@std@@YAPAV?$basic_string@DU?$char_traits@D@std@@V?$allocator@D@2@@0@PAV10@00AAU?$_Wrap_alloc@V?$allocator@V?$basic_string@DU?$char_traits@D@std@@V?$allocator@D@2@@std@@@std@@@0@0U_Nonscalar_ptr_iterator_tag@0@@Z
	DD	2 DUP(00H)
	DD	00H
	DD	01H
xdata$x	ENDS
;	COMDAT xdata$x
xdata$x	SEGMENT
__unwindtable$??$construct@PAU?$_Tree_node@U?$pair@$$CBVCZString@Value@Json@@V23@@std@@PAX@std@@AAPAU12@@?$allocator@U?$_Tree_node@U?$pair@$$CBVCZString@Value@Json@@V23@@std@@PAX@std@@@std@@QAEXPAPAU?$_Tree_node@U?$pair@$$CBVCZString@Value@Json@@V23@@std@@PAX@1@AAPAU21@@Z DD 0ffffffffH
	DD	FLAT:__unwindfunclet$??$construct@PAU?$_Tree_node@U?$pair@$$CBVCZString@Value@Json@@V23@@std@@PAX@std@@AAPAU12@@?$allocator@U?$_Tree_node@U?$pair@$$CBVCZString@Value@Json@@V23@@std@@PAX@std@@@std@@QAEXPAPAU?$_Tree_node@U?$pair@$$CBVCZString@Value@Json@@V23@@std@@PAX@1@AAPAU21@@Z$0
__ehfuncinfo$??$construct@PAU?$_Tree_node@U?$pair@$$CBVCZString@Value@Json@@V23@@std@@PAX@std@@AAPAU12@@?$allocator@U?$_Tree_node@U?$pair@$$CBVCZString@Value@Json@@V23@@std@@PAX@std@@@std@@QAEXPAPAU?$_Tree_node@U?$pair@$$CBVCZString@Value@Json@@V23@@std@@PAX@1@AAPAU21@@Z DD 019930522H
	DD	01H
	DD	FLAT:__unwindtable$??$construct@PAU?$_Tree_node@U?$pair@$$CBVCZString@Value@Json@@V23@@std@@PAX@std@@AAPAU12@@?$allocator@U?$_Tree_node@U?$pair@$$CBVCZString@Value@Json@@V23@@std@@PAX@std@@@std@@QAEXPAPAU?$_Tree_node@U?$pair@$$CBVCZString@Value@Json@@V23@@std@@PAX@1@AAPAU21@@Z
	DD	2 DUP(00H)
	DD	2 DUP(00H)
	DD	00H
	DD	01H
xdata$x	ENDS
;	COMDAT xdata$x
xdata$x	SEGMENT
__unwindtable$??$construct@PADAAPAD@?$allocator@D@std@@QAEXPAPADAAPAD@Z DD 0ffffffffH
	DD	FLAT:__unwindfunclet$??$construct@PADAAPAD@?$allocator@D@std@@QAEXPAPADAAPAD@Z$0
__ehfuncinfo$??$construct@PADAAPAD@?$allocator@D@std@@QAEXPAPADAAPAD@Z DD 019930522H
	DD	01H
	DD	FLAT:__unwindtable$??$construct@PADAAPAD@?$allocator@D@std@@QAEXPAPADAAPAD@Z
	DD	2 DUP(00H)
	DD	2 DUP(00H)
	DD	00H
	DD	01H
xdata$x	ENDS
;	COMDAT xdata$x
xdata$x	SEGMENT
__unwindtable$??$construct@V?$basic_string@DU?$char_traits@D@std@@V?$allocator@D@2@@std@@V12@@?$allocator@V?$basic_string@DU?$char_traits@D@std@@V?$allocator@D@2@@std@@@std@@QAEXPAV?$basic_string@DU?$char_traits@D@std@@V?$allocator@D@2@@1@$$QAV21@@Z DD 0ffffffffH
	DD	FLAT:__unwindfunclet$??$construct@V?$basic_string@DU?$char_traits@D@std@@V?$allocator@D@2@@std@@V12@@?$allocator@V?$basic_string@DU?$char_traits@D@std@@V?$allocator@D@2@@std@@@std@@QAEXPAV?$basic_string@DU?$char_traits@D@std@@V?$allocator@D@2@@1@$$QAV21@@Z$0
__ehfuncinfo$??$construct@V?$basic_string@DU?$char_traits@D@std@@V?$allocator@D@2@@std@@V12@@?$allocator@V?$basic_string@DU?$char_traits@D@std@@V?$allocator@D@2@@std@@@std@@QAEXPAV?$basic_string@DU?$char_traits@D@std@@V?$allocator@D@2@@1@$$QAV21@@Z DD 019930522H
	DD	01H
	DD	FLAT:__unwindtable$??$construct@V?$basic_string@DU?$char_traits@D@std@@V?$allocator@D@2@@std@@V12@@?$allocator@V?$basic_string@DU?$char_traits@D@std@@V?$allocator@D@2@@std@@@std@@QAEXPAV?$basic_string@DU?$char_traits@D@std@@V?$allocator@D@2@@1@$$QAV21@@Z
	DD	2 DUP(00H)
	DD	2 DUP(00H)
	DD	00H
	DD	01H
xdata$x	ENDS
;	COMDAT xdata$x
xdata$x	SEGMENT
__unwindtable$??$construct@VPathArgument@Json@@AAV12@@?$allocator@VPathArgument@Json@@@std@@QAEXPAVPathArgument@Json@@AAV23@@Z DD 0ffffffffH
	DD	FLAT:__unwindfunclet$??$construct@VPathArgument@Json@@AAV12@@?$allocator@VPathArgument@Json@@@std@@QAEXPAVPathArgument@Json@@AAV23@@Z$0
__ehfuncinfo$??$construct@VPathArgument@Json@@AAV12@@?$allocator@VPathArgument@Json@@@std@@QAEXPAVPathArgument@Json@@AAV23@@Z DD 019930522H
	DD	01H
	DD	FLAT:__unwindtable$??$construct@VPathArgument@Json@@AAV12@@?$allocator@VPathArgument@Json@@@std@@QAEXPAVPathArgument@Json@@AAV23@@Z
	DD	2 DUP(00H)
	DD	2 DUP(00H)
	DD	00H
	DD	01H
xdata$x	ENDS
;	COMDAT xdata$x
xdata$x	SEGMENT
__unwindtable$??$construct@VPathArgument@Json@@V12@@?$allocator@VPathArgument@Json@@@std@@QAEXPAVPathArgument@Json@@$$QAV23@@Z DD 0ffffffffH
	DD	FLAT:__unwindfunclet$??$construct@VPathArgument@Json@@V12@@?$allocator@VPathArgument@Json@@@std@@QAEXPAVPathArgument@Json@@$$QAV23@@Z$0
__ehfuncinfo$??$construct@VPathArgument@Json@@V12@@?$allocator@VPathArgument@Json@@@std@@QAEXPAVPathArgument@Json@@$$QAV23@@Z DD 019930522H
	DD	01H
	DD	FLAT:__unwindtable$??$construct@VPathArgument@Json@@V12@@?$allocator@VPathArgument@Json@@@std@@QAEXPAVPathArgument@Json@@$$QAV23@@Z
	DD	2 DUP(00H)
	DD	2 DUP(00H)
	DD	00H
	DD	01H
xdata$x	ENDS
;	COMDAT xdata$x
xdata$x	SEGMENT
__unwindtable$??$construct@PBVPathArgument@Json@@PBV12@@?$allocator@PBVPathArgument@Json@@@std@@QAEXPAPBVPathArgument@Json@@$$QAPBV23@@Z DD 0ffffffffH
	DD	FLAT:__unwindfunclet$??$construct@PBVPathArgument@Json@@PBV12@@?$allocator@PBVPathArgument@Json@@@std@@QAEXPAPBVPathArgument@Json@@$$QAPBV23@@Z$0
__ehfuncinfo$??$construct@PBVPathArgument@Json@@PBV12@@?$allocator@PBVPathArgument@Json@@@std@@QAEXPAPBVPathArgument@Json@@$$QAPBV23@@Z DD 019930522H
	DD	01H
	DD	FLAT:__unwindtable$??$construct@PBVPathArgument@Json@@PBV12@@?$allocator@PBVPathArgument@Json@@@std@@QAEXPAPBVPathArgument@Json@@$$QAPBV23@@Z
	DD	2 DUP(00H)
	DD	2 DUP(00H)
	DD	00H
	DD	01H
xdata$x	ENDS
;	COMDAT xdata$x
xdata$x	SEGMENT
__catchsym$??$_Insert_nohint@AAU?$pair@$$CBVCZString@Value@Json@@V23@@std@@PAU?$_Tree_node@U?$pair@$$CBVCZString@Value@Json@@V23@@std@@PAX@2@@?$_Tree@V?$_Tmap_traits@VCZString@Value@Json@@V23@U?$less@VCZString@Value@Json@@@std@@V?$allocator@U?$pair@$$CBVCZString@Value@Json@@V23@@std@@@5@$0A@@std@@@std@@IAE?AU?$pair@V?$_Tree_iterator@V?$_Tree_val@U?$_Tree_simple_types@U?$pair@$$CBVCZString@Value@Json@@V23@@std@@@std@@@std@@@std@@_N@1@_NAAU?$pair@$$CBVCZString@Value@Json@@V23@@1@PAU?$_Tree_node@U?$pair@$$CBVCZString@Value@Json@@V23@@std@@PAX@1@@Z$2 DD 040H
	DD	00H
	DD	00H
	DD	FLAT:__catch$??$_Insert_nohint@AAU?$pair@$$CBVCZString@Value@Json@@V23@@std@@PAU?$_Tree_node@U?$pair@$$CBVCZString@Value@Json@@V23@@std@@PAX@2@@?$_Tree@V?$_Tmap_traits@VCZString@Value@Json@@V23@U?$less@VCZString@Value@Json@@@std@@V?$allocator@U?$pair@$$CBVCZString@Value@Json@@V23@@std@@@5@$0A@@std@@@std@@IAE?AU?$pair@V?$_Tree_iterator@V?$_Tree_val@U?$_Tree_simple_types@U?$pair@$$CBVCZString@Value@Json@@V23@@std@@@std@@@std@@@std@@_N@1@_NAAU?$pair@$$CBVCZString@Value@Json@@V23@@1@PAU?$_Tree_node@U?$pair@$$CBVCZString@Value@Json@@V23@@std@@PAX@1@@Z$0
__unwindtable$??$_Insert_nohint@AAU?$pair@$$CBVCZString@Value@Json@@V23@@std@@PAU?$_Tree_node@U?$pair@$$CBVCZString@Value@Json@@V23@@std@@PAX@2@@?$_Tree@V?$_Tmap_traits@VCZString@Value@Json@@V23@U?$less@VCZString@Value@Json@@@std@@V?$allocator@U?$pair@$$CBVCZString@Value@Json@@V23@@std@@@5@$0A@@std@@@std@@IAE?AU?$pair@V?$_Tree_iterator@V?$_Tree_val@U?$_Tree_simple_types@U?$pair@$$CBVCZString@Value@Json@@V23@@std@@@std@@@std@@@std@@_N@1@_NAAU?$pair@$$CBVCZString@Value@Json@@V23@@1@PAU?$_Tree_node@U?$pair@$$CBVCZString@Value@Json@@V23@@std@@PAX@1@@Z DD 0ffffffffH
	DD	00H
	DD	0ffffffffH
	DD	00H
__tryblocktable$??$_Insert_nohint@AAU?$pair@$$CBVCZString@Value@Json@@V23@@std@@PAU?$_Tree_node@U?$pair@$$CBVCZString@Value@Json@@V23@@std@@PAX@2@@?$_Tree@V?$_Tmap_traits@VCZString@Value@Json@@V23@U?$less@VCZString@Value@Json@@@std@@V?$allocator@U?$pair@$$CBVCZString@Value@Json@@V23@@std@@@5@$0A@@std@@@std@@IAE?AU?$pair@V?$_Tree_iterator@V?$_Tree_val@U?$_Tree_simple_types@U?$pair@$$CBVCZString@Value@Json@@V23@@std@@@std@@@std@@@std@@_N@1@_NAAU?$pair@$$CBVCZString@Value@Json@@V23@@1@PAU?$_Tree_node@U?$pair@$$CBVCZString@Value@Json@@V23@@std@@PAX@1@@Z DD 00H
	DD	00H
	DD	01H
	DD	01H
	DD	FLAT:__catchsym$??$_Insert_nohint@AAU?$pair@$$CBVCZString@Value@Json@@V23@@std@@PAU?$_Tree_node@U?$pair@$$CBVCZString@Value@Json@@V23@@std@@PAX@2@@?$_Tree@V?$_Tmap_traits@VCZString@Value@Json@@V23@U?$less@VCZString@Value@Json@@@std@@V?$allocator@U?$pair@$$CBVCZString@Value@Json@@V23@@std@@@5@$0A@@std@@@std@@IAE?AU?$pair@V?$_Tree_iterator@V?$_Tree_val@U?$_Tree_simple_types@U?$pair@$$CBVCZString@Value@Json@@V23@@std@@@std@@@std@@@std@@_N@1@_NAAU?$pair@$$CBVCZString@Value@Json@@V23@@1@PAU?$_Tree_node@U?$pair@$$CBVCZString@Value@Json@@V23@@std@@PAX@1@@Z$2
__ehfuncinfo$??$_Insert_nohint@AAU?$pair@$$CBVCZString@Value@Json@@V23@@std@@PAU?$_Tree_node@U?$pair@$$CBVCZString@Value@Json@@V23@@std@@PAX@2@@?$_Tree@V?$_Tmap_traits@VCZString@Value@Json@@V23@U?$less@VCZString@Value@Json@@@std@@V?$allocator@U?$pair@$$CBVCZString@Value@Json@@V23@@std@@@5@$0A@@std@@@std@@IAE?AU?$pair@V?$_Tree_iterator@V?$_Tree_val@U?$_Tree_simple_types@U?$pair@$$CBVCZString@Value@Json@@V23@@std@@@std@@@std@@@std@@_N@1@_NAAU?$pair@$$CBVCZString@Value@Json@@V23@@1@PAU?$_Tree_node@U?$pair@$$CBVCZString@Value@Json@@V23@@std@@PAX@1@@Z DD 019930522H
	DD	02H
	DD	FLAT:__unwindtable$??$_Insert_nohint@AAU?$pair@$$CBVCZString@Value@Json@@V23@@std@@PAU?$_Tree_node@U?$pair@$$CBVCZString@Value@Json@@V23@@std@@PAX@2@@?$_Tree@V?$_Tmap_traits@VCZString@Value@Json@@V23@U?$less@VCZString@Value@Json@@@std@@V?$allocator@U?$pair@$$CBVCZString@Value@Json@@V23@@std@@@5@$0A@@std@@@std@@IAE?AU?$pair@V?$_Tree_iterator@V?$_Tree_val@U?$_Tree_simple_types@U?$pair@$$CBVCZString@Value@Json@@V23@@std@@@std@@@std@@@std@@_N@1@_NAAU?$pair@$$CBVCZString@Value@Json@@V23@@1@PAU?$_Tree_node@U?$pair@$$CBVCZString@Value@Json@@V23@@std@@PAX@1@@Z
	DD	01H
	DD	FLAT:__tryblocktable$??$_Insert_nohint@AAU?$pair@$$CBVCZString@Value@Json@@V23@@std@@PAU?$_Tree_node@U?$pair@$$CBVCZString@Value@Json@@V23@@std@@PAX@2@@?$_Tree@V?$_Tmap_traits@VCZString@Value@Json@@V23@U?$less@VCZString@Value@Json@@@std@@V?$allocator@U?$pair@$$CBVCZString@Value@Json@@V23@@std@@@5@$0A@@std@@@std@@IAE?AU?$pair@V?$_Tree_iterator@V?$_Tree_val@U?$_Tree_simple_types@U?$pair@$$CBVCZString@Value@Json@@V23@@std@@@std@@@std@@@std@@_N@1@_NAAU?$pair@$$CBVCZString@Value@Json@@V23@@1@PAU?$_Tree_node@U?$pair@$$CBVCZString@Value@Json@@V23@@std@@PAX@1@@Z
	DD	2 DUP(00H)
	DD	00H
	DD	01H
xdata$x	ENDS
;	COMDAT xdata$x
xdata$x	SEGMENT
__catchsym$??$_Copy_nodes@U?$integral_constant@_N$0A@@std@@@?$_Tree@V?$_Tmap_traits@VCZString@Value@Json@@V23@U?$less@VCZString@Value@Json@@@std@@V?$allocator@U?$pair@$$CBVCZString@Value@Json@@V23@@std@@@5@$0A@@std@@@std@@IAEPAU?$_Tree_node@U?$pair@$$CBVCZString@Value@Json@@V23@@std@@PAX@1@PAU21@0U?$integral_constant@_N$0A@@1@@Z$2 DD 040H
	DD	00H
	DD	00H
	DD	FLAT:__catch$??$_Copy_nodes@U?$integral_constant@_N$0A@@std@@@?$_Tree@V?$_Tmap_traits@VCZString@Value@Json@@V23@U?$less@VCZString@Value@Json@@@std@@V?$allocator@U?$pair@$$CBVCZString@Value@Json@@V23@@std@@@5@$0A@@std@@@std@@IAEPAU?$_Tree_node@U?$pair@$$CBVCZString@Value@Json@@V23@@std@@PAX@1@PAU21@0U?$integral_constant@_N$0A@@1@@Z$0
__unwindtable$??$_Copy_nodes@U?$integral_constant@_N$0A@@std@@@?$_Tree@V?$_Tmap_traits@VCZString@Value@Json@@V23@U?$less@VCZString@Value@Json@@@std@@V?$allocator@U?$pair@$$CBVCZString@Value@Json@@V23@@std@@@5@$0A@@std@@@std@@IAEPAU?$_Tree_node@U?$pair@$$CBVCZString@Value@Json@@V23@@std@@PAX@1@PAU21@0U?$integral_constant@_N$0A@@1@@Z DD 0ffffffffH
	DD	00H
	DD	0ffffffffH
	DD	00H
__tryblocktable$??$_Copy_nodes@U?$integral_constant@_N$0A@@std@@@?$_Tree@V?$_Tmap_traits@VCZString@Value@Json@@V23@U?$less@VCZString@Value@Json@@@std@@V?$allocator@U?$pair@$$CBVCZString@Value@Json@@V23@@std@@@5@$0A@@std@@@std@@IAEPAU?$_Tree_node@U?$pair@$$CBVCZString@Value@Json@@V23@@std@@PAX@1@PAU21@0U?$integral_constant@_N$0A@@1@@Z DD 00H
	DD	00H
	DD	01H
	DD	01H
	DD	FLAT:__catchsym$??$_Copy_nodes@U?$integral_constant@_N$0A@@std@@@?$_Tree@V?$_Tmap_traits@VCZString@Value@Json@@V23@U?$less@VCZString@Value@Json@@@std@@V?$allocator@U?$pair@$$CBVCZString@Value@Json@@V23@@std@@@5@$0A@@std@@@std@@IAEPAU?$_Tree_node@U?$pair@$$CBVCZString@Value@Json@@V23@@std@@PAX@1@PAU21@0U?$integral_constant@_N$0A@@1@@Z$2
__ehfuncinfo$??$_Copy_nodes@U?$integral_constant@_N$0A@@std@@@?$_Tree@V?$_Tmap_traits@VCZString@Value@Json@@V23@U?$less@VCZString@Value@Json@@@std@@V?$allocator@U?$pair@$$CBVCZString@Value@Json@@V23@@std@@@5@$0A@@std@@@std@@IAEPAU?$_Tree_node@U?$pair@$$CBVCZString@Value@Json@@V23@@std@@PAX@1@PAU21@0U?$integral_constant@_N$0A@@1@@Z DD 019930522H
	DD	02H
	DD	FLAT:__unwindtable$??$_Copy_nodes@U?$integral_constant@_N$0A@@std@@@?$_Tree@V?$_Tmap_traits@VCZString@Value@Json@@V23@U?$less@VCZString@Value@Json@@@std@@V?$allocator@U?$pair@$$CBVCZString@Value@Json@@V23@@std@@@5@$0A@@std@@@std@@IAEPAU?$_Tree_node@U?$pair@$$CBVCZString@Value@Json@@V23@@std@@PAX@1@PAU21@0U?$integral_constant@_N$0A@@1@@Z
	DD	01H
	DD	FLAT:__tryblocktable$??$_Copy_nodes@U?$integral_constant@_N$0A@@std@@@?$_Tree@V?$_Tmap_traits@VCZString@Value@Json@@V23@U?$less@VCZString@Value@Json@@@std@@V?$allocator@U?$pair@$$CBVCZString@Value@Json@@V23@@std@@@5@$0A@@std@@@std@@IAEPAU?$_Tree_node@U?$pair@$$CBVCZString@Value@Json@@V23@@std@@PAX@1@PAU21@0U?$integral_constant@_N$0A@@1@@Z
	DD	2 DUP(00H)
	DD	00H
	DD	01H
xdata$x	ENDS
;	COMDAT xdata$x
xdata$x	SEGMENT
__catchsym$??$_Insert_hint@AAU?$pair@$$CBVCZString@Value@Json@@V23@@std@@PAU?$_Tree_node@U?$pair@$$CBVCZString@Value@Json@@V23@@std@@PAX@2@@?$_Tree@V?$_Tmap_traits@VCZString@Value@Json@@V23@U?$less@VCZString@Value@Json@@@std@@V?$allocator@U?$pair@$$CBVCZString@Value@Json@@V23@@std@@@5@$0A@@std@@@std@@IAE?AV?$_Tree_iterator@V?$_Tree_val@U?$_Tree_simple_types@U?$pair@$$CBVCZString@Value@Json@@V23@@std@@@std@@@std@@@1@V?$_Tree_const_iterator@V?$_Tree_val@U?$_Tree_simple_types@U?$pair@$$CBVCZString@Value@Json@@V23@@std@@@std@@@std@@@1@AAU?$pair@$$CBVCZString@Value@Json@@V23@@1@PAU?$_Tree_node@U?$pair@$$CBVCZString@Value@Json@@V23@@std@@PAX@1@@Z$2 DD 040H
	DD	00H
	DD	00H
	DD	FLAT:__catch$??$_Insert_hint@AAU?$pair@$$CBVCZString@Value@Json@@V23@@std@@PAU?$_Tree_node@U?$pair@$$CBVCZString@Value@Json@@V23@@std@@PAX@2@@?$_Tree@V?$_Tmap_traits@VCZString@Value@Json@@V23@U?$less@VCZString@Value@Json@@@std@@V?$allocator@U?$pair@$$CBVCZString@Value@Json@@V23@@std@@@5@$0A@@std@@@std@@IAE?AV?$_Tree_iterator@V?$_Tree_val@U?$_Tree_simple_types@U?$pair@$$CBVCZString@Value@Json@@V23@@std@@@std@@@std@@@1@V?$_Tree_const_iterator@V?$_Tree_val@U?$_Tree_simple_types@U?$pair@$$CBVCZString@Value@Json@@V23@@std@@@std@@@std@@@1@AAU?$pair@$$CBVCZString@Value@Json@@V23@@1@PAU?$_Tree_node@U?$pair@$$CBVCZString@Value@Json@@V23@@std@@PAX@1@@Z$0
__unwindtable$??$_Insert_hint@AAU?$pair@$$CBVCZString@Value@Json@@V23@@std@@PAU?$_Tree_node@U?$pair@$$CBVCZString@Value@Json@@V23@@std@@PAX@2@@?$_Tree@V?$_Tmap_traits@VCZString@Value@Json@@V23@U?$less@VCZString@Value@Json@@@std@@V?$allocator@U?$pair@$$CBVCZString@Value@Json@@V23@@std@@@5@$0A@@std@@@std@@IAE?AV?$_Tree_iterator@V?$_Tree_val@U?$_Tree_simple_types@U?$pair@$$CBVCZString@Value@Json@@V23@@std@@@std@@@std@@@1@V?$_Tree_const_iterator@V?$_Tree_val@U?$_Tree_simple_types@U?$pair@$$CBVCZString@Value@Json@@V23@@std@@@std@@@std@@@1@AAU?$pair@$$CBVCZString@Value@Json@@V23@@1@PAU?$_Tree_node@U?$pair@$$CBVCZString@Value@Json@@V23@@std@@PAX@1@@Z DD 0ffffffffH
	DD	00H
	DD	0ffffffffH
	DD	00H
__tryblocktable$??$_Insert_hint@AAU?$pair@$$CBVCZString@Value@Json@@V23@@std@@PAU?$_Tree_node@U?$pair@$$CBVCZString@Value@Json@@V23@@std@@PAX@2@@?$_Tree@V?$_Tmap_traits@VCZString@Value@Json@@V23@U?$less@VCZString@Value@Json@@@std@@V?$allocator@U?$pair@$$CBVCZString@Value@Json@@V23@@std@@@5@$0A@@std@@@std@@IAE?AV?$_Tree_iterator@V?$_Tree_val@U?$_Tree_simple_types@U?$pair@$$CBVCZString@Value@Json@@V23@@std@@@std@@@std@@@1@V?$_Tree_const_iterator@V?$_Tree_val@U?$_Tree_simple_types@U?$pair@$$CBVCZString@Value@Json@@V23@@std@@@std@@@std@@@1@AAU?$pair@$$CBVCZString@Value@Json@@V23@@1@PAU?$_Tree_node@U?$pair@$$CBVCZString@Value@Json@@V23@@std@@PAX@1@@Z DD 00H
	DD	00H
	DD	01H
	DD	01H
	DD	FLAT:__catchsym$??$_Insert_hint@AAU?$pair@$$CBVCZString@Value@Json@@V23@@std@@PAU?$_Tree_node@U?$pair@$$CBVCZString@Value@Json@@V23@@std@@PAX@2@@?$_Tree@V?$_Tmap_traits@VCZString@Value@Json@@V23@U?$less@VCZString@Value@Json@@@std@@V?$allocator@U?$pair@$$CBVCZString@Value@Json@@V23@@std@@@5@$0A@@std@@@std@@IAE?AV?$_Tree_iterator@V?$_Tree_val@U?$_Tree_simple_types@U?$pair@$$CBVCZString@Value@Json@@V23@@std@@@std@@@std@@@1@V?$_Tree_const_iterator@V?$_Tree_val@U?$_Tree_simple_types@U?$pair@$$CBVCZString@Value@Json@@V23@@std@@@std@@@std@@@1@AAU?$pair@$$CBVCZString@Value@Json@@V23@@1@PAU?$_Tree_node@U?$pair@$$CBVCZString@Value@Json@@V23@@std@@PAX@1@@Z$2
__ehfuncinfo$??$_Insert_hint@AAU?$pair@$$CBVCZString@Value@Json@@V23@@std@@PAU?$_Tree_node@U?$pair@$$CBVCZString@Value@Json@@V23@@std@@PAX@2@@?$_Tree@V?$_Tmap_traits@VCZString@Value@Json@@V23@U?$less@VCZString@Value@Json@@@std@@V?$allocator@U?$pair@$$CBVCZString@Value@Json@@V23@@std@@@5@$0A@@std@@@std@@IAE?AV?$_Tree_iterator@V?$_Tree_val@U?$_Tree_simple_types@U?$pair@$$CBVCZString@Value@Json@@V23@@std@@@std@@@std@@@1@V?$_Tree_const_iterator@V?$_Tree_val@U?$_Tree_simple_types@U?$pair@$$CBVCZString@Value@Json@@V23@@std@@@std@@@std@@@1@AAU?$pair@$$CBVCZString@Value@Json@@V23@@1@PAU?$_Tree_node@U?$pair@$$CBVCZString@Value@Json@@V23@@std@@PAX@1@@Z DD 019930522H
	DD	02H
	DD	FLAT:__unwindtable$??$_Insert_hint@AAU?$pair@$$CBVCZString@Value@Json@@V23@@std@@PAU?$_Tree_node@U?$pair@$$CBVCZString@Value@Json@@V23@@std@@PAX@2@@?$_Tree@V?$_Tmap_traits@VCZString@Value@Json@@V23@U?$less@VCZString@Value@Json@@@std@@V?$allocator@U?$pair@$$CBVCZString@Value@Json@@V23@@std@@@5@$0A@@std@@@std@@IAE?AV?$_Tree_iterator@V?$_Tree_val@U?$_Tree_simple_types@U?$pair@$$CBVCZString@Value@Json@@V23@@std@@@std@@@std@@@1@V?$_Tree_const_iterator@V?$_Tree_val@U?$_Tree_simple_types@U?$pair@$$CBVCZString@Value@Json@@V23@@std@@@std@@@std@@@1@AAU?$pair@$$CBVCZString@Value@Json@@V23@@1@PAU?$_Tree_node@U?$pair@$$CBVCZString@Value@Json@@V23@@std@@PAX@1@@Z
	DD	01H
	DD	FLAT:__tryblocktable$??$_Insert_hint@AAU?$pair@$$CBVCZString@Value@Json@@V23@@std@@PAU?$_Tree_node@U?$pair@$$CBVCZString@Value@Json@@V23@@std@@PAX@2@@?$_Tree@V?$_Tmap_traits@VCZString@Value@Json@@V23@U?$less@VCZString@Value@Json@@@std@@V?$allocator@U?$pair@$$CBVCZString@Value@Json@@V23@@std@@@5@$0A@@std@@@std@@IAE?AV?$_Tree_iterator@V?$_Tree_val@U?$_Tree_simple_types@U?$pair@$$CBVCZString@Value@Json@@V23@@std@@@std@@@std@@@1@V?$_Tree_const_iterator@V?$_Tree_val@U?$_Tree_simple_types@U?$pair@$$CBVCZString@Value@Json@@V23@@std@@@std@@@std@@@1@AAU?$pair@$$CBVCZString@Value@Json@@V23@@1@PAU?$_Tree_node@U?$pair@$$CBVCZString@Value@Json@@V23@@std@@PAX@1@@Z
	DD	2 DUP(00H)
	DD	00H
	DD	01H
xdata$x	ENDS
;	COMDAT xdata$x
xdata$x	SEGMENT
__catchsym$??$_Buynode@AAU?$pair@$$CBVCZString@Value@Json@@V23@@std@@@?$_Tree_buy@U?$pair@$$CBVCZString@Value@Json@@V23@@std@@V?$allocator@U?$pair@$$CBVCZString@Value@Json@@V23@@std@@@2@@std@@QAEPAU?$_Tree_node@U?$pair@$$CBVCZString@Value@Json@@V23@@std@@PAX@1@AAU?$pair@$$CBVCZString@Value@Json@@V23@@1@@Z$2 DD 040H
	DD	00H
	DD	00H
	DD	FLAT:__catch$??$_Buynode@AAU?$pair@$$CBVCZString@Value@Json@@V23@@std@@@?$_Tree_buy@U?$pair@$$CBVCZString@Value@Json@@V23@@std@@V?$allocator@U?$pair@$$CBVCZString@Value@Json@@V23@@std@@@2@@std@@QAEPAU?$_Tree_node@U?$pair@$$CBVCZString@Value@Json@@V23@@std@@PAX@1@AAU?$pair@$$CBVCZString@Value@Json@@V23@@1@@Z$0
__unwindtable$??$_Buynode@AAU?$pair@$$CBVCZString@Value@Json@@V23@@std@@@?$_Tree_buy@U?$pair@$$CBVCZString@Value@Json@@V23@@std@@V?$allocator@U?$pair@$$CBVCZString@Value@Json@@V23@@std@@@2@@std@@QAEPAU?$_Tree_node@U?$pair@$$CBVCZString@Value@Json@@V23@@std@@PAX@1@AAU?$pair@$$CBVCZString@Value@Json@@V23@@1@@Z DD 0ffffffffH
	DD	00H
	DD	0ffffffffH
	DD	00H
__tryblocktable$??$_Buynode@AAU?$pair@$$CBVCZString@Value@Json@@V23@@std@@@?$_Tree_buy@U?$pair@$$CBVCZString@Value@Json@@V23@@std@@V?$allocator@U?$pair@$$CBVCZString@Value@Json@@V23@@std@@@2@@std@@QAEPAU?$_Tree_node@U?$pair@$$CBVCZString@Value@Json@@V23@@std@@PAX@1@AAU?$pair@$$CBVCZString@Value@Json@@V23@@1@@Z DD 00H
	DD	00H
	DD	01H
	DD	01H
	DD	FLAT:__catchsym$??$_Buynode@AAU?$pair@$$CBVCZString@Value@Json@@V23@@std@@@?$_Tree_buy@U?$pair@$$CBVCZString@Value@Json@@V23@@std@@V?$allocator@U?$pair@$$CBVCZString@Value@Json@@V23@@std@@@2@@std@@QAEPAU?$_Tree_node@U?$pair@$$CBVCZString@Value@Json@@V23@@std@@PAX@1@AAU?$pair@$$CBVCZString@Value@Json@@V23@@1@@Z$2
__ehfuncinfo$??$_Buynode@AAU?$pair@$$CBVCZString@Value@Json@@V23@@std@@@?$_Tree_buy@U?$pair@$$CBVCZString@Value@Json@@V23@@std@@V?$allocator@U?$pair@$$CBVCZString@Value@Json@@V23@@std@@@2@@std@@QAEPAU?$_Tree_node@U?$pair@$$CBVCZString@Value@Json@@V23@@std@@PAX@1@AAU?$pair@$$CBVCZString@Value@Json@@V23@@1@@Z DD 019930522H
	DD	02H
	DD	FLAT:__unwindtable$??$_Buynode@AAU?$pair@$$CBVCZString@Value@Json@@V23@@std@@@?$_Tree_buy@U?$pair@$$CBVCZString@Value@Json@@V23@@std@@V?$allocator@U?$pair@$$CBVCZString@Value@Json@@V23@@std@@@2@@std@@QAEPAU?$_Tree_node@U?$pair@$$CBVCZString@Value@Json@@V23@@std@@PAX@1@AAU?$pair@$$CBVCZString@Value@Json@@V23@@1@@Z
	DD	01H
	DD	FLAT:__tryblocktable$??$_Buynode@AAU?$pair@$$CBVCZString@Value@Json@@V23@@std@@@?$_Tree_buy@U?$pair@$$CBVCZString@Value@Json@@V23@@std@@V?$allocator@U?$pair@$$CBVCZString@Value@Json@@V23@@std@@@2@@std@@QAEPAU?$_Tree_node@U?$pair@$$CBVCZString@Value@Json@@V23@@std@@PAX@1@AAU?$pair@$$CBVCZString@Value@Json@@V23@@1@@Z
	DD	2 DUP(00H)
	DD	00H
	DD	01H
xdata$x	ENDS
;	COMDAT xdata$x
xdata$x	SEGMENT
__unwindtable$??$?0AAVCZString@Value@Json@@ABV12@X@?$pair@$$CBVCZString@Value@Json@@V23@@std@@QAE@AAVCZString@Value@Json@@ABV34@@Z DD 0ffffffffH
	DD	FLAT:__unwindfunclet$??$?0AAVCZString@Value@Json@@ABV12@X@?$pair@$$CBVCZString@Value@Json@@V23@@std@@QAE@AAVCZString@Value@Json@@ABV34@@Z$0
__ehfuncinfo$??$?0AAVCZString@Value@Json@@ABV12@X@?$pair@$$CBVCZString@Value@Json@@V23@@std@@QAE@AAVCZString@Value@Json@@ABV34@@Z DD 019930522H
	DD	01H
	DD	FLAT:__unwindtable$??$?0AAVCZString@Value@Json@@ABV12@X@?$pair@$$CBVCZString@Value@Json@@V23@@std@@QAE@AAVCZString@Value@Json@@ABV34@@Z
	DD	2 DUP(00H)
	DD	2 DUP(00H)
	DD	00H
	DD	01H
xdata$x	ENDS
;	COMDAT xdata$x
xdata$x	SEGMENT
__unwindtable$??0?$pair@$$CBVCZString@Value@Json@@V23@@std@@QAE@ABU01@@Z DD 0ffffffffH
	DD	FLAT:__unwindfunclet$??0?$pair@$$CBVCZString@Value@Json@@V23@@std@@QAE@ABU01@@Z$0
__ehfuncinfo$??0?$pair@$$CBVCZString@Value@Json@@V23@@std@@QAE@ABU01@@Z DD 019930522H
	DD	01H
	DD	FLAT:__unwindtable$??0?$pair@$$CBVCZString@Value@Json@@V23@@std@@QAE@ABU01@@Z
	DD	2 DUP(00H)
	DD	2 DUP(00H)
	DD	00H
	DD	01H
xdata$x	ENDS
;	COMDAT xdata$x
xdata$x	SEGMENT
__unwindtable$??1?$pair@$$CBVCZString@Value@Json@@V23@@std@@QAE@XZ DD 0ffffffffH
	DD	FLAT:__unwindfunclet$??1?$pair@$$CBVCZString@Value@Json@@V23@@std@@QAE@XZ$0
__ehfuncinfo$??1?$pair@$$CBVCZString@Value@Json@@V23@@std@@QAE@XZ DD 019930522H
	DD	01H
	DD	FLAT:__unwindtable$??1?$pair@$$CBVCZString@Value@Json@@V23@@std@@QAE@XZ
	DD	2 DUP(00H)
	DD	2 DUP(00H)
	DD	00H
	DD	01H
xdata$x	ENDS
;	COMDAT xdata$x
xdata$x	SEGMENT
__catchsym$?_Reallocate@?$vector@V?$basic_string@DU?$char_traits@D@std@@V?$allocator@D@2@@std@@V?$allocator@V?$basic_string@DU?$char_traits@D@std@@V?$allocator@D@2@@std@@@2@@std@@IAEXI@Z$2 DD 040H
	DD	00H
	DD	00H
	DD	FLAT:__catch$?_Reallocate@?$vector@V?$basic_string@DU?$char_traits@D@std@@V?$allocator@D@2@@std@@V?$allocator@V?$basic_string@DU?$char_traits@D@std@@V?$allocator@D@2@@std@@@2@@std@@IAEXI@Z$0
__unwindtable$?_Reallocate@?$vector@V?$basic_string@DU?$char_traits@D@std@@V?$allocator@D@2@@std@@V?$allocator@V?$basic_string@DU?$char_traits@D@std@@V?$allocator@D@2@@std@@@2@@std@@IAEXI@Z DD 0ffffffffH
	DD	00H
	DD	0ffffffffH
	DD	00H
__tryblocktable$?_Reallocate@?$vector@V?$basic_string@DU?$char_traits@D@std@@V?$allocator@D@2@@std@@V?$allocator@V?$basic_string@DU?$char_traits@D@std@@V?$allocator@D@2@@std@@@2@@std@@IAEXI@Z DD 00H
	DD	00H
	DD	01H
	DD	01H
	DD	FLAT:__catchsym$?_Reallocate@?$vector@V?$basic_string@DU?$char_traits@D@std@@V?$allocator@D@2@@std@@V?$allocator@V?$basic_string@DU?$char_traits@D@std@@V?$allocator@D@2@@std@@@2@@std@@IAEXI@Z$2
__ehfuncinfo$?_Reallocate@?$vector@V?$basic_string@DU?$char_traits@D@std@@V?$allocator@D@2@@std@@V?$allocator@V?$basic_string@DU?$char_traits@D@std@@V?$allocator@D@2@@std@@@2@@std@@IAEXI@Z DD 019930522H
	DD	02H
	DD	FLAT:__unwindtable$?_Reallocate@?$vector@V?$basic_string@DU?$char_traits@D@std@@V?$allocator@D@2@@std@@V?$allocator@V?$basic_string@DU?$char_traits@D@std@@V?$allocator@D@2@@std@@@2@@std@@IAEXI@Z
	DD	01H
	DD	FLAT:__tryblocktable$?_Reallocate@?$vector@V?$basic_string@DU?$char_traits@D@std@@V?$allocator@D@2@@std@@V?$allocator@V?$basic_string@DU?$char_traits@D@std@@V?$allocator@D@2@@std@@@2@@std@@IAEXI@Z
	DD	2 DUP(00H)
	DD	00H
	DD	01H
xdata$x	ENDS
;	COMDAT xdata$x
xdata$x	SEGMENT
__unwindtable$?index@ValueIteratorBase@Json@@QBEIXZ DD 0ffffffffH
	DD	FLAT:__unwindfunclet$?index@ValueIteratorBase@Json@@QBEIXZ$0
__ehfuncinfo$?index@ValueIteratorBase@Json@@QBEIXZ DD 019930522H
	DD	01H
	DD	FLAT:__unwindtable$?index@ValueIteratorBase@Json@@QBEIXZ
	DD	2 DUP(00H)
	DD	2 DUP(00H)
	DD	00H
	DD	01H
xdata$x	ENDS
;	COMDAT xdata$x
xdata$x	SEGMENT
__unwindtable$?key@ValueIteratorBase@Json@@QBE?AVValue@2@XZ DD 0ffffffffH
	DD	FLAT:__unwindfunclet$?key@ValueIteratorBase@Json@@QBE?AVValue@2@XZ$1
	DD	00H
	DD	FLAT:__unwindfunclet$?key@ValueIteratorBase@Json@@QBE?AVValue@2@XZ$0
__ehfuncinfo$?key@ValueIteratorBase@Json@@QBE?AVValue@2@XZ DD 019930522H
	DD	02H
	DD	FLAT:__unwindtable$?key@ValueIteratorBase@Json@@QBE?AVValue@2@XZ
	DD	2 DUP(00H)
	DD	2 DUP(00H)
	DD	00H
	DD	01H
xdata$x	ENDS
;	COMDAT xdata$x
xdata$x	SEGMENT
__catchsym$??0?$_Tree@V?$_Tmap_traits@VCZString@Value@Json@@V23@U?$less@VCZString@Value@Json@@@std@@V?$allocator@U?$pair@$$CBVCZString@Value@Json@@V23@@std@@@5@$0A@@std@@@std@@QAE@ABV01@ABV?$allocator@U?$pair@$$CBVCZString@Value@Json@@V23@@std@@@1@@Z$3 DD 040H
	DD	00H
	DD	00H
	DD	FLAT:__catch$??0?$_Tree@V?$_Tmap_traits@VCZString@Value@Json@@V23@U?$less@VCZString@Value@Json@@@std@@V?$allocator@U?$pair@$$CBVCZString@Value@Json@@V23@@std@@@5@$0A@@std@@@std@@QAE@ABV01@ABV?$allocator@U?$pair@$$CBVCZString@Value@Json@@V23@@std@@@1@@Z$0
__tryblocktable$??0?$_Tree@V?$_Tmap_traits@VCZString@Value@Json@@V23@U?$less@VCZString@Value@Json@@@std@@V?$allocator@U?$pair@$$CBVCZString@Value@Json@@V23@@std@@@5@$0A@@std@@@std@@QAE@ABV01@ABV?$allocator@U?$pair@$$CBVCZString@Value@Json@@V23@@std@@@1@@Z DD 01H
	DD	01H
	DD	02H
	DD	01H
	DD	FLAT:__catchsym$??0?$_Tree@V?$_Tmap_traits@VCZString@Value@Json@@V23@U?$less@VCZString@Value@Json@@@std@@V?$allocator@U?$pair@$$CBVCZString@Value@Json@@V23@@std@@@5@$0A@@std@@@std@@QAE@ABV01@ABV?$allocator@U?$pair@$$CBVCZString@Value@Json@@V23@@std@@@1@@Z$3
__unwindtable$??0?$_Tree@V?$_Tmap_traits@VCZString@Value@Json@@V23@U?$less@VCZString@Value@Json@@@std@@V?$allocator@U?$pair@$$CBVCZString@Value@Json@@V23@@std@@@5@$0A@@std@@@std@@QAE@ABV01@ABV?$allocator@U?$pair@$$CBVCZString@Value@Json@@V23@@std@@@1@@Z DD 0ffffffffH
	DD	FLAT:__unwindfunclet$??0?$_Tree@V?$_Tmap_traits@VCZString@Value@Json@@V23@U?$less@VCZString@Value@Json@@@std@@V?$allocator@U?$pair@$$CBVCZString@Value@Json@@V23@@std@@@5@$0A@@std@@@std@@QAE@ABV01@ABV?$allocator@U?$pair@$$CBVCZString@Value@Json@@V23@@std@@@1@@Z$2
	DD	00H
	DD	00H
	DD	00H
	DD	00H
__ehfuncinfo$??0?$_Tree@V?$_Tmap_traits@VCZString@Value@Json@@V23@U?$less@VCZString@Value@Json@@@std@@V?$allocator@U?$pair@$$CBVCZString@Value@Json@@V23@@std@@@5@$0A@@std@@@std@@QAE@ABV01@ABV?$allocator@U?$pair@$$CBVCZString@Value@Json@@V23@@std@@@1@@Z DD 019930522H
	DD	03H
	DD	FLAT:__unwindtable$??0?$_Tree@V?$_Tmap_traits@VCZString@Value@Json@@V23@U?$less@VCZString@Value@Json@@@std@@V?$allocator@U?$pair@$$CBVCZString@Value@Json@@V23@@std@@@5@$0A@@std@@@std@@QAE@ABV01@ABV?$allocator@U?$pair@$$CBVCZString@Value@Json@@V23@@std@@@1@@Z
	DD	01H
	DD	FLAT:__tryblocktable$??0?$_Tree@V?$_Tmap_traits@VCZString@Value@Json@@V23@U?$less@VCZString@Value@Json@@@std@@V?$allocator@U?$pair@$$CBVCZString@Value@Json@@V23@@std@@@5@$0A@@std@@@std@@QAE@ABV01@ABV?$allocator@U?$pair@$$CBVCZString@Value@Json@@V23@@std@@@1@@Z
	DD	2 DUP(00H)
	DD	00H
	DD	01H
xdata$x	ENDS
;	COMDAT xdata$x
xdata$x	SEGMENT
__catchsym$?_Buynode0@?$_Tree_buy@U?$pair@$$CBVCZString@Value@Json@@V23@@std@@V?$allocator@U?$pair@$$CBVCZString@Value@Json@@V23@@std@@@2@@std@@QAEPAU?$_Tree_node@U?$pair@$$CBVCZString@Value@Json@@V23@@std@@PAX@2@XZ$2 DD 040H
	DD	00H
	DD	00H
	DD	FLAT:__catch$?_Buynode0@?$_Tree_buy@U?$pair@$$CBVCZString@Value@Json@@V23@@std@@V?$allocator@U?$pair@$$CBVCZString@Value@Json@@V23@@std@@@2@@std@@QAEPAU?$_Tree_node@U?$pair@$$CBVCZString@Value@Json@@V23@@std@@PAX@2@XZ$0
__unwindtable$?_Buynode0@?$_Tree_buy@U?$pair@$$CBVCZString@Value@Json@@V23@@std@@V?$allocator@U?$pair@$$CBVCZString@Value@Json@@V23@@std@@@2@@std@@QAEPAU?$_Tree_node@U?$pair@$$CBVCZString@Value@Json@@V23@@std@@PAX@2@XZ DD 0ffffffffH
	DD	00H
	DD	0ffffffffH
	DD	00H
__tryblocktable$?_Buynode0@?$_Tree_buy@U?$pair@$$CBVCZString@Value@Json@@V23@@std@@V?$allocator@U?$pair@$$CBVCZString@Value@Json@@V23@@std@@@2@@std@@QAEPAU?$_Tree_node@U?$pair@$$CBVCZString@Value@Json@@V23@@std@@PAX@2@XZ DD 00H
	DD	00H
	DD	01H
	DD	01H
	DD	FLAT:__catchsym$?_Buynode0@?$_Tree_buy@U?$pair@$$CBVCZString@Value@Json@@V23@@std@@V?$allocator@U?$pair@$$CBVCZString@Value@Json@@V23@@std@@@2@@std@@QAEPAU?$_Tree_node@U?$pair@$$CBVCZString@Value@Json@@V23@@std@@PAX@2@XZ$2
__ehfuncinfo$?_Buynode0@?$_Tree_buy@U?$pair@$$CBVCZString@Value@Json@@V23@@std@@V?$allocator@U?$pair@$$CBVCZString@Value@Json@@V23@@std@@@2@@std@@QAEPAU?$_Tree_node@U?$pair@$$CBVCZString@Value@Json@@V23@@std@@PAX@2@XZ DD 019930522H
	DD	02H
	DD	FLAT:__unwindtable$?_Buynode0@?$_Tree_buy@U?$pair@$$CBVCZString@Value@Json@@V23@@std@@V?$allocator@U?$pair@$$CBVCZString@Value@Json@@V23@@std@@@2@@std@@QAEPAU?$_Tree_node@U?$pair@$$CBVCZString@Value@Json@@V23@@std@@PAX@2@XZ
	DD	01H
	DD	FLAT:__tryblocktable$?_Buynode0@?$_Tree_buy@U?$pair@$$CBVCZString@Value@Json@@V23@@std@@V?$allocator@U?$pair@$$CBVCZString@Value@Json@@V23@@std@@@2@@std@@QAEPAU?$_Tree_node@U?$pair@$$CBVCZString@Value@Json@@V23@@std@@PAX@2@XZ
	DD	2 DUP(00H)
	DD	00H
	DD	01H
xdata$x	ENDS
;	COMDAT xdata$x
xdata$x	SEGMENT
__catchsym$?_Buyheadnode@?$_Tree_alloc@$0A@U?$_Tree_base_types@U?$pair@$$CBVCZString@Value@Json@@V23@@std@@V?$allocator@U?$pair@$$CBVCZString@Value@Json@@V23@@std@@@2@@std@@@std@@QAEPAU?$_Tree_node@U?$pair@$$CBVCZString@Value@Json@@V23@@std@@PAX@2@XZ$2 DD 040H
	DD	00H
	DD	00H
	DD	FLAT:__catch$?_Buyheadnode@?$_Tree_alloc@$0A@U?$_Tree_base_types@U?$pair@$$CBVCZString@Value@Json@@V23@@std@@V?$allocator@U?$pair@$$CBVCZString@Value@Json@@V23@@std@@@2@@std@@@std@@QAEPAU?$_Tree_node@U?$pair@$$CBVCZString@Value@Json@@V23@@std@@PAX@2@XZ$0
__unwindtable$?_Buyheadnode@?$_Tree_alloc@$0A@U?$_Tree_base_types@U?$pair@$$CBVCZString@Value@Json@@V23@@std@@V?$allocator@U?$pair@$$CBVCZString@Value@Json@@V23@@std@@@2@@std@@@std@@QAEPAU?$_Tree_node@U?$pair@$$CBVCZString@Value@Json@@V23@@std@@PAX@2@XZ DD 0ffffffffH
	DD	00H
	DD	0ffffffffH
	DD	00H
__tryblocktable$?_Buyheadnode@?$_Tree_alloc@$0A@U?$_Tree_base_types@U?$pair@$$CBVCZString@Value@Json@@V23@@std@@V?$allocator@U?$pair@$$CBVCZString@Value@Json@@V23@@std@@@2@@std@@@std@@QAEPAU?$_Tree_node@U?$pair@$$CBVCZString@Value@Json@@V23@@std@@PAX@2@XZ DD 00H
	DD	00H
	DD	01H
	DD	01H
	DD	FLAT:__catchsym$?_Buyheadnode@?$_Tree_alloc@$0A@U?$_Tree_base_types@U?$pair@$$CBVCZString@Value@Json@@V23@@std@@V?$allocator@U?$pair@$$CBVCZString@Value@Json@@V23@@std@@@2@@std@@@std@@QAEPAU?$_Tree_node@U?$pair@$$CBVCZString@Value@Json@@V23@@std@@PAX@2@XZ$2
__ehfuncinfo$?_Buyheadnode@?$_Tree_alloc@$0A@U?$_Tree_base_types@U?$pair@$$CBVCZString@Value@Json@@V23@@std@@V?$allocator@U?$pair@$$CBVCZString@Value@Json@@V23@@std@@@2@@std@@@std@@QAEPAU?$_Tree_node@U?$pair@$$CBVCZString@Value@Json@@V23@@std@@PAX@2@XZ DD 019930522H
	DD	02H
	DD	FLAT:__unwindtable$?_Buyheadnode@?$_Tree_alloc@$0A@U?$_Tree_base_types@U?$pair@$$CBVCZString@Value@Json@@V23@@std@@V?$allocator@U?$pair@$$CBVCZString@Value@Json@@V23@@std@@@2@@std@@@std@@QAEPAU?$_Tree_node@U?$pair@$$CBVCZString@Value@Json@@V23@@std@@PAX@2@XZ
	DD	01H
	DD	FLAT:__tryblocktable$?_Buyheadnode@?$_Tree_alloc@$0A@U?$_Tree_base_types@U?$pair@$$CBVCZString@Value@Json@@V23@@std@@V?$allocator@U?$pair@$$CBVCZString@Value@Json@@V23@@std@@@2@@std@@@std@@QAEPAU?$_Tree_node@U?$pair@$$CBVCZString@Value@Json@@V23@@std@@PAX@2@XZ
	DD	2 DUP(00H)
	DD	00H
	DD	01H
xdata$x	ENDS
;	COMDAT xdata$x
xdata$x	SEGMENT
__catchsym$?_Reallocate@?$vector@VPathArgument@Json@@V?$allocator@VPathArgument@Json@@@std@@@std@@IAEXI@Z$2 DD 040H
	DD	00H
	DD	00H
	DD	FLAT:__catch$?_Reallocate@?$vector@VPathArgument@Json@@V?$allocator@VPathArgument@Json@@@std@@@std@@IAEXI@Z$0
__unwindtable$?_Reallocate@?$vector@VPathArgument@Json@@V?$allocator@VPathArgument@Json@@@std@@@std@@IAEXI@Z DD 0ffffffffH
	DD	00H
	DD	0ffffffffH
	DD	00H
__tryblocktable$?_Reallocate@?$vector@VPathArgument@Json@@V?$allocator@VPathArgument@Json@@@std@@@std@@IAEXI@Z DD 00H
	DD	00H
	DD	01H
	DD	01H
	DD	FLAT:__catchsym$?_Reallocate@?$vector@VPathArgument@Json@@V?$allocator@VPathArgument@Json@@@std@@@std@@IAEXI@Z$2
__ehfuncinfo$?_Reallocate@?$vector@VPathArgument@Json@@V?$allocator@VPathArgument@Json@@@std@@@std@@IAEXI@Z DD 019930522H
	DD	02H
	DD	FLAT:__unwindtable$?_Reallocate@?$vector@VPathArgument@Json@@V?$allocator@VPathArgument@Json@@@std@@@std@@IAEXI@Z
	DD	01H
	DD	FLAT:__tryblocktable$?_Reallocate@?$vector@VPathArgument@Json@@V?$allocator@VPathArgument@Json@@@std@@@std@@IAEXI@Z
	DD	2 DUP(00H)
	DD	00H
	DD	01H
xdata$x	ENDS
;	COMDAT xdata$x
xdata$x	SEGMENT
__unwindtable$?construct@?$allocator@VPathArgument@Json@@@std@@QAEXPAVPathArgument@Json@@ABV34@@Z DD 0ffffffffH
	DD	FLAT:__unwindfunclet$?construct@?$allocator@VPathArgument@Json@@@std@@QAEXPAVPathArgument@Json@@ABV34@@Z$0
__ehfuncinfo$?construct@?$allocator@VPathArgument@Json@@@std@@QAEXPAVPathArgument@Json@@ABV34@@Z DD 019930522H
	DD	01H
	DD	FLAT:__unwindtable$?construct@?$allocator@VPathArgument@Json@@@std@@QAEXPAVPathArgument@Json@@ABV34@@Z
	DD	2 DUP(00H)
	DD	2 DUP(00H)
	DD	00H
	DD	01H
xdata$x	ENDS
;	COMDAT xdata$x
xdata$x	SEGMENT
__catchsym$?_Reallocate@?$vector@PBVPathArgument@Json@@V?$allocator@PBVPathArgument@Json@@@std@@@std@@IAEXI@Z$2 DD 040H
	DD	00H
	DD	00H
	DD	FLAT:__catch$?_Reallocate@?$vector@PBVPathArgument@Json@@V?$allocator@PBVPathArgument@Json@@@std@@@std@@IAEXI@Z$0
__unwindtable$?_Reallocate@?$vector@PBVPathArgument@Json@@V?$allocator@PBVPathArgument@Json@@@std@@@std@@IAEXI@Z DD 0ffffffffH
	DD	00H
	DD	0ffffffffH
	DD	00H
__tryblocktable$?_Reallocate@?$vector@PBVPathArgument@Json@@V?$allocator@PBVPathArgument@Json@@@std@@@std@@IAEXI@Z DD 00H
	DD	00H
	DD	01H
	DD	01H
	DD	FLAT:__catchsym$?_Reallocate@?$vector@PBVPathArgument@Json@@V?$allocator@PBVPathArgument@Json@@@std@@@std@@IAEXI@Z$2
__ehfuncinfo$?_Reallocate@?$vector@PBVPathArgument@Json@@V?$allocator@PBVPathArgument@Json@@@std@@@std@@IAEXI@Z DD 019930522H
	DD	02H
	DD	FLAT:__unwindtable$?_Reallocate@?$vector@PBVPathArgument@Json@@V?$allocator@PBVPathArgument@Json@@@std@@@std@@IAEXI@Z
	DD	01H
	DD	FLAT:__tryblocktable$?_Reallocate@?$vector@PBVPathArgument@Json@@V?$allocator@PBVPathArgument@Json@@@std@@@std@@IAEXI@Z
	DD	2 DUP(00H)
	DD	00H
	DD	01H
xdata$x	ENDS
;	COMDAT xdata$x
xdata$x	SEGMENT
__unwindtable$?makePath@Path@Json@@AAEXABV?$basic_string@DU?$char_traits@D@std@@V?$allocator@D@2@@std@@ABV?$vector@PBVPathArgument@Json@@V?$allocator@PBVPathArgument@Json@@@std@@@4@@Z DD 0ffffffffH
	DD	FLAT:__unwindfunclet$?makePath@Path@Json@@AAEXABV?$basic_string@DU?$char_traits@D@std@@V?$allocator@D@2@@std@@ABV?$vector@PBVPathArgument@Json@@V?$allocator@PBVPathArgument@Json@@@std@@@4@@Z$0
	DD	0ffffffffH
	DD	FLAT:__unwindfunclet$?makePath@Path@Json@@AAEXABV?$basic_string@DU?$char_traits@D@std@@V?$allocator@D@2@@std@@ABV?$vector@PBVPathArgument@Json@@V?$allocator@PBVPathArgument@Json@@@std@@@4@@Z$1
	DD	01H
	DD	FLAT:__unwindfunclet$?makePath@Path@Json@@AAEXABV?$basic_string@DU?$char_traits@D@std@@V?$allocator@D@2@@std@@ABV?$vector@PBVPathArgument@Json@@V?$allocator@PBVPathArgument@Json@@@std@@@4@@Z$2
__ehfuncinfo$?makePath@Path@Json@@AAEXABV?$basic_string@DU?$char_traits@D@std@@V?$allocator@D@2@@std@@ABV?$vector@PBVPathArgument@Json@@V?$allocator@PBVPathArgument@Json@@@std@@@4@@Z DD 019930522H
	DD	03H
	DD	FLAT:__unwindtable$?makePath@Path@Json@@AAEXABV?$basic_string@DU?$char_traits@D@std@@V?$allocator@D@2@@std@@ABV?$vector@PBVPathArgument@Json@@V?$allocator@PBVPathArgument@Json@@@std@@@4@@Z
	DD	2 DUP(00H)
	DD	2 DUP(00H)
	DD	00H
	DD	01H
xdata$x	ENDS
;	COMDAT xdata$x
xdata$x	SEGMENT
__unwindtable$??0Path@Json@@QAE@ABV?$basic_string@DU?$char_traits@D@std@@V?$allocator@D@2@@std@@ABVPathArgument@1@1111@Z DD 0ffffffffH
	DD	FLAT:__unwindfunclet$??0Path@Json@@QAE@ABV?$basic_string@DU?$char_traits@D@std@@V?$allocator@D@2@@std@@ABVPathArgument@1@1111@Z$0
	DD	00H
	DD	FLAT:__unwindfunclet$??0Path@Json@@QAE@ABV?$basic_string@DU?$char_traits@D@std@@V?$allocator@D@2@@std@@ABVPathArgument@1@1111@Z$1
__ehfuncinfo$??0Path@Json@@QAE@ABV?$basic_string@DU?$char_traits@D@std@@V?$allocator@D@2@@std@@ABVPathArgument@1@1111@Z DD 019930522H
	DD	02H
	DD	FLAT:__unwindtable$??0Path@Json@@QAE@ABV?$basic_string@DU?$char_traits@D@std@@V?$allocator@D@2@@std@@ABVPathArgument@1@1111@Z
	DD	2 DUP(00H)
	DD	2 DUP(00H)
	DD	00H
	DD	01H
xdata$x	ENDS
;	COMDAT xdata$x
xdata$x	SEGMENT
__unwindtable$?resolveReference@Value@Json@@AAEAAV12@PBD_N@Z DD 0ffffffffH
	DD	FLAT:__unwindfunclet$?resolveReference@Value@Json@@AAEAAV12@PBD_N@Z$0
	DD	0ffffffffH
	DD	FLAT:__unwindfunclet$?resolveReference@Value@Json@@AAEAAV12@PBD_N@Z$1
	DD	01H
	DD	FLAT:__unwindfunclet$?resolveReference@Value@Json@@AAEAAV12@PBD_N@Z$2
__ehfuncinfo$?resolveReference@Value@Json@@AAEAAV12@PBD_N@Z DD 019930522H
	DD	03H
	DD	FLAT:__unwindtable$?resolveReference@Value@Json@@AAEAAV12@PBD_N@Z
	DD	2 DUP(00H)
	DD	2 DUP(00H)
	DD	00H
	DD	01H
xdata$x	ENDS
;	COMDAT xdata$x
xdata$x	SEGMENT
__unwindtable$?toStyledString@Value@Json@@QBE?AV?$basic_string@DU?$char_traits@D@std@@V?$allocator@D@2@@std@@XZ DD 0ffffffffH
	DD	FLAT:__unwindfunclet$?toStyledString@Value@Json@@QBE?AV?$basic_string@DU?$char_traits@D@std@@V?$allocator@D@2@@std@@XZ$1
	DD	00H
	DD	FLAT:__unwindfunclet$?toStyledString@Value@Json@@QBE?AV?$basic_string@DU?$char_traits@D@std@@V?$allocator@D@2@@std@@XZ$0
__ehfuncinfo$?toStyledString@Value@Json@@QBE?AV?$basic_string@DU?$char_traits@D@std@@V?$allocator@D@2@@std@@XZ DD 019930522H
	DD	02H
	DD	FLAT:__unwindtable$?toStyledString@Value@Json@@QBE?AV?$basic_string@DU?$char_traits@D@std@@V?$allocator@D@2@@std@@XZ
	DD	2 DUP(00H)
	DD	2 DUP(00H)
	DD	00H
	DD	01H
xdata$x	ENDS
;	COMDAT xdata$x
xdata$x	SEGMENT
__unwindtable$?setComment@Value@Json@@QAEXPBDW4CommentPlacement@2@@Z DD 0ffffffffH
	DD	FLAT:__unwindfunclet$?setComment@Value@Json@@QAEXPBDW4CommentPlacement@2@@Z$0
__ehfuncinfo$?setComment@Value@Json@@QAEXPBDW4CommentPlacement@2@@Z DD 019930522H
	DD	01H
	DD	FLAT:__unwindtable$?setComment@Value@Json@@QAEXPBDW4CommentPlacement@2@@Z
	DD	2 DUP(00H)
	DD	2 DUP(00H)
	DD	00H
	DD	01H
xdata$x	ENDS
;	COMDAT xdata$x
xdata$x	SEGMENT
__unwindtable$?getMemberNames@Value@Json@@QBE?AV?$vector@V?$basic_string@DU?$char_traits@D@std@@V?$allocator@D@2@@std@@V?$allocator@V?$basic_string@DU?$char_traits@D@std@@V?$allocator@D@2@@std@@@2@@std@@XZ DD 0ffffffffH
	DD	FLAT:__unwindfunclet$?getMemberNames@Value@Json@@QBE?AV?$vector@V?$basic_string@DU?$char_traits@D@std@@V?$allocator@D@2@@std@@V?$allocator@V?$basic_string@DU?$char_traits@D@std@@V?$allocator@D@2@@std@@@2@@std@@XZ$1
	DD	00H
	DD	FLAT:__unwindfunclet$?getMemberNames@Value@Json@@QBE?AV?$vector@V?$basic_string@DU?$char_traits@D@std@@V?$allocator@D@2@@std@@V?$allocator@V?$basic_string@DU?$char_traits@D@std@@V?$allocator@D@2@@std@@@2@@std@@XZ$2
__ehfuncinfo$?getMemberNames@Value@Json@@QBE?AV?$vector@V?$basic_string@DU?$char_traits@D@std@@V?$allocator@D@2@@std@@V?$allocator@V?$basic_string@DU?$char_traits@D@std@@V?$allocator@D@2@@std@@@2@@std@@XZ DD 019930522H
	DD	02H
	DD	FLAT:__unwindtable$?getMemberNames@Value@Json@@QBE?AV?$vector@V?$basic_string@DU?$char_traits@D@std@@V?$allocator@D@2@@std@@V?$allocator@V?$basic_string@DU?$char_traits@D@std@@V?$allocator@D@2@@std@@@2@@std@@XZ
	DD	2 DUP(00H)
	DD	2 DUP(00H)
	DD	00H
	DD	01H
xdata$x	ENDS
;	COMDAT xdata$x
xdata$x	SEGMENT
__unwindtable$?removeMember@Value@Json@@QAE?AV12@PBD@Z DD 0ffffffffH
	DD	FLAT:__unwindfunclet$?removeMember@Value@Json@@QAE?AV12@PBD@Z$0
	DD	00H
	DD	FLAT:__unwindfunclet$?removeMember@Value@Json@@QAE?AV12@PBD@Z$1
	DD	01H
	DD	FLAT:__unwindfunclet$?removeMember@Value@Json@@QAE?AV12@PBD@Z$2
__ehfuncinfo$?removeMember@Value@Json@@QAE?AV12@PBD@Z DD 019930522H
	DD	03H
	DD	FLAT:__unwindtable$?removeMember@Value@Json@@QAE?AV12@PBD@Z
	DD	2 DUP(00H)
	DD	2 DUP(00H)
	DD	00H
	DD	01H
xdata$x	ENDS
;	COMDAT xdata$x
xdata$x	SEGMENT
__unwindtable$??AValue@Json@@QBEABV01@PBD@Z DD 0ffffffffH
	DD	FLAT:__unwindfunclet$??AValue@Json@@QBEABV01@PBD@Z$0
__ehfuncinfo$??AValue@Json@@QBEABV01@PBD@Z DD 019930522H
	DD	01H
	DD	FLAT:__unwindtable$??AValue@Json@@QBEABV01@PBD@Z
	DD	2 DUP(00H)
	DD	2 DUP(00H)
	DD	00H
	DD	01H
xdata$x	ENDS
;	COMDAT xdata$x
xdata$x	SEGMENT
__unwindtable$??AValue@Json@@QBEABV01@I@Z DD 0ffffffffH
	DD	FLAT:__unwindfunclet$??AValue@Json@@QBEABV01@I@Z$0
__ehfuncinfo$??AValue@Json@@QBEABV01@I@Z DD 019930522H
	DD	01H
	DD	FLAT:__unwindtable$??AValue@Json@@QBEABV01@I@Z
	DD	2 DUP(00H)
	DD	2 DUP(00H)
	DD	00H
	DD	01H
xdata$x	ENDS
;	COMDAT xdata$x
xdata$x	SEGMENT
__unwindtable$??AValue@Json@@QAEAAV01@I@Z DD 0ffffffffH
	DD	FLAT:__unwindfunclet$??AValue@Json@@QAEAAV01@I@Z$0
	DD	0ffffffffH
	DD	FLAT:__unwindfunclet$??AValue@Json@@QAEAAV01@I@Z$1
	DD	01H
	DD	FLAT:__unwindfunclet$??AValue@Json@@QAEAAV01@I@Z$2
__ehfuncinfo$??AValue@Json@@QAEAAV01@I@Z DD 019930522H
	DD	03H
	DD	FLAT:__unwindtable$??AValue@Json@@QAEAAV01@I@Z
	DD	2 DUP(00H)
	DD	2 DUP(00H)
	DD	00H
	DD	01H
xdata$x	ENDS
;	COMDAT xdata$x
xdata$x	SEGMENT
__unwindtable$?resize@Value@Json@@QAEXI@Z DD 0ffffffffH
	DD	FLAT:__unwindfunclet$?resize@Value@Json@@QAEXI@Z$0
	DD	0ffffffffH
	DD	FLAT:__unwindfunclet$?resize@Value@Json@@QAEXI@Z$1
__ehfuncinfo$?resize@Value@Json@@QAEXI@Z DD 019930522H
	DD	02H
	DD	FLAT:__unwindtable$?resize@Value@Json@@QAEXI@Z
	DD	2 DUP(00H)
	DD	2 DUP(00H)
	DD	00H
	DD	01H
xdata$x	ENDS
;	COMDAT xdata$x
xdata$x	SEGMENT
__unwindtable$??4Value@Json@@QAEAAV01@ABV01@@Z DD 0ffffffffH
	DD	FLAT:__unwindfunclet$??4Value@Json@@QAEAAV01@ABV01@@Z$0
__ehfuncinfo$??4Value@Json@@QAEAAV01@ABV01@@Z DD 019930522H
	DD	01H
	DD	FLAT:__unwindtable$??4Value@Json@@QAEAAV01@ABV01@@Z
	DD	2 DUP(00H)
	DD	2 DUP(00H)
	DD	00H
	DD	01H
xdata$x	ENDS
;	COMDAT xdata$x
xdata$x	SEGMENT
__unwindtable$??0Value@Json@@QAE@ABV01@@Z DD 0ffffffffH
	DD	FLAT:__unwindfunclet$??0Value@Json@@QAE@ABV01@@Z$0
	DD	0ffffffffH
	DD	FLAT:__unwindfunclet$??0Value@Json@@QAE@ABV01@@Z$1
__ehfuncinfo$??0Value@Json@@QAE@ABV01@@Z DD 019930522H
	DD	02H
	DD	FLAT:__unwindtable$??0Value@Json@@QAE@ABV01@@Z
	DD	2 DUP(00H)
	DD	2 DUP(00H)
	DD	00H
	DD	01H
xdata$x	ENDS
;	COMDAT xdata$x
xdata$x	SEGMENT
__unwindtable$??0Value@Json@@QAE@W4ValueType@1@@Z DD 0ffffffffH
	DD	FLAT:__unwindfunclet$??0Value@Json@@QAE@W4ValueType@1@@Z$0
__ehfuncinfo$??0Value@Json@@QAE@W4ValueType@1@@Z DD 019930522H
	DD	01H
	DD	FLAT:__unwindtable$??0Value@Json@@QAE@W4ValueType@1@@Z
	DD	2 DUP(00H)
	DD	2 DUP(00H)
	DD	00H
	DD	01H
xdata$x	ENDS
;	COMDAT xdata$x
xdata$x	SEGMENT
__unwindtable$??4CZString@Value@Json@@QAEAAV012@ABV012@@Z DD 0ffffffffH
	DD	FLAT:__unwindfunclet$??4CZString@Value@Json@@QAEAAV012@ABV012@@Z$0
__ehfuncinfo$??4CZString@Value@Json@@QAEAAV012@ABV012@@Z DD 019930522H
	DD	01H
	DD	FLAT:__unwindtable$??4CZString@Value@Json@@QAEAAV012@ABV012@@Z
	DD	2 DUP(00H)
	DD	2 DUP(00H)
	DD	00H
	DD	01H
xdata$x	ENDS
;	COMDAT xdata$x
xdata$x	SEGMENT
__catchsym$?_Copy@?$basic_string@DU?$char_traits@D@std@@V?$allocator@D@2@@std@@QAEXII@Z$5 DD 040H
	DD	00H
	DD	00H
	DD	FLAT:__catch$?_Copy@?$basic_string@DU?$char_traits@D@std@@V?$allocator@D@2@@std@@QAEXII@Z$0
__catchsym$?_Copy@?$basic_string@DU?$char_traits@D@std@@V?$allocator@D@2@@std@@QAEXII@Z$4 DD 040H
	DD	00H
	DD	00H
	DD	FLAT:__catch$?_Copy@?$basic_string@DU?$char_traits@D@std@@V?$allocator@D@2@@std@@QAEXII@Z$1
__unwindtable$?_Copy@?$basic_string@DU?$char_traits@D@std@@V?$allocator@D@2@@std@@QAEXII@Z DD 0ffffffffH
	DD	00H
	DD	0ffffffffH
	DD	00H
	DD	01H
	DD	00H
	DD	01H
	DD	00H
__ehfuncinfo$?_Copy@?$basic_string@DU?$char_traits@D@std@@V?$allocator@D@2@@std@@QAEXII@Z DD 019930522H
	DD	04H
	DD	FLAT:__unwindtable$?_Copy@?$basic_string@DU?$char_traits@D@std@@V?$allocator@D@2@@std@@QAEXII@Z
	DD	02H
	DD	FLAT:__tryblocktable$?_Copy@?$basic_string@DU?$char_traits@D@std@@V?$allocator@D@2@@std@@QAEXII@Z
	DD	2 DUP(00H)
	DD	00H
	DD	01H
__tryblocktable$?_Copy@?$basic_string@DU?$char_traits@D@std@@V?$allocator@D@2@@std@@QAEXII@Z DD 02H
	DD	02H
	DD	03H
	DD	01H
	DD	FLAT:__catchsym$?_Copy@?$basic_string@DU?$char_traits@D@std@@V?$allocator@D@2@@std@@QAEXII@Z$4
	DD	00H
	DD	00H
	DD	03H
	DD	01H
	DD	FLAT:__catchsym$?_Copy@?$basic_string@DU?$char_traits@D@std@@V?$allocator@D@2@@std@@QAEXII@Z$5
xdata$x	ENDS
CRT$XCU	SEGMENT
_allocator_arg$initializer$ DD FLAT:??__Eallocator_arg@std@@YAXXZ
CRT$XCU	ENDS
CRT$XCU	SEGMENT
_ignore$initializer$ DD FLAT:??__Eignore@std@@YAXXZ
CRT$XCU	ENDS
CRT$XCU	SEGMENT
__Tuple_alloc$initializer$ DD FLAT:??__E_Tuple_alloc@std@@YAXXZ
CRT$XCU	ENDS
CRT$XCU	SEGMENT
?null$initializer$@Value@Json@@2P6AXXZA DD FLAT:??__E?null@Value@Json@@2V12@B@@YAXXZ ; Json::Value::null$initializer$
CRT$XCU	ENDS
CRT$XCU	SEGMENT
_dummyValueAllocatorInitializer$initializer$ DD FLAT:??__EdummyValueAllocatorInitializer@Json@@YAXXZ
CRT$XCU	ENDS
;	COMDAT CRT$XCU
CRT$XCU	SEGMENT
?_Generic_object$initializer$@?$_Error_objects@H@std@@2P6AXXZA DD FLAT:??__E?_Generic_object@?$_Error_objects@H@std@@2V_Generic_error_category@2@A@@YAXXZ ; std::_Error_objects<int>::_Generic_object$initializer$
CRT$XCU	ENDS
;	COMDAT CRT$XCU
CRT$XCU	SEGMENT
?_Iostream_object$initializer$@?$_Error_objects@H@std@@2P6AXXZA DD FLAT:??__E?_Iostream_object@?$_Error_objects@H@std@@2V_Iostream_error_category@2@A@@YAXXZ ; std::_Error_objects<int>::_Iostream_object$initializer$
CRT$XCU	ENDS
;	COMDAT CRT$XCU
CRT$XCU	SEGMENT
?_System_object$initializer$@?$_Error_objects@H@std@@2P6AXXZA DD FLAT:??__E?_System_object@?$_Error_objects@H@std@@2V_System_error_category@2@A@@YAXXZ ; std::_Error_objects<int>::_System_object$initializer$
CRT$XCU	ENDS
;	COMDAT CRT$XCU
CRT$XCU	SEGMENT
?id$initializer$@?$num_put@DV?$back_insert_iterator@V?$basic_string@DU?$char_traits@D@std@@V?$allocator@D@2@@std@@@std@@@std@@2P6AXXZA DD FLAT:??__E?id@?$num_put@DV?$back_insert_iterator@V?$basic_string@DU?$char_traits@D@std@@V?$allocator@D@2@@std@@@std@@@std@@2V0locale@2@A@@YAXXZ ; std::num_put<char,std::back_insert_iterator<std::basic_string<char,std::char_traits<char>,std::allocator<char> > > >::id$initializer$
CRT$XCU	ENDS
;	COMDAT CRT$XCU
CRT$XCU	SEGMENT
?id$initializer$@?$num_put@_WV?$back_insert_iterator@V?$basic_string@_WU?$char_traits@_W@std@@V?$allocator@_W@2@@std@@@std@@@std@@2P6AXXZA DD FLAT:??__E?id@?$num_put@_WV?$back_insert_iterator@V?$basic_string@_WU?$char_traits@_W@std@@V?$allocator@_W@2@@std@@@std@@@std@@2V0locale@2@A@@YAXXZ ; std::num_put<wchar_t,std::back_insert_iterator<std::basic_string<wchar_t,std::char_traits<wchar_t>,std::allocator<wchar_t> > > >::id$initializer$
CRT$XCU	ENDS
; Function compile flags: /Odtp
; File c:\program files (x86)\microsoft visual studio 12.0\vc\include\xmemory0
;	COMDAT ??$destroy@V?$basic_string@DU?$char_traits@D@std@@V?$allocator@D@2@@std@@@?$allocator@V?$basic_string@DU?$char_traits@D@std@@V?$allocator@D@2@@std@@@std@@QAEXPAV?$basic_string@DU?$char_traits@D@std@@V?$allocator@D@2@@1@@Z
_TEXT	SEGMENT
_this$ = -4						; size = 4
__Ptr$ = 8						; size = 4
??$destroy@V?$basic_string@DU?$char_traits@D@std@@V?$allocator@D@2@@std@@@?$allocator@V?$basic_string@DU?$char_traits@D@std@@V?$allocator@D@2@@std@@@std@@QAEXPAV?$basic_string@DU?$char_traits@D@std@@V?$allocator@D@2@@1@@Z PROC ; std::allocator<std::basic_string<char,std::char_traits<char>,std::allocator<char> > >::destroy<std::basic_string<char,std::char_traits<char>,std::allocator<char> > >, COMDAT
; _this$ = ecx

; 605  : 		void destroy(_Uty *_Ptr)

	push	ebp
	mov	ebp, esp
	push	ecx
	mov	DWORD PTR _this$[ebp], ecx

; 606  : 		{	// destroy object at _Ptr
; 607  : 		_Ptr->~_Uty();

	push	0
	mov	ecx, DWORD PTR __Ptr$[ebp]
	call	??_G?$basic_string@DU?$char_traits@D@std@@V?$allocator@D@2@@std@@QAEPAXI@Z

; 608  : 		}

	mov	esp, ebp
	pop	ebp
	ret	4
??$destroy@V?$basic_string@DU?$char_traits@D@std@@V?$allocator@D@2@@std@@@?$allocator@V?$basic_string@DU?$char_traits@D@std@@V?$allocator@D@2@@std@@@std@@QAEXPAV?$basic_string@DU?$char_traits@D@std@@V?$allocator@D@2@@1@@Z ENDP ; std::allocator<std::basic_string<char,std::char_traits<char>,std::allocator<char> > >::destroy<std::basic_string<char,std::char_traits<char>,std::allocator<char> > >
_TEXT	ENDS
; Function compile flags: /Odtp
; File c:\program files (x86)\microsoft visual studio 12.0\vc\include\xmemory0
;	COMDAT ??$destroy@VPathArgument@Json@@@?$allocator@VPathArgument@Json@@@std@@QAEXPAVPathArgument@Json@@@Z
_TEXT	SEGMENT
_this$ = -4						; size = 4
__Ptr$ = 8						; size = 4
??$destroy@VPathArgument@Json@@@?$allocator@VPathArgument@Json@@@std@@QAEXPAVPathArgument@Json@@@Z PROC ; std::allocator<Json::PathArgument>::destroy<Json::PathArgument>, COMDAT
; _this$ = ecx

; 605  : 		void destroy(_Uty *_Ptr)

	push	ebp
	mov	ebp, esp
	push	ecx
	mov	DWORD PTR _this$[ebp], ecx

; 606  : 		{	// destroy object at _Ptr
; 607  : 		_Ptr->~_Uty();

	push	0
	mov	ecx, DWORD PTR __Ptr$[ebp]
	call	??_GPathArgument@Json@@QAEPAXI@Z

; 608  : 		}

	mov	esp, ebp
	pop	ebp
	ret	4
??$destroy@VPathArgument@Json@@@?$allocator@VPathArgument@Json@@@std@@QAEXPAVPathArgument@Json@@@Z ENDP ; std::allocator<Json::PathArgument>::destroy<Json::PathArgument>
_TEXT	ENDS
; Function compile flags: /Odtp
; File c:\program files (x86)\microsoft visual studio 12.0\vc\include\type_traits
;	COMDAT ??$forward@_N@std@@YA$$QA_NAA_N@Z
_TEXT	SEGMENT
__Arg$ = 8						; size = 4
??$forward@_N@std@@YA$$QA_NAA_N@Z PROC			; std::forward<bool>, COMDAT

; 1504 : 	{	// forward an lvalue

	push	ebp
	mov	ebp, esp

; 1505 : 	return (static_cast<_Ty&&>(_Arg));

	mov	eax, DWORD PTR __Arg$[ebp]

; 1506 : 	}

	pop	ebp
	ret	0
??$forward@_N@std@@YA$$QA_NAA_N@Z ENDP			; std::forward<bool>
_TEXT	ENDS
; Function compile flags: /Odtp
; File c:\program files (x86)\microsoft visual studio 12.0\vc\include\type_traits
;	COMDAT ??$forward@V?$_Tree_iterator@V?$_Tree_val@U?$_Tree_simple_types@U?$pair@$$CBVCZString@Value@Json@@V23@@std@@@std@@@std@@@std@@@std@@YA$$QAV?$_Tree_iterator@V?$_Tree_val@U?$_Tree_simple_types@U?$pair@$$CBVCZString@Value@Json@@V23@@std@@@std@@@std@@@0@AAV10@@Z
_TEXT	SEGMENT
__Arg$ = 8						; size = 4
??$forward@V?$_Tree_iterator@V?$_Tree_val@U?$_Tree_simple_types@U?$pair@$$CBVCZString@Value@Json@@V23@@std@@@std@@@std@@@std@@@std@@YA$$QAV?$_Tree_iterator@V?$_Tree_val@U?$_Tree_simple_types@U?$pair@$$CBVCZString@Value@Json@@V23@@std@@@std@@@std@@@0@AAV10@@Z PROC ; std::forward<std::_Tree_iterator<std::_Tree_val<std::_Tree_simple_types<std::pair<Json::Value::CZString const ,Json::Value> > > > >, COMDAT

; 1504 : 	{	// forward an lvalue

	push	ebp
	mov	ebp, esp

; 1505 : 	return (static_cast<_Ty&&>(_Arg));

	mov	eax, DWORD PTR __Arg$[ebp]

; 1506 : 	}

	pop	ebp
	ret	0
??$forward@V?$_Tree_iterator@V?$_Tree_val@U?$_Tree_simple_types@U?$pair@$$CBVCZString@Value@Json@@V23@@std@@@std@@@std@@@std@@@std@@YA$$QAV?$_Tree_iterator@V?$_Tree_val@U?$_Tree_simple_types@U?$pair@$$CBVCZString@Value@Json@@V23@@std@@@std@@@std@@@0@AAV10@@Z ENDP ; std::forward<std::_Tree_iterator<std::_Tree_val<std::_Tree_simple_types<std::pair<Json::Value::CZString const ,Json::Value> > > > >
_TEXT	ENDS
; Function compile flags: /Odtp
; File c:\program files (x86)\microsoft visual studio 12.0\vc\include\xmemory0
;	COMDAT ??$construct@U?$pair@$$CBVCZString@Value@Json@@V23@@std@@AAU12@@?$allocator@U?$_Tree_node@U?$pair@$$CBVCZString@Value@Json@@V23@@std@@PAX@std@@@std@@QAEXPAU?$pair@$$CBVCZString@Value@Json@@V23@@1@AAU21@@Z
_TEXT	SEGMENT
$T2 = -28						; size = 4
_this$ = -24						; size = 4
tv76 = -20						; size = 4
$T3 = -16						; size = 4
__$EHRec$ = -12						; size = 12
__Ptr$ = 8						; size = 4
_<_Args_0>$ = 12					; size = 4
